ARM GAS  C:\Users\Luis\AppData\Local\Temp\cc6PEIto.s 			page 1


   1              		.syntax unified
   2              		.cpu cortex-m4
   3              		.fpu softvfp
   4              		.eabi_attribute 20, 1
   5              		.eabi_attribute 21, 1
   6              		.eabi_attribute 23, 3
   7              		.eabi_attribute 24, 1
   8              		.eabi_attribute 25, 1
   9              		.eabi_attribute 26, 1
  10              		.eabi_attribute 30, 6
  11              		.eabi_attribute 34, 1
  12              		.eabi_attribute 18, 4
  13              		.thumb
  14              		.file	"test.c"
  15              		.text
  16              	.Ltext0:
  17              		.cfi_sections	.debug_frame
  18              		.section	.text.port_lock,"ax",%progbits
  19              		.align	2
  20              		.p2align 4,,15
  21              		.thumb
  22              		.thumb_func
  23              		.type	port_lock, %function
  24              	port_lock:
  25              	.LFB116:
  26              		.file 1 "../../ChibiOS/os/rt/ports/ARMCMx/chcore_v7m.h"
  27              		.loc 1 444 0
  28              		.cfi_startproc
  29              		@ args = 0, pretend = 0, frame = 8
  30              		@ frame_needed = 1, uses_anonymous_args = 0
  31              		@ link register save eliminated.
  32 0000 80B4     		push	{r7}
  33              		.cfi_def_cfa_offset 4
  34              		.cfi_offset 7, -4
  35 0002 83B0     		sub	sp, sp, #12
  36              		.cfi_def_cfa_offset 16
  37 0004 00AF     		add	r7, sp, #0
  38              		.cfi_def_cfa_register 7
  39 0006 2023     		movs	r3, #32
  40 0008 7B60     		str	r3, [r7, #4]
  41              	.LBB6:
  42              	.LBB7:
  43              		.file 2 "../../ChibiOS/os/ext/CMSIS/include/core_cmFunc.h"
  44              		.loc 2 546 0
  45 000a 7B68     		ldr	r3, [r7, #4]
  46              	@ 546 "../../ChibiOS/os/ext/CMSIS/include/core_cmFunc.h" 1
  47 000c 83F31188 		MSR basepri, r3
  48              	@ 0 "" 2
  49              		.thumb
  50              	.LBE7:
  51              	.LBE6:
  52              		.loc 1 451 0
  53 0010 0C37     		adds	r7, r7, #12
  54 0012 BD46     		mov	sp, r7
  55              		@ sp needed
  56 0014 5DF8047B 		ldr	r7, [sp], #4
  57 0018 7047     		bx	lr
ARM GAS  C:\Users\Luis\AppData\Local\Temp\cc6PEIto.s 			page 2


  58              		.cfi_endproc
  59              	.LFE116:
  60              		.size	port_lock, .-port_lock
  61 001a 00BFAFF3 		.section	.text.port_unlock,"ax",%progbits
  61      0080
  62              		.align	2
  63              		.p2align 4,,15
  64              		.thumb
  65              		.thumb_func
  66              		.type	port_unlock, %function
  67              	port_unlock:
  68              	.LFB117:
  69              		.loc 1 458 0
  70              		.cfi_startproc
  71              		@ args = 0, pretend = 0, frame = 8
  72              		@ frame_needed = 1, uses_anonymous_args = 0
  73              		@ link register save eliminated.
  74 0000 80B4     		push	{r7}
  75              		.cfi_def_cfa_offset 4
  76              		.cfi_offset 7, -4
  77 0002 83B0     		sub	sp, sp, #12
  78              		.cfi_def_cfa_offset 16
  79 0004 00AF     		add	r7, sp, #0
  80              		.cfi_def_cfa_register 7
  81 0006 0023     		movs	r3, #0
  82 0008 7B60     		str	r3, [r7, #4]
  83              	.LBB8:
  84              	.LBB9:
  85              		.loc 2 546 0
  86 000a 7B68     		ldr	r3, [r7, #4]
  87              	@ 546 "../../ChibiOS/os/ext/CMSIS/include/core_cmFunc.h" 1
  88 000c 83F31188 		MSR basepri, r3
  89              	@ 0 "" 2
  90              		.thumb
  91              	.LBE9:
  92              	.LBE8:
  93              		.loc 1 465 0
  94 0010 0C37     		adds	r7, r7, #12
  95 0012 BD46     		mov	sp, r7
  96              		@ sp needed
  97 0014 5DF8047B 		ldr	r7, [sp], #4
  98 0018 7047     		bx	lr
  99              		.cfi_endproc
 100              	.LFE117:
 101              		.size	port_unlock, .-port_unlock
 102 001a 00BFAFF3 		.section	.text.st_lld_get_counter,"ax",%progbits
 102      0080
 103              		.align	2
 104              		.p2align 4,,15
 105              		.thumb
 106              		.thumb_func
 107              		.type	st_lld_get_counter, %function
 108              	st_lld_get_counter:
 109              	.LFB125:
 110              		.file 3 "../../ChibiOS/os/hal/ports/STM32/LLD/TIMv1/st_lld.h"
 111              		.loc 3 127 0
 112              		.cfi_startproc
ARM GAS  C:\Users\Luis\AppData\Local\Temp\cc6PEIto.s 			page 3


 113              		@ args = 0, pretend = 0, frame = 0
 114              		@ frame_needed = 1, uses_anonymous_args = 0
 115              		@ link register save eliminated.
 116 0000 80B4     		push	{r7}
 117              		.cfi_def_cfa_offset 4
 118              		.cfi_offset 7, -4
 119 0002 00AF     		add	r7, sp, #0
 120              		.cfi_def_cfa_register 7
 121              		.loc 3 129 0
 122 0004 4FF08043 		mov	r3, #1073741824
 123 0008 5B6A     		ldr	r3, [r3, #36]
 124              		.loc 3 130 0
 125 000a 1846     		mov	r0, r3
 126 000c BD46     		mov	sp, r7
 127              		@ sp needed
 128 000e 5DF8047B 		ldr	r7, [sp], #4
 129 0012 7047     		bx	lr
 130              		.cfi_endproc
 131              	.LFE125:
 132              		.size	st_lld_get_counter, .-st_lld_get_counter
 133 0014 AFF30080 		.section	.text.port_timer_get_time,"ax",%progbits
 133      AFF30080 
 133      AFF30080 
 134              		.align	2
 135              		.p2align 4,,15
 136              		.thumb
 137              		.thumb_func
 138              		.type	port_timer_get_time, %function
 139              	port_timer_get_time:
 140              	.LFB134:
 141              		.file 4 "../../ChibiOS/os/rt/ports/ARMCMx/chcore_timer.h"
 142              		.loc 4 105 0
 143              		.cfi_startproc
 144              		@ args = 0, pretend = 0, frame = 0
 145              		@ frame_needed = 1, uses_anonymous_args = 0
 146 0000 80B5     		push	{r7, lr}
 147              		.cfi_def_cfa_offset 8
 148              		.cfi_offset 7, -8
 149              		.cfi_offset 14, -4
 150 0002 00AF     		add	r7, sp, #0
 151              		.cfi_def_cfa_register 7
 152              		.loc 4 107 0
 153 0004 FFF7FEFF 		bl	st_lld_get_counter
 154 0008 0346     		mov	r3, r0
 155              		.loc 4 108 0
 156 000a 1846     		mov	r0, r3
 157 000c 80BD     		pop	{r7, pc}
 158              		.cfi_endproc
 159              	.LFE134:
 160              		.size	port_timer_get_time, .-port_timer_get_time
 161 000e 00BF     		.section	.text.chSysLock,"ax",%progbits
 162              		.align	2
 163              		.p2align 4,,15
 164              		.thumb
 165              		.thumb_func
 166              		.type	chSysLock, %function
 167              	chSysLock:
ARM GAS  C:\Users\Luis\AppData\Local\Temp\cc6PEIto.s 			page 4


 168              	.LFB156:
 169              		.file 5 "../../ChibiOS/os/rt/include/chsys.h"
 170              		.loc 5 346 0
 171              		.cfi_startproc
 172              		@ args = 0, pretend = 0, frame = 0
 173              		@ frame_needed = 1, uses_anonymous_args = 0
 174 0000 80B5     		push	{r7, lr}
 175              		.cfi_def_cfa_offset 8
 176              		.cfi_offset 7, -8
 177              		.cfi_offset 14, -4
 178 0002 00AF     		add	r7, sp, #0
 179              		.cfi_def_cfa_register 7
 180              		.loc 5 348 0
 181 0004 FFF7FEFF 		bl	port_lock
 182              		.loc 5 349 0
 183 0008 FFF7FEFF 		bl	_stats_start_measure_crit_thd
 184              		.loc 5 350 0
 185 000c FFF7FEFF 		bl	_dbg_check_lock
 186              		.loc 5 351 0
 187 0010 80BD     		pop	{r7, pc}
 188              		.cfi_endproc
 189              	.LFE156:
 190              		.size	chSysLock, .-chSysLock
 191 0012 00BFAFF3 		.section	.text.chSysUnlock,"ax",%progbits
 191      0080AFF3 
 191      0080AFF3 
 191      0080
 192              		.align	2
 193              		.p2align 4,,15
 194              		.thumb
 195              		.thumb_func
 196              		.type	chSysUnlock, %function
 197              	chSysUnlock:
 198              	.LFB157:
 199              		.loc 5 358 0
 200              		.cfi_startproc
 201              		@ args = 0, pretend = 0, frame = 0
 202              		@ frame_needed = 1, uses_anonymous_args = 0
 203 0000 80B5     		push	{r7, lr}
 204              		.cfi_def_cfa_offset 8
 205              		.cfi_offset 7, -8
 206              		.cfi_offset 14, -4
 207 0002 00AF     		add	r7, sp, #0
 208              		.cfi_def_cfa_register 7
 209              		.loc 5 360 0
 210 0004 FFF7FEFF 		bl	_dbg_check_unlock
 211              		.loc 5 361 0
 212 0008 FFF7FEFF 		bl	_stats_stop_measure_crit_thd
 213              		.loc 5 367 0
 214 000c 094B     		ldr	r3, .L10
 215 000e 1A68     		ldr	r2, [r3]
 216 0010 084B     		ldr	r3, .L10
 217 0012 9A42     		cmp	r2, r3
 218 0014 0AD0     		beq	.L9
 219              		.loc 5 367 0 is_stmt 0 discriminator 1
 220 0016 074B     		ldr	r3, .L10
 221 0018 9B69     		ldr	r3, [r3, #24]
ARM GAS  C:\Users\Luis\AppData\Local\Temp\cc6PEIto.s 			page 5


 222 001a 9A68     		ldr	r2, [r3, #8]
 223 001c 054B     		ldr	r3, .L10
 224 001e 1B68     		ldr	r3, [r3]
 225 0020 9B68     		ldr	r3, [r3, #8]
 226 0022 9A42     		cmp	r2, r3
 227 0024 02D2     		bcs	.L9
 228 0026 0448     		ldr	r0, .L10+4
 229 0028 FFF7FEFF 		bl	chSysHalt
 230              	.L9:
 231              		.loc 5 371 0 is_stmt 1
 232 002c FFF7FEFF 		bl	port_unlock
 233              		.loc 5 372 0
 234 0030 80BD     		pop	{r7, pc}
 235              	.L11:
 236 0032 00BF     		.align	2
 237              	.L10:
 238 0034 00000000 		.word	ch
 239 0038 00000000 		.word	__func__.5842
 240              		.cfi_endproc
 241              	.LFE157:
 242              		.size	chSysUnlock, .-chSysUnlock
 243 003c AFF30080 		.section	.text.chVTGetSystemTimeX,"ax",%progbits
 244              		.align	2
 245              		.p2align 4,,15
 246              		.thumb
 247              		.thumb_func
 248              		.type	chVTGetSystemTimeX, %function
 249              	chVTGetSystemTimeX:
 250              	.LFB164:
 251              		.file 6 "../../ChibiOS/os/rt/include/chvt.h"
 252              		.loc 6 228 0
 253              		.cfi_startproc
 254              		@ args = 0, pretend = 0, frame = 0
 255              		@ frame_needed = 1, uses_anonymous_args = 0
 256 0000 80B5     		push	{r7, lr}
 257              		.cfi_def_cfa_offset 8
 258              		.cfi_offset 7, -8
 259              		.cfi_offset 14, -4
 260 0002 00AF     		add	r7, sp, #0
 261              		.cfi_def_cfa_register 7
 262              		.loc 6 233 0
 263 0004 FFF7FEFF 		bl	port_timer_get_time
 264 0008 0346     		mov	r3, r0
 265              		.loc 6 235 0
 266 000a 1846     		mov	r0, r3
 267 000c 80BD     		pop	{r7, pc}
 268              		.cfi_endproc
 269              	.LFE164:
 270              		.size	chVTGetSystemTimeX, .-chVTGetSystemTimeX
 271 000e 00BF     		.section	.text.chVTGetSystemTime,"ax",%progbits
 272              		.align	2
 273              		.p2align 4,,15
 274              		.thumb
 275              		.thumb_func
 276              		.type	chVTGetSystemTime, %function
 277              	chVTGetSystemTime:
 278              	.LFB165:
ARM GAS  C:\Users\Luis\AppData\Local\Temp\cc6PEIto.s 			page 6


 279              		.loc 6 247 0
 280              		.cfi_startproc
 281              		@ args = 0, pretend = 0, frame = 8
 282              		@ frame_needed = 1, uses_anonymous_args = 0
 283 0000 80B5     		push	{r7, lr}
 284              		.cfi_def_cfa_offset 8
 285              		.cfi_offset 7, -8
 286              		.cfi_offset 14, -4
 287 0002 82B0     		sub	sp, sp, #8
 288              		.cfi_def_cfa_offset 16
 289 0004 00AF     		add	r7, sp, #0
 290              		.cfi_def_cfa_register 7
 291              		.loc 6 250 0
 292 0006 FFF7FEFF 		bl	chSysLock
 293              		.loc 6 251 0
 294 000a FFF7FEFF 		bl	chVTGetSystemTimeX
 295 000e 7860     		str	r0, [r7, #4]
 296              		.loc 6 252 0
 297 0010 FFF7FEFF 		bl	chSysUnlock
 298              		.loc 6 254 0
 299 0014 7B68     		ldr	r3, [r7, #4]
 300              		.loc 6 255 0
 301 0016 1846     		mov	r0, r3
 302 0018 0837     		adds	r7, r7, #8
 303 001a BD46     		mov	sp, r7
 304              		@ sp needed
 305 001c 80BD     		pop	{r7, pc}
 306              		.cfi_endproc
 307              	.LFE165:
 308              		.size	chVTGetSystemTime, .-chVTGetSystemTime
 309 001e 00BF     		.section	.text.chVTIsTimeWithinX,"ax",%progbits
 310              		.align	2
 311              		.p2align 4,,15
 312              		.thumb
 313              		.thumb_func
 314              		.type	chVTIsTimeWithinX, %function
 315              	chVTIsTimeWithinX:
 316              	.LFB167:
 317              		.loc 6 286 0
 318              		.cfi_startproc
 319              		@ args = 0, pretend = 0, frame = 16
 320              		@ frame_needed = 1, uses_anonymous_args = 0
 321              		@ link register save eliminated.
 322 0000 80B4     		push	{r7}
 323              		.cfi_def_cfa_offset 4
 324              		.cfi_offset 7, -4
 325 0002 85B0     		sub	sp, sp, #20
 326              		.cfi_def_cfa_offset 24
 327 0004 00AF     		add	r7, sp, #0
 328              		.cfi_def_cfa_register 7
 329 0006 F860     		str	r0, [r7, #12]
 330 0008 B960     		str	r1, [r7, #8]
 331 000a 7A60     		str	r2, [r7, #4]
 332              		.loc 6 288 0
 333 000c FA68     		ldr	r2, [r7, #12]
 334 000e BB68     		ldr	r3, [r7, #8]
 335 0010 D21A     		subs	r2, r2, r3
ARM GAS  C:\Users\Luis\AppData\Local\Temp\cc6PEIto.s 			page 7


 336 0012 7968     		ldr	r1, [r7, #4]
 337 0014 BB68     		ldr	r3, [r7, #8]
 338 0016 CB1A     		subs	r3, r1, r3
 339 0018 9A42     		cmp	r2, r3
 340 001a 2CBF     		ite	cs
 341 001c 0023     		movcs	r3, #0
 342 001e 0123     		movcc	r3, #1
 343 0020 DBB2     		uxtb	r3, r3
 344              		.loc 6 289 0
 345 0022 1846     		mov	r0, r3
 346 0024 1437     		adds	r7, r7, #20
 347 0026 BD46     		mov	sp, r7
 348              		@ sp needed
 349 0028 5DF8047B 		ldr	r7, [sp], #4
 350 002c 7047     		bx	lr
 351              		.cfi_endproc
 352              	.LFE167:
 353              		.size	chVTIsTimeWithinX, .-chVTIsTimeWithinX
 354 002e 00BF     		.section	.text.chVTIsSystemTimeWithin,"ax",%progbits
 355              		.align	2
 356              		.p2align 4,,15
 357              		.thumb
 358              		.thumb_func
 359              		.type	chVTIsSystemTimeWithin, %function
 360              	chVTIsSystemTimeWithin:
 361              	.LFB169:
 362              		.loc 6 322 0
 363              		.cfi_startproc
 364              		@ args = 0, pretend = 0, frame = 8
 365              		@ frame_needed = 1, uses_anonymous_args = 0
 366 0000 80B5     		push	{r7, lr}
 367              		.cfi_def_cfa_offset 8
 368              		.cfi_offset 7, -8
 369              		.cfi_offset 14, -4
 370 0002 82B0     		sub	sp, sp, #8
 371              		.cfi_def_cfa_offset 16
 372 0004 00AF     		add	r7, sp, #0
 373              		.cfi_def_cfa_register 7
 374 0006 7860     		str	r0, [r7, #4]
 375 0008 3960     		str	r1, [r7]
 376              		.loc 6 324 0
 377 000a FFF7FEFF 		bl	chVTGetSystemTime
 378 000e 0346     		mov	r3, r0
 379 0010 1846     		mov	r0, r3
 380 0012 7968     		ldr	r1, [r7, #4]
 381 0014 3A68     		ldr	r2, [r7]
 382 0016 FFF7FEFF 		bl	chVTIsTimeWithinX
 383 001a 0346     		mov	r3, r0
 384              		.loc 6 325 0
 385 001c 1846     		mov	r0, r3
 386 001e 0837     		adds	r7, r7, #8
 387 0020 BD46     		mov	sp, r7
 388              		@ sp needed
 389 0022 80BD     		pop	{r7, pc}
 390              		.cfi_endproc
 391              	.LFE169:
 392              		.size	chVTIsSystemTimeWithin, .-chVTIsSystemTimeWithin
ARM GAS  C:\Users\Luis\AppData\Local\Temp\cc6PEIto.s 			page 8


 393 0024 AFF30080 		.section	.text.chVTIsArmedI,"ax",%progbits
 393      AFF30080 
 393      AFF30080 
 394              		.align	2
 395              		.p2align 4,,15
 396              		.thumb
 397              		.thumb_func
 398              		.type	chVTIsArmedI, %function
 399              	chVTIsArmedI:
 400              	.LFB170:
 401              		.loc 6 337 0
 402              		.cfi_startproc
 403              		@ args = 0, pretend = 0, frame = 8
 404              		@ frame_needed = 1, uses_anonymous_args = 0
 405 0000 80B5     		push	{r7, lr}
 406              		.cfi_def_cfa_offset 8
 407              		.cfi_offset 7, -8
 408              		.cfi_offset 14, -4
 409 0002 82B0     		sub	sp, sp, #8
 410              		.cfi_def_cfa_offset 16
 411 0004 00AF     		add	r7, sp, #0
 412              		.cfi_def_cfa_register 7
 413 0006 7860     		str	r0, [r7, #4]
 414              		.loc 6 339 0
 415 0008 FFF7FEFF 		bl	chDbgCheckClassI
 416              		.loc 6 341 0
 417 000c 7B68     		ldr	r3, [r7, #4]
 418 000e DB68     		ldr	r3, [r3, #12]
 419 0010 002B     		cmp	r3, #0
 420 0012 0CBF     		ite	eq
 421 0014 0023     		moveq	r3, #0
 422 0016 0123     		movne	r3, #1
 423 0018 DBB2     		uxtb	r3, r3
 424              		.loc 6 342 0
 425 001a 1846     		mov	r0, r3
 426 001c 0837     		adds	r7, r7, #8
 427 001e BD46     		mov	sp, r7
 428              		@ sp needed
 429 0020 80BD     		pop	{r7, pc}
 430              		.cfi_endproc
 431              	.LFE170:
 432              		.size	chVTIsArmedI, .-chVTIsArmedI
 433 0022 00BFAFF3 		.section	.text.chVTResetI,"ax",%progbits
 433      0080AFF3 
 433      0080AFF3 
 433      0080
 434              		.align	2
 435              		.p2align 4,,15
 436              		.thumb
 437              		.thumb_func
 438              		.type	chVTResetI, %function
 439              	chVTResetI:
 440              	.LFB172:
 441              		.loc 6 374 0
 442              		.cfi_startproc
 443              		@ args = 0, pretend = 0, frame = 8
 444              		@ frame_needed = 1, uses_anonymous_args = 0
ARM GAS  C:\Users\Luis\AppData\Local\Temp\cc6PEIto.s 			page 9


 445 0000 80B5     		push	{r7, lr}
 446              		.cfi_def_cfa_offset 8
 447              		.cfi_offset 7, -8
 448              		.cfi_offset 14, -4
 449 0002 82B0     		sub	sp, sp, #8
 450              		.cfi_def_cfa_offset 16
 451 0004 00AF     		add	r7, sp, #0
 452              		.cfi_def_cfa_register 7
 453 0006 7860     		str	r0, [r7, #4]
 454              		.loc 6 376 0
 455 0008 7868     		ldr	r0, [r7, #4]
 456 000a FFF7FEFF 		bl	chVTIsArmedI
 457 000e 0346     		mov	r3, r0
 458 0010 002B     		cmp	r3, #0
 459 0012 02D0     		beq	.L22
 460              		.loc 6 377 0
 461 0014 7868     		ldr	r0, [r7, #4]
 462 0016 FFF7FEFF 		bl	chVTDoResetI
 463              	.L22:
 464              		.loc 6 379 0
 465 001a 0837     		adds	r7, r7, #8
 466 001c BD46     		mov	sp, r7
 467              		@ sp needed
 468 001e 80BD     		pop	{r7, pc}
 469              		.cfi_endproc
 470              	.LFE172:
 471              		.size	chVTResetI, .-chVTResetI
 472              		.section	.text.chVTSetI,"ax",%progbits
 473              		.align	2
 474              		.p2align 4,,15
 475              		.thumb
 476              		.thumb_func
 477              		.type	chVTSetI, %function
 478              	chVTSetI:
 479              	.LFB174:
 480              		.loc 6 421 0
 481              		.cfi_startproc
 482              		@ args = 0, pretend = 0, frame = 16
 483              		@ frame_needed = 1, uses_anonymous_args = 0
 484 0000 80B5     		push	{r7, lr}
 485              		.cfi_def_cfa_offset 8
 486              		.cfi_offset 7, -8
 487              		.cfi_offset 14, -4
 488 0002 84B0     		sub	sp, sp, #16
 489              		.cfi_def_cfa_offset 24
 490 0004 00AF     		add	r7, sp, #0
 491              		.cfi_def_cfa_register 7
 492 0006 F860     		str	r0, [r7, #12]
 493 0008 B960     		str	r1, [r7, #8]
 494 000a 7A60     		str	r2, [r7, #4]
 495 000c 3B60     		str	r3, [r7]
 496              		.loc 6 423 0
 497 000e F868     		ldr	r0, [r7, #12]
 498 0010 FFF7FEFF 		bl	chVTResetI
 499              		.loc 6 424 0
 500 0014 F868     		ldr	r0, [r7, #12]
 501 0016 B968     		ldr	r1, [r7, #8]
ARM GAS  C:\Users\Luis\AppData\Local\Temp\cc6PEIto.s 			page 10


 502 0018 7A68     		ldr	r2, [r7, #4]
 503 001a 3B68     		ldr	r3, [r7]
 504 001c FFF7FEFF 		bl	chVTDoSetI
 505              		.loc 6 425 0
 506 0020 1037     		adds	r7, r7, #16
 507 0022 BD46     		mov	sp, r7
 508              		@ sp needed
 509 0024 80BD     		pop	{r7, pc}
 510              		.cfi_endproc
 511              	.LFE174:
 512              		.size	chVTSetI, .-chVTSetI
 513 0026 00BFAFF3 		.section	.text.chVTSet,"ax",%progbits
 513      0080AFF3 
 513      0080
 514              		.align	2
 515              		.p2align 4,,15
 516              		.thumb
 517              		.thumb_func
 518              		.type	chVTSet, %function
 519              	chVTSet:
 520              	.LFB175:
 521              		.loc 6 450 0
 522              		.cfi_startproc
 523              		@ args = 0, pretend = 0, frame = 16
 524              		@ frame_needed = 1, uses_anonymous_args = 0
 525 0000 80B5     		push	{r7, lr}
 526              		.cfi_def_cfa_offset 8
 527              		.cfi_offset 7, -8
 528              		.cfi_offset 14, -4
 529 0002 84B0     		sub	sp, sp, #16
 530              		.cfi_def_cfa_offset 24
 531 0004 00AF     		add	r7, sp, #0
 532              		.cfi_def_cfa_register 7
 533 0006 F860     		str	r0, [r7, #12]
 534 0008 B960     		str	r1, [r7, #8]
 535 000a 7A60     		str	r2, [r7, #4]
 536 000c 3B60     		str	r3, [r7]
 537              		.loc 6 452 0
 538 000e FFF7FEFF 		bl	chSysLock
 539              		.loc 6 453 0
 540 0012 F868     		ldr	r0, [r7, #12]
 541 0014 B968     		ldr	r1, [r7, #8]
 542 0016 7A68     		ldr	r2, [r7, #4]
 543 0018 3B68     		ldr	r3, [r7]
 544 001a FFF7FEFF 		bl	chVTSetI
 545              		.loc 6 454 0
 546 001e FFF7FEFF 		bl	chSysUnlock
 547              		.loc 6 455 0
 548 0022 1037     		adds	r7, r7, #16
 549 0024 BD46     		mov	sp, r7
 550              		@ sp needed
 551 0026 80BD     		pop	{r7, pc}
 552              		.cfi_endproc
 553              	.LFE175:
 554              		.size	chVTSet, .-chVTSet
 555 0028 AFF30080 		.section	.data.patterns,"aw",%progbits
 555      AFF30080 
ARM GAS  C:\Users\Luis\AppData\Local\Temp\cc6PEIto.s 			page 11


 556              		.align	2
 557              		.type	patterns, %object
 558              		.size	patterns, 52
 559              	patterns:
 560 0000 00000000 		.word	patternsys
 561 0004 00000000 		.word	patternthd
 562 0008 00000000 		.word	patternsem
 563 000c 00000000 		.word	patternmtx
 564 0010 00000000 		.word	patternmsg
 565 0014 00000000 		.word	patternmbox
 566 0018 00000000 		.word	patternevt
 567 001c 00000000 		.word	patternheap
 568 0020 00000000 		.word	patternpools
 569 0024 00000000 		.word	patterndyn
 570 0028 00000000 		.word	patternqueues
 571 002c 00000000 		.word	patternbmk
 572 0030 00000000 		.word	0
 573              		.global	test_global_fail
 574              		.section	.bss.test_global_fail,"aw",%nobits
 575              		.type	test_global_fail, %object
 576              		.size	test_global_fail, 1
 577              	test_global_fail:
 578 0000 00       		.space	1
 579              		.section	.bss.local_fail,"aw",%nobits
 580              		.type	local_fail, %object
 581              		.size	local_fail, 1
 582              	local_fail:
 583 0000 00       		.space	1
 584              		.section	.bss.failpoint,"aw",%nobits
 585              		.align	2
 586              		.type	failpoint, %object
 587              		.size	failpoint, 4
 588              	failpoint:
 589 0000 00000000 		.space	4
 590              		.section	.bss.tokens_buffer,"aw",%nobits
 591              		.align	2
 592              		.type	tokens_buffer, %object
 593              		.size	tokens_buffer, 16
 594              	tokens_buffer:
 595 0000 00000000 		.space	16
 595      00000000 
 595      00000000 
 595      00000000 
 596              		.section	.bss.tokp,"aw",%nobits
 597              		.align	2
 598              		.type	tokp, %object
 599              		.size	tokp, 4
 600              	tokp:
 601 0000 00000000 		.space	4
 602              		.global	test
 603              		.section	.bss.test,"aw",%nobits
 604              		.align	3
 605              		.type	test, %object
 606              		.size	test, 1840
 607              	test:
 608 0000 00000000 		.space	1840
 608      00000000 
ARM GAS  C:\Users\Luis\AppData\Local\Temp\cc6PEIto.s 			page 12


 608      00000000 
 608      00000000 
 608      00000000 
 609              		.global	threads
 610              		.section	.bss.threads,"aw",%nobits
 611              		.align	2
 612              		.type	threads, %object
 613              		.size	threads, 20
 614              	threads:
 615 0000 00000000 		.space	20
 615      00000000 
 615      00000000 
 615      00000000 
 615      00000000 
 616              		.global	wa
 617              		.section	.rodata.wa,"a",%progbits
 618              		.align	2
 619              		.type	wa, %object
 620              		.size	wa, 20
 621              	wa:
 622 0000 00000000 		.word	test
 623 0004 70010000 		.word	test+368
 624 0008 E0020000 		.word	test+736
 625 000c 50040000 		.word	test+1104
 626 0010 C0050000 		.word	test+1472
 627              		.section	.bss.chp,"aw",%nobits
 628              		.align	2
 629              		.type	chp, %object
 630              		.size	chp, 4
 631              	chp:
 632 0000 00000000 		.space	4
 633              		.section	.text.test_printn,"ax",%progbits
 634              		.align	2
 635              		.p2align 4,,15
 636              		.global	test_printn
 637              		.thumb
 638              		.thumb_func
 639              		.type	test_printn, %function
 640              	test_printn:
 641              	.LFB260:
 642              		.file 7 "../../ChibiOS/test/rt/test.c"
 643              		.loc 7 94 0
 644              		.cfi_startproc
 645              		@ args = 0, pretend = 0, frame = 32
 646              		@ frame_needed = 1, uses_anonymous_args = 0
 647 0000 80B5     		push	{r7, lr}
 648              		.cfi_def_cfa_offset 8
 649              		.cfi_offset 7, -8
 650              		.cfi_offset 14, -4
 651 0002 88B0     		sub	sp, sp, #32
 652              		.cfi_def_cfa_offset 40
 653 0004 00AF     		add	r7, sp, #0
 654              		.cfi_def_cfa_register 7
 655 0006 7860     		str	r0, [r7, #4]
 656              		.loc 7 97 0
 657 0008 7B68     		ldr	r3, [r7, #4]
 658 000a 002B     		cmp	r3, #0
ARM GAS  C:\Users\Luis\AppData\Local\Temp\cc6PEIto.s 			page 13


 659 000c 09D1     		bne	.L27
 660              		.loc 7 98 0
 661 000e 1F4B     		ldr	r3, .L33
 662 0010 1B68     		ldr	r3, [r3]
 663 0012 1B68     		ldr	r3, [r3]
 664 0014 9B68     		ldr	r3, [r3, #8]
 665 0016 1D4A     		ldr	r2, .L33
 666 0018 1268     		ldr	r2, [r2]
 667 001a 1046     		mov	r0, r2
 668 001c 3021     		movs	r1, #48
 669 001e 9847     		blx	r3
 670 0020 31E0     		b	.L26
 671              	.L27:
 672              		.loc 7 100 0
 673 0022 07F10C03 		add	r3, r7, #12
 674 0026 FB61     		str	r3, [r7, #28]
 675              		.loc 7 101 0
 676 0028 16E0     		b	.L29
 677              	.L30:
 678              		.loc 7 102 0
 679 002a F969     		ldr	r1, [r7, #28]
 680 002c 4B1C     		adds	r3, r1, #1
 681 002e FB61     		str	r3, [r7, #28]
 682 0030 7868     		ldr	r0, [r7, #4]
 683 0032 174B     		ldr	r3, .L33+4
 684 0034 A3FB0023 		umull	r2, r3, r3, r0
 685 0038 DA08     		lsrs	r2, r3, #3
 686 003a 1346     		mov	r3, r2
 687 003c 9B00     		lsls	r3, r3, #2
 688 003e 1344     		add	r3, r3, r2
 689 0040 5B00     		lsls	r3, r3, #1
 690 0042 C21A     		subs	r2, r0, r3
 691 0044 D3B2     		uxtb	r3, r2
 692 0046 3033     		adds	r3, r3, #48
 693 0048 DBB2     		uxtb	r3, r3
 694 004a 0B70     		strb	r3, [r1]
 695 004c 7A68     		ldr	r2, [r7, #4]
 696 004e 104B     		ldr	r3, .L33+4
 697 0050 A3FB0213 		umull	r1, r3, r3, r2
 698 0054 DB08     		lsrs	r3, r3, #3
 699 0056 7B60     		str	r3, [r7, #4]
 700              	.L29:
 701              		.loc 7 101 0 discriminator 1
 702 0058 7B68     		ldr	r3, [r7, #4]
 703 005a 002B     		cmp	r3, #0
 704 005c E5D1     		bne	.L30
 705              		.loc 7 103 0
 706 005e 0DE0     		b	.L31
 707              	.L32:
 708              		.loc 7 104 0
 709 0060 0A4B     		ldr	r3, .L33
 710 0062 1B68     		ldr	r3, [r3]
 711 0064 1B68     		ldr	r3, [r3]
 712 0066 9B68     		ldr	r3, [r3, #8]
 713 0068 084A     		ldr	r2, .L33
 714 006a 1168     		ldr	r1, [r2]
 715 006c FA69     		ldr	r2, [r7, #28]
ARM GAS  C:\Users\Luis\AppData\Local\Temp\cc6PEIto.s 			page 14


 716 006e 013A     		subs	r2, r2, #1
 717 0070 FA61     		str	r2, [r7, #28]
 718 0072 FA69     		ldr	r2, [r7, #28]
 719 0074 1278     		ldrb	r2, [r2]	@ zero_extendqisi2
 720 0076 0846     		mov	r0, r1
 721 0078 1146     		mov	r1, r2
 722 007a 9847     		blx	r3
 723              	.L31:
 724              		.loc 7 103 0 discriminator 1
 725 007c 07F10C03 		add	r3, r7, #12
 726 0080 FA69     		ldr	r2, [r7, #28]
 727 0082 9A42     		cmp	r2, r3
 728 0084 ECD8     		bhi	.L32
 729              	.L26:
 730              		.loc 7 106 0
 731 0086 2037     		adds	r7, r7, #32
 732 0088 BD46     		mov	sp, r7
 733              		@ sp needed
 734 008a 80BD     		pop	{r7, pc}
 735              	.L34:
 736              		.align	2
 737              	.L33:
 738 008c 00000000 		.word	chp
 739 0090 CDCCCCCC 		.word	-858993459
 740              		.cfi_endproc
 741              	.LFE260:
 742              		.size	test_printn, .-test_printn
 743 0094 AFF30080 		.section	.text.test_print,"ax",%progbits
 743      AFF30080 
 743      AFF30080 
 744              		.align	2
 745              		.p2align 4,,15
 746              		.global	test_print
 747              		.thumb
 748              		.thumb_func
 749              		.type	test_print, %function
 750              	test_print:
 751              	.LFB261:
 752              		.loc 7 113 0
 753              		.cfi_startproc
 754              		@ args = 0, pretend = 0, frame = 8
 755              		@ frame_needed = 1, uses_anonymous_args = 0
 756 0000 80B5     		push	{r7, lr}
 757              		.cfi_def_cfa_offset 8
 758              		.cfi_offset 7, -8
 759              		.cfi_offset 14, -4
 760 0002 82B0     		sub	sp, sp, #8
 761              		.cfi_def_cfa_offset 16
 762 0004 00AF     		add	r7, sp, #0
 763              		.cfi_def_cfa_register 7
 764 0006 7860     		str	r0, [r7, #4]
 765              		.loc 7 115 0
 766 0008 0CE0     		b	.L36
 767              	.L37:
 768              		.loc 7 116 0
 769 000a 0A4B     		ldr	r3, .L38
 770 000c 1B68     		ldr	r3, [r3]
ARM GAS  C:\Users\Luis\AppData\Local\Temp\cc6PEIto.s 			page 15


 771 000e 1B68     		ldr	r3, [r3]
 772 0010 9A68     		ldr	r2, [r3, #8]
 773 0012 084B     		ldr	r3, .L38
 774 0014 1968     		ldr	r1, [r3]
 775 0016 7B68     		ldr	r3, [r7, #4]
 776 0018 581C     		adds	r0, r3, #1
 777 001a 7860     		str	r0, [r7, #4]
 778 001c 1B78     		ldrb	r3, [r3]	@ zero_extendqisi2
 779 001e 0846     		mov	r0, r1
 780 0020 1946     		mov	r1, r3
 781 0022 9047     		blx	r2
 782              	.L36:
 783              		.loc 7 115 0 discriminator 1
 784 0024 7B68     		ldr	r3, [r7, #4]
 785 0026 1B78     		ldrb	r3, [r3]	@ zero_extendqisi2
 786 0028 002B     		cmp	r3, #0
 787 002a EED1     		bne	.L37
 788              		.loc 7 117 0
 789 002c 0837     		adds	r7, r7, #8
 790 002e BD46     		mov	sp, r7
 791              		@ sp needed
 792 0030 80BD     		pop	{r7, pc}
 793              	.L39:
 794 0032 00BF     		.align	2
 795              	.L38:
 796 0034 00000000 		.word	chp
 797              		.cfi_endproc
 798              	.LFE261:
 799              		.size	test_print, .-test_print
 800 0038 AFF30080 		.section	.rodata
 800      AFF30080 
 801              		.align	2
 802              	.LC0:
 803 0000 0D0A00   		.ascii	"\015\012\000"
 804              		.section	.text.test_println,"ax",%progbits
 805              		.align	2
 806              		.p2align 4,,15
 807              		.global	test_println
 808              		.thumb
 809              		.thumb_func
 810              		.type	test_println, %function
 811              	test_println:
 812              	.LFB262:
 813              		.loc 7 124 0
 814              		.cfi_startproc
 815              		@ args = 0, pretend = 0, frame = 8
 816              		@ frame_needed = 1, uses_anonymous_args = 0
 817 0000 80B5     		push	{r7, lr}
 818              		.cfi_def_cfa_offset 8
 819              		.cfi_offset 7, -8
 820              		.cfi_offset 14, -4
 821 0002 82B0     		sub	sp, sp, #8
 822              		.cfi_def_cfa_offset 16
 823 0004 00AF     		add	r7, sp, #0
 824              		.cfi_def_cfa_register 7
 825 0006 7860     		str	r0, [r7, #4]
 826              		.loc 7 126 0
ARM GAS  C:\Users\Luis\AppData\Local\Temp\cc6PEIto.s 			page 16


 827 0008 7868     		ldr	r0, [r7, #4]
 828 000a FFF7FEFF 		bl	test_print
 829              		.loc 7 127 0
 830 000e 064B     		ldr	r3, .L41
 831 0010 1B68     		ldr	r3, [r3]
 832 0012 1B68     		ldr	r3, [r3]
 833 0014 1B68     		ldr	r3, [r3]
 834 0016 044A     		ldr	r2, .L41
 835 0018 1268     		ldr	r2, [r2]
 836 001a 1046     		mov	r0, r2
 837 001c 0349     		ldr	r1, .L41+4
 838 001e 0222     		movs	r2, #2
 839 0020 9847     		blx	r3
 840              		.loc 7 128 0
 841 0022 0837     		adds	r7, r7, #8
 842 0024 BD46     		mov	sp, r7
 843              		@ sp needed
 844 0026 80BD     		pop	{r7, pc}
 845              	.L42:
 846              		.align	2
 847              	.L41:
 848 0028 00000000 		.word	chp
 849 002c 00000000 		.word	.LC0
 850              		.cfi_endproc
 851              	.LFE262:
 852              		.size	test_println, .-test_println
 853              		.section	.text.clear_tokens,"ax",%progbits
 854              		.align	2
 855              		.p2align 4,,15
 856              		.thumb
 857              		.thumb_func
 858              		.type	clear_tokens, %function
 859              	clear_tokens:
 860              	.LFB263:
 861              		.loc 7 133 0
 862              		.cfi_startproc
 863              		@ args = 0, pretend = 0, frame = 0
 864              		@ frame_needed = 1, uses_anonymous_args = 0
 865              		@ link register save eliminated.
 866 0000 80B4     		push	{r7}
 867              		.cfi_def_cfa_offset 4
 868              		.cfi_offset 7, -4
 869 0002 00AF     		add	r7, sp, #0
 870              		.cfi_def_cfa_register 7
 871              		.loc 7 135 0
 872 0004 034B     		ldr	r3, .L44
 873 0006 044A     		ldr	r2, .L44+4
 874 0008 1A60     		str	r2, [r3]
 875              		.loc 7 136 0
 876 000a BD46     		mov	sp, r7
 877              		@ sp needed
 878 000c 5DF8047B 		ldr	r7, [sp], #4
 879 0010 7047     		bx	lr
 880              	.L45:
 881 0012 00BF     		.align	2
 882              	.L44:
 883 0014 00000000 		.word	tokp
ARM GAS  C:\Users\Luis\AppData\Local\Temp\cc6PEIto.s 			page 17


 884 0018 00000000 		.word	tokens_buffer
 885              		.cfi_endproc
 886              	.LFE263:
 887              		.size	clear_tokens, .-clear_tokens
 888 001c AFF30080 		.section	.text.print_tokens,"ax",%progbits
 889              		.align	2
 890              		.p2align 4,,15
 891              		.thumb
 892              		.thumb_func
 893              		.type	print_tokens, %function
 894              	print_tokens:
 895              	.LFB264:
 896              		.loc 7 138 0
 897              		.cfi_startproc
 898              		@ args = 0, pretend = 0, frame = 8
 899              		@ frame_needed = 1, uses_anonymous_args = 0
 900 0000 80B5     		push	{r7, lr}
 901              		.cfi_def_cfa_offset 8
 902              		.cfi_offset 7, -8
 903              		.cfi_offset 14, -4
 904 0002 82B0     		sub	sp, sp, #8
 905              		.cfi_def_cfa_offset 16
 906 0004 00AF     		add	r7, sp, #0
 907              		.cfi_def_cfa_register 7
 908              		.loc 7 139 0
 909 0006 0C4B     		ldr	r3, .L49
 910 0008 7B60     		str	r3, [r7, #4]
 911              		.loc 7 141 0
 912 000a 0CE0     		b	.L47
 913              	.L48:
 914              		.loc 7 142 0
 915 000c 0B4B     		ldr	r3, .L49+4
 916 000e 1B68     		ldr	r3, [r3]
 917 0010 1B68     		ldr	r3, [r3]
 918 0012 9A68     		ldr	r2, [r3, #8]
 919 0014 094B     		ldr	r3, .L49+4
 920 0016 1968     		ldr	r1, [r3]
 921 0018 7B68     		ldr	r3, [r7, #4]
 922 001a 581C     		adds	r0, r3, #1
 923 001c 7860     		str	r0, [r7, #4]
 924 001e 1B78     		ldrb	r3, [r3]	@ zero_extendqisi2
 925 0020 0846     		mov	r0, r1
 926 0022 1946     		mov	r1, r3
 927 0024 9047     		blx	r2
 928              	.L47:
 929              		.loc 7 141 0 discriminator 1
 930 0026 064B     		ldr	r3, .L49+8
 931 0028 1B68     		ldr	r3, [r3]
 932 002a 7A68     		ldr	r2, [r7, #4]
 933 002c 9A42     		cmp	r2, r3
 934 002e EDD3     		bcc	.L48
 935              		.loc 7 143 0
 936 0030 0837     		adds	r7, r7, #8
 937 0032 BD46     		mov	sp, r7
 938              		@ sp needed
 939 0034 80BD     		pop	{r7, pc}
 940              	.L50:
ARM GAS  C:\Users\Luis\AppData\Local\Temp\cc6PEIto.s 			page 18


 941 0036 00BF     		.align	2
 942              	.L49:
 943 0038 00000000 		.word	tokens_buffer
 944 003c 00000000 		.word	chp
 945 0040 00000000 		.word	tokp
 946              		.cfi_endproc
 947              	.LFE264:
 948              		.size	print_tokens, .-print_tokens
 949 0044 AFF30080 		.section	.text.test_emit_token,"ax",%progbits
 949      AFF30080 
 949      AFF30080 
 950              		.align	2
 951              		.p2align 4,,15
 952              		.global	test_emit_token
 953              		.thumb
 954              		.thumb_func
 955              		.type	test_emit_token, %function
 956              	test_emit_token:
 957              	.LFB265:
 958              		.loc 7 150 0
 959              		.cfi_startproc
 960              		@ args = 0, pretend = 0, frame = 8
 961              		@ frame_needed = 1, uses_anonymous_args = 0
 962 0000 80B5     		push	{r7, lr}
 963              		.cfi_def_cfa_offset 8
 964              		.cfi_offset 7, -8
 965              		.cfi_offset 14, -4
 966 0002 82B0     		sub	sp, sp, #8
 967              		.cfi_def_cfa_offset 16
 968 0004 00AF     		add	r7, sp, #0
 969              		.cfi_def_cfa_register 7
 970 0006 0346     		mov	r3, r0
 971 0008 FB71     		strb	r3, [r7, #7]
 972              		.loc 7 152 0
 973 000a FFF7FEFF 		bl	chSysLock
 974              		.loc 7 153 0
 975 000e 064B     		ldr	r3, .L52
 976 0010 1B68     		ldr	r3, [r3]
 977 0012 591C     		adds	r1, r3, #1
 978 0014 044A     		ldr	r2, .L52
 979 0016 1160     		str	r1, [r2]
 980 0018 FA79     		ldrb	r2, [r7, #7]
 981 001a 1A70     		strb	r2, [r3]
 982              		.loc 7 154 0
 983 001c FFF7FEFF 		bl	chSysUnlock
 984              		.loc 7 155 0
 985 0020 0837     		adds	r7, r7, #8
 986 0022 BD46     		mov	sp, r7
 987              		@ sp needed
 988 0024 80BD     		pop	{r7, pc}
 989              	.L53:
 990 0026 00BF     		.align	2
 991              	.L52:
 992 0028 00000000 		.word	tokp
 993              		.cfi_endproc
 994              	.LFE265:
 995              		.size	test_emit_token, .-test_emit_token
ARM GAS  C:\Users\Luis\AppData\Local\Temp\cc6PEIto.s 			page 19


 996 002c AFF30080 		.section	.text._test_fail,"ax",%progbits
 997              		.align	2
 998              		.p2align 4,,15
 999              		.global	_test_fail
 1000              		.thumb
 1001              		.thumb_func
 1002              		.type	_test_fail, %function
 1003              	_test_fail:
 1004              	.LFB266:
 1005              		.loc 7 160 0
 1006              		.cfi_startproc
 1007              		@ args = 0, pretend = 0, frame = 8
 1008              		@ frame_needed = 1, uses_anonymous_args = 0
 1009              		@ link register save eliminated.
 1010 0000 80B4     		push	{r7}
 1011              		.cfi_def_cfa_offset 4
 1012              		.cfi_offset 7, -4
 1013 0002 83B0     		sub	sp, sp, #12
 1014              		.cfi_def_cfa_offset 16
 1015 0004 00AF     		add	r7, sp, #0
 1016              		.cfi_def_cfa_register 7
 1017 0006 7860     		str	r0, [r7, #4]
 1018              		.loc 7 162 0
 1019 0008 074B     		ldr	r3, .L56
 1020 000a 0122     		movs	r2, #1
 1021 000c 1A70     		strb	r2, [r3]
 1022              		.loc 7 163 0
 1023 000e 074B     		ldr	r3, .L56+4
 1024 0010 0122     		movs	r2, #1
 1025 0012 1A70     		strb	r2, [r3]
 1026              		.loc 7 164 0
 1027 0014 064B     		ldr	r3, .L56+8
 1028 0016 7A68     		ldr	r2, [r7, #4]
 1029 0018 1A60     		str	r2, [r3]
 1030              		.loc 7 165 0
 1031 001a 0123     		movs	r3, #1
 1032              		.loc 7 166 0
 1033 001c 1846     		mov	r0, r3
 1034 001e 0C37     		adds	r7, r7, #12
 1035 0020 BD46     		mov	sp, r7
 1036              		@ sp needed
 1037 0022 5DF8047B 		ldr	r7, [sp], #4
 1038 0026 7047     		bx	lr
 1039              	.L57:
 1040              		.align	2
 1041              	.L56:
 1042 0028 00000000 		.word	test_global_fail
 1043 002c 00000000 		.word	local_fail
 1044 0030 00000000 		.word	failpoint
 1045              		.cfi_endproc
 1046              	.LFE266:
 1047              		.size	_test_fail, .-_test_fail
 1048 0034 AFF30080 		.section	.text._test_assert,"ax",%progbits
 1048      AFF30080 
 1048      AFF30080 
 1049              		.align	2
 1050              		.p2align 4,,15
ARM GAS  C:\Users\Luis\AppData\Local\Temp\cc6PEIto.s 			page 20


 1051              		.global	_test_assert
 1052              		.thumb
 1053              		.thumb_func
 1054              		.type	_test_assert, %function
 1055              	_test_assert:
 1056              	.LFB267:
 1057              		.loc 7 168 0
 1058              		.cfi_startproc
 1059              		@ args = 0, pretend = 0, frame = 8
 1060              		@ frame_needed = 1, uses_anonymous_args = 0
 1061 0000 80B5     		push	{r7, lr}
 1062              		.cfi_def_cfa_offset 8
 1063              		.cfi_offset 7, -8
 1064              		.cfi_offset 14, -4
 1065 0002 82B0     		sub	sp, sp, #8
 1066              		.cfi_def_cfa_offset 16
 1067 0004 00AF     		add	r7, sp, #0
 1068              		.cfi_def_cfa_register 7
 1069 0006 7860     		str	r0, [r7, #4]
 1070 0008 0B46     		mov	r3, r1
 1071 000a FB70     		strb	r3, [r7, #3]
 1072              		.loc 7 170 0
 1073 000c FB78     		ldrb	r3, [r7, #3]
 1074 000e 83F00103 		eor	r3, r3, #1
 1075 0012 DBB2     		uxtb	r3, r3
 1076 0014 002B     		cmp	r3, #0
 1077 0016 04D0     		beq	.L59
 1078              		.loc 7 171 0
 1079 0018 7868     		ldr	r0, [r7, #4]
 1080 001a FFF7FEFF 		bl	_test_fail
 1081 001e 0346     		mov	r3, r0
 1082 0020 00E0     		b	.L60
 1083              	.L59:
 1084              		.loc 7 172 0
 1085 0022 0023     		movs	r3, #0
 1086              	.L60:
 1087              		.loc 7 173 0
 1088 0024 1846     		mov	r0, r3
 1089 0026 0837     		adds	r7, r7, #8
 1090 0028 BD46     		mov	sp, r7
 1091              		@ sp needed
 1092 002a 80BD     		pop	{r7, pc}
 1093              		.cfi_endproc
 1094              	.LFE267:
 1095              		.size	_test_assert, .-_test_assert
 1096 002c AFF30080 		.section	.text._test_assert_sequence,"ax",%progbits
 1097              		.align	2
 1098              		.p2align 4,,15
 1099              		.global	_test_assert_sequence
 1100              		.thumb
 1101              		.thumb_func
 1102              		.type	_test_assert_sequence, %function
 1103              	_test_assert_sequence:
 1104              	.LFB268:
 1105              		.loc 7 175 0
 1106              		.cfi_startproc
 1107              		@ args = 0, pretend = 0, frame = 16
ARM GAS  C:\Users\Luis\AppData\Local\Temp\cc6PEIto.s 			page 21


 1108              		@ frame_needed = 1, uses_anonymous_args = 0
 1109 0000 80B5     		push	{r7, lr}
 1110              		.cfi_def_cfa_offset 8
 1111              		.cfi_offset 7, -8
 1112              		.cfi_offset 14, -4
 1113 0002 84B0     		sub	sp, sp, #16
 1114              		.cfi_def_cfa_offset 24
 1115 0004 00AF     		add	r7, sp, #0
 1116              		.cfi_def_cfa_register 7
 1117 0006 7860     		str	r0, [r7, #4]
 1118 0008 3960     		str	r1, [r7]
 1119              		.loc 7 176 0
 1120 000a 134B     		ldr	r3, .L66
 1121 000c FB60     		str	r3, [r7, #12]
 1122              		.loc 7 177 0
 1123 000e 0EE0     		b	.L62
 1124              	.L64:
 1125              		.loc 7 178 0
 1126 0010 FB68     		ldr	r3, [r7, #12]
 1127 0012 5A1C     		adds	r2, r3, #1
 1128 0014 FA60     		str	r2, [r7, #12]
 1129 0016 1A78     		ldrb	r2, [r3]	@ zero_extendqisi2
 1130 0018 3B68     		ldr	r3, [r7]
 1131 001a 591C     		adds	r1, r3, #1
 1132 001c 3960     		str	r1, [r7]
 1133 001e 1B78     		ldrb	r3, [r3]	@ zero_extendqisi2
 1134 0020 9A42     		cmp	r2, r3
 1135 0022 04D0     		beq	.L62
 1136              		.loc 7 179 0
 1137 0024 7868     		ldr	r0, [r7, #4]
 1138 0026 FFF7FEFF 		bl	_test_fail
 1139 002a 0346     		mov	r3, r0
 1140 002c 10E0     		b	.L63
 1141              	.L62:
 1142              		.loc 7 177 0 discriminator 1
 1143 002e 0B4B     		ldr	r3, .L66+4
 1144 0030 1B68     		ldr	r3, [r3]
 1145 0032 FA68     		ldr	r2, [r7, #12]
 1146 0034 9A42     		cmp	r2, r3
 1147 0036 EBD3     		bcc	.L64
 1148              		.loc 7 181 0
 1149 0038 3B68     		ldr	r3, [r7]
 1150 003a 1B78     		ldrb	r3, [r3]	@ zero_extendqisi2
 1151 003c 002B     		cmp	r3, #0
 1152 003e 04D0     		beq	.L65
 1153              		.loc 7 182 0
 1154 0040 7868     		ldr	r0, [r7, #4]
 1155 0042 FFF7FEFF 		bl	_test_fail
 1156 0046 0346     		mov	r3, r0
 1157 0048 02E0     		b	.L63
 1158              	.L65:
 1159              		.loc 7 183 0
 1160 004a FFF7FEFF 		bl	clear_tokens
 1161              		.loc 7 184 0
 1162 004e 0023     		movs	r3, #0
 1163              	.L63:
 1164              		.loc 7 185 0
ARM GAS  C:\Users\Luis\AppData\Local\Temp\cc6PEIto.s 			page 22


 1165 0050 1846     		mov	r0, r3
 1166 0052 1037     		adds	r7, r7, #16
 1167 0054 BD46     		mov	sp, r7
 1168              		@ sp needed
 1169 0056 80BD     		pop	{r7, pc}
 1170              	.L67:
 1171              		.align	2
 1172              	.L66:
 1173 0058 00000000 		.word	tokens_buffer
 1174 005c 00000000 		.word	tokp
 1175              		.cfi_endproc
 1176              	.LFE268:
 1177              		.size	_test_assert_sequence, .-_test_assert_sequence
 1178              		.section	.text._test_assert_time_window,"ax",%progbits
 1179              		.align	2
 1180              		.p2align 4,,15
 1181              		.global	_test_assert_time_window
 1182              		.thumb
 1183              		.thumb_func
 1184              		.type	_test_assert_time_window, %function
 1185              	_test_assert_time_window:
 1186              	.LFB269:
 1187              		.loc 7 187 0
 1188              		.cfi_startproc
 1189              		@ args = 0, pretend = 0, frame = 16
 1190              		@ frame_needed = 1, uses_anonymous_args = 0
 1191 0000 80B5     		push	{r7, lr}
 1192              		.cfi_def_cfa_offset 8
 1193              		.cfi_offset 7, -8
 1194              		.cfi_offset 14, -4
 1195 0002 84B0     		sub	sp, sp, #16
 1196              		.cfi_def_cfa_offset 24
 1197 0004 00AF     		add	r7, sp, #0
 1198              		.cfi_def_cfa_register 7
 1199 0006 F860     		str	r0, [r7, #12]
 1200 0008 B960     		str	r1, [r7, #8]
 1201 000a 7A60     		str	r2, [r7, #4]
 1202              		.loc 7 189 0
 1203 000c B868     		ldr	r0, [r7, #8]
 1204 000e 7968     		ldr	r1, [r7, #4]
 1205 0010 FFF7FEFF 		bl	chVTIsSystemTimeWithin
 1206 0014 0346     		mov	r3, r0
 1207 0016 F868     		ldr	r0, [r7, #12]
 1208 0018 1946     		mov	r1, r3
 1209 001a FFF7FEFF 		bl	_test_assert
 1210 001e 0346     		mov	r3, r0
 1211              		.loc 7 190 0
 1212 0020 1846     		mov	r0, r3
 1213 0022 1037     		adds	r7, r7, #16
 1214 0024 BD46     		mov	sp, r7
 1215              		@ sp needed
 1216 0026 80BD     		pop	{r7, pc}
 1217              		.cfi_endproc
 1218              	.LFE269:
 1219              		.size	_test_assert_time_window, .-_test_assert_time_window
 1220 0028 AFF30080 		.section	.text.test_terminate_threads,"ax",%progbits
 1220      AFF30080 
ARM GAS  C:\Users\Luis\AppData\Local\Temp\cc6PEIto.s 			page 23


 1221              		.align	2
 1222              		.p2align 4,,15
 1223              		.global	test_terminate_threads
 1224              		.thumb
 1225              		.thumb_func
 1226              		.type	test_terminate_threads, %function
 1227              	test_terminate_threads:
 1228              	.LFB270:
 1229              		.loc 7 199 0
 1230              		.cfi_startproc
 1231              		@ args = 0, pretend = 0, frame = 8
 1232              		@ frame_needed = 1, uses_anonymous_args = 0
 1233 0000 80B5     		push	{r7, lr}
 1234              		.cfi_def_cfa_offset 8
 1235              		.cfi_offset 7, -8
 1236              		.cfi_offset 14, -4
 1237 0002 82B0     		sub	sp, sp, #8
 1238              		.cfi_def_cfa_offset 16
 1239 0004 00AF     		add	r7, sp, #0
 1240              		.cfi_def_cfa_register 7
 1241              		.loc 7 202 0
 1242 0006 0023     		movs	r3, #0
 1243 0008 7B60     		str	r3, [r7, #4]
 1244 000a 0FE0     		b	.L71
 1245              	.L73:
 1246              		.loc 7 203 0
 1247 000c 0A4B     		ldr	r3, .L74
 1248 000e 7A68     		ldr	r2, [r7, #4]
 1249 0010 53F82230 		ldr	r3, [r3, r2, lsl #2]
 1250 0014 002B     		cmp	r3, #0
 1251 0016 06D0     		beq	.L72
 1252              		.loc 7 204 0
 1253 0018 074B     		ldr	r3, .L74
 1254 001a 7A68     		ldr	r2, [r7, #4]
 1255 001c 53F82230 		ldr	r3, [r3, r2, lsl #2]
 1256 0020 1846     		mov	r0, r3
 1257 0022 FFF7FEFF 		bl	chThdTerminate
 1258              	.L72:
 1259              		.loc 7 202 0
 1260 0026 7B68     		ldr	r3, [r7, #4]
 1261 0028 0133     		adds	r3, r3, #1
 1262 002a 7B60     		str	r3, [r7, #4]
 1263              	.L71:
 1264              		.loc 7 202 0 is_stmt 0 discriminator 1
 1265 002c 7B68     		ldr	r3, [r7, #4]
 1266 002e 042B     		cmp	r3, #4
 1267 0030 ECDD     		ble	.L73
 1268              		.loc 7 205 0 is_stmt 1
 1269 0032 0837     		adds	r7, r7, #8
 1270 0034 BD46     		mov	sp, r7
 1271              		@ sp needed
 1272 0036 80BD     		pop	{r7, pc}
 1273              	.L75:
 1274              		.align	2
 1275              	.L74:
 1276 0038 00000000 		.word	threads
 1277              		.cfi_endproc
ARM GAS  C:\Users\Luis\AppData\Local\Temp\cc6PEIto.s 			page 24


 1278              	.LFE270:
 1279              		.size	test_terminate_threads, .-test_terminate_threads
 1280 003c AFF30080 		.section	.text.test_wait_threads,"ax",%progbits
 1281              		.align	2
 1282              		.p2align 4,,15
 1283              		.global	test_wait_threads
 1284              		.thumb
 1285              		.thumb_func
 1286              		.type	test_wait_threads, %function
 1287              	test_wait_threads:
 1288              	.LFB271:
 1289              		.loc 7 210 0
 1290              		.cfi_startproc
 1291              		@ args = 0, pretend = 0, frame = 8
 1292              		@ frame_needed = 1, uses_anonymous_args = 0
 1293 0000 80B5     		push	{r7, lr}
 1294              		.cfi_def_cfa_offset 8
 1295              		.cfi_offset 7, -8
 1296              		.cfi_offset 14, -4
 1297 0002 82B0     		sub	sp, sp, #8
 1298              		.cfi_def_cfa_offset 16
 1299 0004 00AF     		add	r7, sp, #0
 1300              		.cfi_def_cfa_register 7
 1301              		.loc 7 213 0
 1302 0006 0023     		movs	r3, #0
 1303 0008 7B60     		str	r3, [r7, #4]
 1304 000a 14E0     		b	.L77
 1305              	.L79:
 1306              		.loc 7 214 0
 1307 000c 0D4B     		ldr	r3, .L80
 1308 000e 7A68     		ldr	r2, [r7, #4]
 1309 0010 53F82230 		ldr	r3, [r3, r2, lsl #2]
 1310 0014 002B     		cmp	r3, #0
 1311 0016 0BD0     		beq	.L78
 1312              		.loc 7 215 0
 1313 0018 0A4B     		ldr	r3, .L80
 1314 001a 7A68     		ldr	r2, [r7, #4]
 1315 001c 53F82230 		ldr	r3, [r3, r2, lsl #2]
 1316 0020 1846     		mov	r0, r3
 1317 0022 FFF7FEFF 		bl	chThdWait
 1318              		.loc 7 216 0
 1319 0026 074B     		ldr	r3, .L80
 1320 0028 7A68     		ldr	r2, [r7, #4]
 1321 002a 0021     		movs	r1, #0
 1322 002c 43F82210 		str	r1, [r3, r2, lsl #2]
 1323              	.L78:
 1324              		.loc 7 213 0
 1325 0030 7B68     		ldr	r3, [r7, #4]
 1326 0032 0133     		adds	r3, r3, #1
 1327 0034 7B60     		str	r3, [r7, #4]
 1328              	.L77:
 1329              		.loc 7 213 0 is_stmt 0 discriminator 1
 1330 0036 7B68     		ldr	r3, [r7, #4]
 1331 0038 042B     		cmp	r3, #4
 1332 003a E7DD     		ble	.L79
 1333              		.loc 7 218 0 is_stmt 1
 1334 003c 0837     		adds	r7, r7, #8
ARM GAS  C:\Users\Luis\AppData\Local\Temp\cc6PEIto.s 			page 25


 1335 003e BD46     		mov	sp, r7
 1336              		@ sp needed
 1337 0040 80BD     		pop	{r7, pc}
 1338              	.L81:
 1339 0042 00BF     		.align	2
 1340              	.L80:
 1341 0044 00000000 		.word	threads
 1342              		.cfi_endproc
 1343              	.LFE271:
 1344              		.size	test_wait_threads, .-test_wait_threads
 1345 0048 AFF30080 		.section	.text.test_wait_tick,"ax",%progbits
 1345      AFF30080 
 1346              		.align	2
 1347              		.p2align 4,,15
 1348              		.global	test_wait_tick
 1349              		.thumb
 1350              		.thumb_func
 1351              		.type	test_wait_tick, %function
 1352              	test_wait_tick:
 1353              	.LFB272:
 1354              		.loc 7 248 0
 1355              		.cfi_startproc
 1356              		@ args = 0, pretend = 0, frame = 0
 1357              		@ frame_needed = 1, uses_anonymous_args = 0
 1358 0000 80B5     		push	{r7, lr}
 1359              		.cfi_def_cfa_offset 8
 1360              		.cfi_offset 7, -8
 1361              		.cfi_offset 14, -4
 1362 0002 00AF     		add	r7, sp, #0
 1363              		.cfi_def_cfa_register 7
 1364              		.loc 7 250 0
 1365 0004 0120     		movs	r0, #1
 1366 0006 FFF7FEFF 		bl	chThdSleep
 1367              		.loc 7 251 0
 1368 000a FFF7FEFF 		bl	chVTGetSystemTime
 1369 000e 0346     		mov	r3, r0
 1370              		.loc 7 252 0
 1371 0010 1846     		mov	r0, r3
 1372 0012 80BD     		pop	{r7, pc}
 1373              		.cfi_endproc
 1374              	.LFE272:
 1375              		.size	test_wait_tick, .-test_wait_tick
 1376              		.global	test_timer_done
 1377 0014 AFF30080 		.section	.bss.test_timer_done,"aw",%nobits
 1377      AFF30080 
 1377      AFF30080 
 1378              		.type	test_timer_done, %object
 1379              		.size	test_timer_done, 1
 1380              	test_timer_done:
 1381 0000 00       		.space	1
 1382              		.section	.bss.vt,"aw",%nobits
 1383              		.align	2
 1384              		.type	vt, %object
 1385              		.size	vt, 20
 1386              	vt:
 1387 0000 00000000 		.space	20
 1387      00000000 
ARM GAS  C:\Users\Luis\AppData\Local\Temp\cc6PEIto.s 			page 26


 1387      00000000 
 1387      00000000 
 1387      00000000 
 1388              		.section	.text.tmr,"ax",%progbits
 1389              		.align	2
 1390              		.p2align 4,,15
 1391              		.thumb
 1392              		.thumb_func
 1393              		.type	tmr, %function
 1394              	tmr:
 1395              	.LFB273:
 1396              		.loc 7 264 0
 1397              		.cfi_startproc
 1398              		@ args = 0, pretend = 0, frame = 8
 1399              		@ frame_needed = 1, uses_anonymous_args = 0
 1400              		@ link register save eliminated.
 1401 0000 80B4     		push	{r7}
 1402              		.cfi_def_cfa_offset 4
 1403              		.cfi_offset 7, -4
 1404 0002 83B0     		sub	sp, sp, #12
 1405              		.cfi_def_cfa_offset 16
 1406 0004 00AF     		add	r7, sp, #0
 1407              		.cfi_def_cfa_register 7
 1408 0006 7860     		str	r0, [r7, #4]
 1409              		.loc 7 267 0
 1410 0008 034B     		ldr	r3, .L85
 1411 000a 0122     		movs	r2, #1
 1412 000c 1A70     		strb	r2, [r3]
 1413              		.loc 7 268 0
 1414 000e 0C37     		adds	r7, r7, #12
 1415 0010 BD46     		mov	sp, r7
 1416              		@ sp needed
 1417 0012 5DF8047B 		ldr	r7, [sp], #4
 1418 0016 7047     		bx	lr
 1419              	.L86:
 1420              		.align	2
 1421              	.L85:
 1422 0018 00000000 		.word	test_timer_done
 1423              		.cfi_endproc
 1424              	.LFE273:
 1425              		.size	tmr, .-tmr
 1426 001c AFF30080 		.section	.text.test_start_timer,"ax",%progbits
 1427              		.align	2
 1428              		.p2align 4,,15
 1429              		.global	test_start_timer
 1430              		.thumb
 1431              		.thumb_func
 1432              		.type	test_start_timer, %function
 1433              	test_start_timer:
 1434              	.LFB274:
 1435              		.loc 7 275 0
 1436              		.cfi_startproc
 1437              		@ args = 0, pretend = 0, frame = 16
 1438              		@ frame_needed = 1, uses_anonymous_args = 0
 1439 0000 80B5     		push	{r7, lr}
 1440              		.cfi_def_cfa_offset 8
 1441              		.cfi_offset 7, -8
ARM GAS  C:\Users\Luis\AppData\Local\Temp\cc6PEIto.s 			page 27


 1442              		.cfi_offset 14, -4
 1443 0002 84B0     		sub	sp, sp, #16
 1444              		.cfi_def_cfa_offset 24
 1445 0004 00AF     		add	r7, sp, #0
 1446              		.cfi_def_cfa_register 7
 1447 0006 7860     		str	r0, [r7, #4]
 1448              		.loc 7 277 0
 1449 0008 7B68     		ldr	r3, [r7, #4]
 1450 000a 42F21072 		movw	r2, #10000
 1451 000e 02FB03F3 		mul	r3, r2, r3
 1452 0012 03F2E732 		addw	r2, r3, #999
 1453 0016 084B     		ldr	r3, .L88
 1454 0018 A3FB0213 		umull	r1, r3, r3, r2
 1455 001c 9B09     		lsrs	r3, r3, #6
 1456 001e FB60     		str	r3, [r7, #12]
 1457              		.loc 7 278 0
 1458 0020 064B     		ldr	r3, .L88+4
 1459 0022 0022     		movs	r2, #0
 1460 0024 1A70     		strb	r2, [r3]
 1461              		.loc 7 279 0
 1462 0026 0648     		ldr	r0, .L88+8
 1463 0028 F968     		ldr	r1, [r7, #12]
 1464 002a 064A     		ldr	r2, .L88+12
 1465 002c 0023     		movs	r3, #0
 1466 002e FFF7FEFF 		bl	chVTSet
 1467              		.loc 7 280 0
 1468 0032 1037     		adds	r7, r7, #16
 1469 0034 BD46     		mov	sp, r7
 1470              		@ sp needed
 1471 0036 80BD     		pop	{r7, pc}
 1472              	.L89:
 1473              		.align	2
 1474              	.L88:
 1475 0038 D34D6210 		.word	274877907
 1476 003c 00000000 		.word	test_timer_done
 1477 0040 00000000 		.word	vt
 1478 0044 00000000 		.word	tmr
 1479              		.cfi_endproc
 1480              	.LFE274:
 1481              		.size	test_start_timer, .-test_start_timer
 1482 0048 AFF30080 		.section	.text.execute_test,"ax",%progbits
 1482      AFF30080 
 1483              		.align	2
 1484              		.p2align 4,,15
 1485              		.thumb
 1486              		.thumb_func
 1487              		.type	execute_test, %function
 1488              	execute_test:
 1489              	.LFB275:
 1490              		.loc 7 285 0
 1491              		.cfi_startproc
 1492              		@ args = 0, pretend = 0, frame = 16
 1493              		@ frame_needed = 1, uses_anonymous_args = 0
 1494 0000 80B5     		push	{r7, lr}
 1495              		.cfi_def_cfa_offset 8
 1496              		.cfi_offset 7, -8
 1497              		.cfi_offset 14, -4
ARM GAS  C:\Users\Luis\AppData\Local\Temp\cc6PEIto.s 			page 28


 1498 0002 84B0     		sub	sp, sp, #16
 1499              		.cfi_def_cfa_offset 24
 1500 0004 00AF     		add	r7, sp, #0
 1501              		.cfi_def_cfa_register 7
 1502 0006 7860     		str	r0, [r7, #4]
 1503              		.loc 7 289 0
 1504 0008 FFF7FEFF 		bl	clear_tokens
 1505              		.loc 7 290 0
 1506 000c 134B     		ldr	r3, .L95
 1507 000e 0022     		movs	r2, #0
 1508 0010 1A70     		strb	r2, [r3]
 1509              		.loc 7 291 0
 1510 0012 0023     		movs	r3, #0
 1511 0014 FB60     		str	r3, [r7, #12]
 1512 0016 07E0     		b	.L91
 1513              	.L92:
 1514              		.loc 7 292 0 discriminator 2
 1515 0018 114B     		ldr	r3, .L95+4
 1516 001a FA68     		ldr	r2, [r7, #12]
 1517 001c 0021     		movs	r1, #0
 1518 001e 43F82210 		str	r1, [r3, r2, lsl #2]
 1519              		.loc 7 291 0 discriminator 2
 1520 0022 FB68     		ldr	r3, [r7, #12]
 1521 0024 0133     		adds	r3, r3, #1
 1522 0026 FB60     		str	r3, [r7, #12]
 1523              	.L91:
 1524              		.loc 7 291 0 is_stmt 0 discriminator 1
 1525 0028 FB68     		ldr	r3, [r7, #12]
 1526 002a 042B     		cmp	r3, #4
 1527 002c F4DD     		ble	.L92
 1528              		.loc 7 294 0 is_stmt 1
 1529 002e 7B68     		ldr	r3, [r7, #4]
 1530 0030 5B68     		ldr	r3, [r3, #4]
 1531 0032 002B     		cmp	r3, #0
 1532 0034 02D0     		beq	.L93
 1533              		.loc 7 295 0
 1534 0036 7B68     		ldr	r3, [r7, #4]
 1535 0038 5B68     		ldr	r3, [r3, #4]
 1536 003a 9847     		blx	r3
 1537              	.L93:
 1538              		.loc 7 296 0
 1539 003c 7B68     		ldr	r3, [r7, #4]
 1540 003e DB68     		ldr	r3, [r3, #12]
 1541 0040 9847     		blx	r3
 1542              		.loc 7 297 0
 1543 0042 7B68     		ldr	r3, [r7, #4]
 1544 0044 9B68     		ldr	r3, [r3, #8]
 1545 0046 002B     		cmp	r3, #0
 1546 0048 02D0     		beq	.L94
 1547              		.loc 7 298 0
 1548 004a 7B68     		ldr	r3, [r7, #4]
 1549 004c 9B68     		ldr	r3, [r3, #8]
 1550 004e 9847     		blx	r3
 1551              	.L94:
 1552              		.loc 7 300 0
 1553 0050 FFF7FEFF 		bl	test_wait_threads
 1554              		.loc 7 301 0
ARM GAS  C:\Users\Luis\AppData\Local\Temp\cc6PEIto.s 			page 29


 1555 0054 1037     		adds	r7, r7, #16
 1556 0056 BD46     		mov	sp, r7
 1557              		@ sp needed
 1558 0058 80BD     		pop	{r7, pc}
 1559              	.L96:
 1560 005a 00BF     		.align	2
 1561              	.L95:
 1562 005c 00000000 		.word	local_fail
 1563 0060 00000000 		.word	threads
 1564              		.cfi_endproc
 1565              	.LFE275:
 1566              		.size	execute_test, .-execute_test
 1567 0064 AFF30080 		.section	.text.print_line,"ax",%progbits
 1567      AFF30080 
 1567      AFF30080 
 1568              		.align	2
 1569              		.p2align 4,,15
 1570              		.thumb
 1571              		.thumb_func
 1572              		.type	print_line, %function
 1573              	print_line:
 1574              	.LFB276:
 1575              		.loc 7 303 0
 1576              		.cfi_startproc
 1577              		@ args = 0, pretend = 0, frame = 8
 1578              		@ frame_needed = 1, uses_anonymous_args = 0
 1579 0000 80B5     		push	{r7, lr}
 1580              		.cfi_def_cfa_offset 8
 1581              		.cfi_offset 7, -8
 1582              		.cfi_offset 14, -4
 1583 0002 82B0     		sub	sp, sp, #8
 1584              		.cfi_def_cfa_offset 16
 1585 0004 00AF     		add	r7, sp, #0
 1586              		.cfi_def_cfa_register 7
 1587              		.loc 7 306 0
 1588 0006 0023     		movs	r3, #0
 1589 0008 7B60     		str	r3, [r7, #4]
 1590 000a 0BE0     		b	.L98
 1591              	.L99:
 1592              		.loc 7 307 0 discriminator 2
 1593 000c 0D4B     		ldr	r3, .L100
 1594 000e 1B68     		ldr	r3, [r3]
 1595 0010 1B68     		ldr	r3, [r3]
 1596 0012 9B68     		ldr	r3, [r3, #8]
 1597 0014 0B4A     		ldr	r2, .L100
 1598 0016 1268     		ldr	r2, [r2]
 1599 0018 1046     		mov	r0, r2
 1600 001a 2D21     		movs	r1, #45
 1601 001c 9847     		blx	r3
 1602              		.loc 7 306 0 discriminator 2
 1603 001e 7B68     		ldr	r3, [r7, #4]
 1604 0020 0133     		adds	r3, r3, #1
 1605 0022 7B60     		str	r3, [r7, #4]
 1606              	.L98:
 1607              		.loc 7 306 0 is_stmt 0 discriminator 1
 1608 0024 7B68     		ldr	r3, [r7, #4]
 1609 0026 4B2B     		cmp	r3, #75
ARM GAS  C:\Users\Luis\AppData\Local\Temp\cc6PEIto.s 			page 30


 1610 0028 F0D9     		bls	.L99
 1611              		.loc 7 308 0 is_stmt 1
 1612 002a 064B     		ldr	r3, .L100
 1613 002c 1B68     		ldr	r3, [r3]
 1614 002e 1B68     		ldr	r3, [r3]
 1615 0030 1B68     		ldr	r3, [r3]
 1616 0032 044A     		ldr	r2, .L100
 1617 0034 1268     		ldr	r2, [r2]
 1618 0036 1046     		mov	r0, r2
 1619 0038 0349     		ldr	r1, .L100+4
 1620 003a 0222     		movs	r2, #2
 1621 003c 9847     		blx	r3
 1622              		.loc 7 309 0
 1623 003e 0837     		adds	r7, r7, #8
 1624 0040 BD46     		mov	sp, r7
 1625              		@ sp needed
 1626 0042 80BD     		pop	{r7, pc}
 1627              	.L101:
 1628              		.align	2
 1629              	.L100:
 1630 0044 00000000 		.word	chp
 1631 0048 00000000 		.word	.LC0
 1632              		.cfi_endproc
 1633              	.LFE276:
 1634              		.size	print_line, .-print_line
 1635 004c AFF30080 		.section	.rodata
 1636 0003 00       		.align	2
 1637              	.LC1:
 1638 0004 00       		.ascii	"\000"
 1639 0005 000000   		.align	2
 1640              	.LC2:
 1641 0008 2A2A2A20 		.ascii	"*** ChibiOS/RT test suite\000"
 1641      43686962 
 1641      694F532F 
 1641      52542074 
 1641      65737420 
 1642 0022 0000     		.align	2
 1643              	.LC3:
 1644 0024 2A2A2A00 		.ascii	"***\000"
 1645              		.align	2
 1646              	.LC4:
 1647 0028 2A2A2A20 		.ascii	"*** Kernel:       \000"
 1647      4B65726E 
 1647      656C3A20 
 1647      20202020 
 1647      202000
 1648 003b 00       		.align	2
 1649              	.LC5:
 1650 003c 332E302E 		.ascii	"3.0.2\000"
 1650      3200
 1651 0042 0000     		.align	2
 1652              	.LC6:
 1653 0044 2A2A2A20 		.ascii	"*** Compiled:     \000"
 1653      436F6D70 
 1653      696C6564 
 1653      3A202020 
 1653      202000
ARM GAS  C:\Users\Luis\AppData\Local\Temp\cc6PEIto.s 			page 31


 1654 0057 00       		.align	2
 1655              	.LC7:
 1656 0058 4D617920 		.ascii	"May 16 2016 - 19:34:44\000"
 1656      31362032 
 1656      30313620 
 1656      2D203139 
 1656      3A33343A 
 1657 006f 00       		.align	2
 1658              	.LC8:
 1659 0070 2A2A2A20 		.ascii	"*** Compiler:     \000"
 1659      436F6D70 
 1659      696C6572 
 1659      3A202020 
 1659      202000
 1660 0083 00       		.align	2
 1661              	.LC9:
 1662 0084 47434320 		.ascii	"GCC 4.8.3 20131129 (release) [ARM/embedded-4_8-bran"
 1662      342E382E 
 1662      33203230 
 1662      31333131 
 1662      32392028 
 1663 00b7 63682072 		.ascii	"ch revision 205641]\000"
 1663      65766973 
 1663      696F6E20 
 1663      32303536 
 1663      34315D00 
 1664 00cb 00       		.align	2
 1665              	.LC10:
 1666 00cc 2A2A2A20 		.ascii	"*** Architecture: \000"
 1666      41726368 
 1666      69746563 
 1666      74757265 
 1666      3A2000
 1667 00df 00       		.align	2
 1668              	.LC11:
 1669 00e0 41524D76 		.ascii	"ARMv7-ME\000"
 1669      372D4D45 
 1669      00
 1670 00e9 000000   		.align	2
 1671              	.LC12:
 1672 00ec 2A2A2A20 		.ascii	"*** Core Variant: \000"
 1672      436F7265 
 1672      20566172 
 1672      69616E74 
 1672      3A2000
 1673 00ff 00       		.align	2
 1674              	.LC13:
 1675 0100 436F7274 		.ascii	"Cortex-M4\000"
 1675      65782D4D 
 1675      3400
 1676 010a 0000     		.align	2
 1677              	.LC14:
 1678 010c 2A2A2A20 		.ascii	"*** Port Info:    \000"
 1678      506F7274 
 1678      20496E66 
 1678      6F3A2020 
 1678      202000
ARM GAS  C:\Users\Luis\AppData\Local\Temp\cc6PEIto.s 			page 32


 1679 011f 00       		.align	2
 1680              	.LC15:
 1681 0120 41647661 		.ascii	"Advanced kernel mode\000"
 1681      6E636564 
 1681      206B6572 
 1681      6E656C20 
 1681      6D6F6465 
 1682 0135 000000   		.align	2
 1683              	.LC16:
 1684 0138 2A2A2A20 		.ascii	"*** Platform:     \000"
 1684      506C6174 
 1684      666F726D 
 1684      3A202020 
 1684      202000
 1685 014b 00       		.align	2
 1686              	.LC17:
 1687 014c 53544D33 		.ascii	"STM32F407 High Performance with DSP and FPU\000"
 1687      32463430 
 1687      37204869 
 1687      67682050 
 1687      6572666F 
 1688              		.align	2
 1689              	.LC18:
 1690 0178 2A2A2A20 		.ascii	"*** Test Board:   \000"
 1690      54657374 
 1690      20426F61 
 1690      72643A20 
 1690      202000
 1691 018b 00       		.align	2
 1692              	.LC19:
 1693 018c 456D7465 		.ascii	"Emtech Lanin CM4 V1\000"
 1693      6368204C 
 1693      616E696E 
 1693      20434D34 
 1693      20563100 
 1694              		.align	2
 1695              	.LC20:
 1696 01a0 2D2D2D20 		.ascii	"--- Test Case \000"
 1696      54657374 
 1696      20436173 
 1696      652000
 1697 01af 00       		.align	2
 1698              	.LC21:
 1699 01b0 2E00     		.ascii	".\000"
 1700 01b2 0000     		.align	2
 1701              	.LC22:
 1702 01b4 202800   		.ascii	" (\000"
 1703 01b7 00       		.align	2
 1704              	.LC23:
 1705 01b8 2900     		.ascii	")\000"
 1706 01ba 0000     		.align	2
 1707              	.LC24:
 1708 01bc 2D2D2D20 		.ascii	"--- Result: FAILURE (#\000"
 1708      52657375 
 1708      6C743A20 
 1708      4641494C 
 1708      55524520 
ARM GAS  C:\Users\Luis\AppData\Local\Temp\cc6PEIto.s 			page 33


 1709 01d3 00       		.align	2
 1710              	.LC25:
 1711 01d4 205B00   		.ascii	" [\000"
 1712 01d7 00       		.align	2
 1713              	.LC26:
 1714 01d8 5D2900   		.ascii	"])\000"
 1715 01db 00       		.align	2
 1716              	.LC27:
 1717 01dc 2D2D2D20 		.ascii	"--- Result: SUCCESS\000"
 1717      52657375 
 1717      6C743A20 
 1717      53554343 
 1717      45535300 
 1718              		.align	2
 1719              	.LC28:
 1720 01f0 46696E61 		.ascii	"Final result: \000"
 1720      6C207265 
 1720      73756C74 
 1720      3A2000
 1721 01ff 00       		.align	2
 1722              	.LC29:
 1723 0200 4641494C 		.ascii	"FAILURE\000"
 1723      55524500 
 1724              		.align	2
 1725              	.LC30:
 1726 0208 53554343 		.ascii	"SUCCESS\000"
 1726      45535300 
 1727              		.section	.text.TestThread,"ax",%progbits
 1728              		.align	2
 1729              		.p2align 4,,15
 1730              		.global	TestThread
 1731              		.thumb
 1732              		.thumb_func
 1733              		.type	TestThread, %function
 1734              	TestThread:
 1735              	.LFB277:
 1736              		.loc 7 316 0
 1737              		.cfi_startproc
 1738              		@ args = 0, pretend = 0, frame = 16
 1739              		@ frame_needed = 1, uses_anonymous_args = 0
 1740 0000 80B5     		push	{r7, lr}
 1741              		.cfi_def_cfa_offset 8
 1742              		.cfi_offset 7, -8
 1743              		.cfi_offset 14, -4
 1744 0002 84B0     		sub	sp, sp, #16
 1745              		.cfi_def_cfa_offset 24
 1746 0004 00AF     		add	r7, sp, #0
 1747              		.cfi_def_cfa_register 7
 1748 0006 7860     		str	r0, [r7, #4]
 1749              		.loc 7 319 0
 1750 0008 5F4B     		ldr	r3, .L111
 1751 000a 7A68     		ldr	r2, [r7, #4]
 1752 000c 1A60     		str	r2, [r3]
 1753              		.loc 7 320 0
 1754 000e 5F48     		ldr	r0, .L111+4
 1755 0010 FFF7FEFF 		bl	test_println
 1756              		.loc 7 321 0
ARM GAS  C:\Users\Luis\AppData\Local\Temp\cc6PEIto.s 			page 34


 1757 0014 5E48     		ldr	r0, .L111+8
 1758 0016 FFF7FEFF 		bl	test_println
 1759              		.loc 7 322 0
 1760 001a 5E48     		ldr	r0, .L111+12
 1761 001c FFF7FEFF 		bl	test_println
 1762              		.loc 7 323 0
 1763 0020 5D48     		ldr	r0, .L111+16
 1764 0022 FFF7FEFF 		bl	test_print
 1765              		.loc 7 324 0
 1766 0026 5D48     		ldr	r0, .L111+20
 1767 0028 FFF7FEFF 		bl	test_println
 1768              		.loc 7 325 0
 1769 002c 5C48     		ldr	r0, .L111+24
 1770 002e FFF7FEFF 		bl	test_print
 1771              		.loc 7 326 0
 1772 0032 5C48     		ldr	r0, .L111+28
 1773 0034 FFF7FEFF 		bl	test_println
 1774              		.loc 7 328 0
 1775 0038 5B48     		ldr	r0, .L111+32
 1776 003a FFF7FEFF 		bl	test_print
 1777              		.loc 7 329 0
 1778 003e 5B48     		ldr	r0, .L111+36
 1779 0040 FFF7FEFF 		bl	test_println
 1780              		.loc 7 331 0
 1781 0044 5A48     		ldr	r0, .L111+40
 1782 0046 FFF7FEFF 		bl	test_print
 1783              		.loc 7 332 0
 1784 004a 5A48     		ldr	r0, .L111+44
 1785 004c FFF7FEFF 		bl	test_println
 1786              		.loc 7 334 0
 1787 0050 5948     		ldr	r0, .L111+48
 1788 0052 FFF7FEFF 		bl	test_print
 1789              		.loc 7 335 0
 1790 0056 5948     		ldr	r0, .L111+52
 1791 0058 FFF7FEFF 		bl	test_println
 1792              		.loc 7 338 0
 1793 005c 5848     		ldr	r0, .L111+56
 1794 005e FFF7FEFF 		bl	test_print
 1795              		.loc 7 339 0
 1796 0062 5848     		ldr	r0, .L111+60
 1797 0064 FFF7FEFF 		bl	test_println
 1798              		.loc 7 342 0
 1799 0068 5748     		ldr	r0, .L111+64
 1800 006a FFF7FEFF 		bl	test_print
 1801              		.loc 7 343 0
 1802 006e 5748     		ldr	r0, .L111+68
 1803 0070 FFF7FEFF 		bl	test_println
 1804              		.loc 7 346 0
 1805 0074 5648     		ldr	r0, .L111+72
 1806 0076 FFF7FEFF 		bl	test_print
 1807              		.loc 7 347 0
 1808 007a 5648     		ldr	r0, .L111+76
 1809 007c FFF7FEFF 		bl	test_println
 1810              		.loc 7 349 0
 1811 0080 4248     		ldr	r0, .L111+4
 1812 0082 FFF7FEFF 		bl	test_println
 1813              		.loc 7 351 0
ARM GAS  C:\Users\Luis\AppData\Local\Temp\cc6PEIto.s 			page 35


 1814 0086 544B     		ldr	r3, .L111+80
 1815 0088 0022     		movs	r2, #0
 1816 008a 1A70     		strb	r2, [r3]
 1817              		.loc 7 352 0
 1818 008c 0023     		movs	r3, #0
 1819 008e FB60     		str	r3, [r7, #12]
 1820              		.loc 7 353 0
 1821 0090 5DE0     		b	.L103
 1822              	.L108:
 1823              		.loc 7 354 0
 1824 0092 0023     		movs	r3, #0
 1825 0094 BB60     		str	r3, [r7, #8]
 1826              		.loc 7 355 0
 1827 0096 4DE0     		b	.L104
 1828              	.L107:
 1829              		.loc 7 356 0
 1830 0098 FFF7FEFF 		bl	print_line
 1831              		.loc 7 357 0
 1832 009c 4F48     		ldr	r0, .L111+84
 1833 009e FFF7FEFF 		bl	test_print
 1834              		.loc 7 358 0
 1835 00a2 FB68     		ldr	r3, [r7, #12]
 1836 00a4 0133     		adds	r3, r3, #1
 1837 00a6 1846     		mov	r0, r3
 1838 00a8 FFF7FEFF 		bl	test_printn
 1839              		.loc 7 359 0
 1840 00ac 4C48     		ldr	r0, .L111+88
 1841 00ae FFF7FEFF 		bl	test_print
 1842              		.loc 7 360 0
 1843 00b2 BB68     		ldr	r3, [r7, #8]
 1844 00b4 0133     		adds	r3, r3, #1
 1845 00b6 1846     		mov	r0, r3
 1846 00b8 FFF7FEFF 		bl	test_printn
 1847              		.loc 7 361 0
 1848 00bc 4948     		ldr	r0, .L111+92
 1849 00be FFF7FEFF 		bl	test_print
 1850              		.loc 7 362 0
 1851 00c2 494B     		ldr	r3, .L111+96
 1852 00c4 FA68     		ldr	r2, [r7, #12]
 1853 00c6 53F82220 		ldr	r2, [r3, r2, lsl #2]
 1854 00ca BB68     		ldr	r3, [r7, #8]
 1855 00cc 9B00     		lsls	r3, r3, #2
 1856 00ce 1344     		add	r3, r3, r2
 1857 00d0 1B68     		ldr	r3, [r3]
 1858 00d2 1B68     		ldr	r3, [r3]
 1859 00d4 1846     		mov	r0, r3
 1860 00d6 FFF7FEFF 		bl	test_print
 1861              		.loc 7 363 0
 1862 00da 4448     		ldr	r0, .L111+100
 1863 00dc FFF7FEFF 		bl	test_println
 1864              		.loc 7 365 0
 1865 00e0 4FF4FA60 		mov	r0, #2000
 1866 00e4 FFF7FEFF 		bl	chThdSleep
 1867              		.loc 7 367 0
 1868 00e8 3F4B     		ldr	r3, .L111+96
 1869 00ea FA68     		ldr	r2, [r7, #12]
 1870 00ec 53F82220 		ldr	r2, [r3, r2, lsl #2]
ARM GAS  C:\Users\Luis\AppData\Local\Temp\cc6PEIto.s 			page 36


 1871 00f0 BB68     		ldr	r3, [r7, #8]
 1872 00f2 9B00     		lsls	r3, r3, #2
 1873 00f4 1344     		add	r3, r3, r2
 1874 00f6 1B68     		ldr	r3, [r3]
 1875 00f8 1846     		mov	r0, r3
 1876 00fa FFF7FEFF 		bl	execute_test
 1877              		.loc 7 368 0
 1878 00fe 3C4B     		ldr	r3, .L111+104
 1879 0100 1B78     		ldrb	r3, [r3]	@ zero_extendqisi2
 1880 0102 002B     		cmp	r3, #0
 1881 0104 10D0     		beq	.L105
 1882              		.loc 7 369 0
 1883 0106 3B48     		ldr	r0, .L111+108
 1884 0108 FFF7FEFF 		bl	test_print
 1885              		.loc 7 370 0
 1886 010c 3A4B     		ldr	r3, .L111+112
 1887 010e 1B68     		ldr	r3, [r3]
 1888 0110 1846     		mov	r0, r3
 1889 0112 FFF7FEFF 		bl	test_printn
 1890              		.loc 7 371 0
 1891 0116 3948     		ldr	r0, .L111+116
 1892 0118 FFF7FEFF 		bl	test_print
 1893              		.loc 7 372 0
 1894 011c FFF7FEFF 		bl	print_tokens
 1895              		.loc 7 373 0
 1896 0120 3748     		ldr	r0, .L111+120
 1897 0122 FFF7FEFF 		bl	test_println
 1898 0126 02E0     		b	.L106
 1899              	.L105:
 1900              		.loc 7 376 0
 1901 0128 3648     		ldr	r0, .L111+124
 1902 012a FFF7FEFF 		bl	test_println
 1903              	.L106:
 1904              		.loc 7 377 0
 1905 012e BB68     		ldr	r3, [r7, #8]
 1906 0130 0133     		adds	r3, r3, #1
 1907 0132 BB60     		str	r3, [r7, #8]
 1908              	.L104:
 1909              		.loc 7 355 0 discriminator 1
 1910 0134 2C4B     		ldr	r3, .L111+96
 1911 0136 FA68     		ldr	r2, [r7, #12]
 1912 0138 53F82220 		ldr	r2, [r3, r2, lsl #2]
 1913 013c BB68     		ldr	r3, [r7, #8]
 1914 013e 9B00     		lsls	r3, r3, #2
 1915 0140 1344     		add	r3, r3, r2
 1916 0142 1B68     		ldr	r3, [r3]
 1917 0144 002B     		cmp	r3, #0
 1918 0146 A7D1     		bne	.L107
 1919              		.loc 7 379 0
 1920 0148 FB68     		ldr	r3, [r7, #12]
 1921 014a 0133     		adds	r3, r3, #1
 1922 014c FB60     		str	r3, [r7, #12]
 1923              	.L103:
 1924              		.loc 7 353 0 discriminator 1
 1925 014e 264B     		ldr	r3, .L111+96
 1926 0150 FA68     		ldr	r2, [r7, #12]
 1927 0152 53F82230 		ldr	r3, [r3, r2, lsl #2]
ARM GAS  C:\Users\Luis\AppData\Local\Temp\cc6PEIto.s 			page 37


 1928 0156 002B     		cmp	r3, #0
 1929 0158 9BD1     		bne	.L108
 1930              		.loc 7 381 0
 1931 015a FFF7FEFF 		bl	print_line
 1932              		.loc 7 382 0
 1933 015e 0B48     		ldr	r0, .L111+4
 1934 0160 FFF7FEFF 		bl	test_println
 1935              		.loc 7 383 0
 1936 0164 2848     		ldr	r0, .L111+128
 1937 0166 FFF7FEFF 		bl	test_print
 1938              		.loc 7 384 0
 1939 016a 1B4B     		ldr	r3, .L111+80
 1940 016c 1B78     		ldrb	r3, [r3]	@ zero_extendqisi2
 1941 016e 002B     		cmp	r3, #0
 1942 0170 03D0     		beq	.L109
 1943              		.loc 7 385 0
 1944 0172 2648     		ldr	r0, .L111+132
 1945 0174 FFF7FEFF 		bl	test_println
 1946 0178 02E0     		b	.L102
 1947              	.L109:
 1948              		.loc 7 387 0
 1949 017a 2548     		ldr	r0, .L111+136
 1950 017c FFF7FEFF 		bl	test_println
 1951              	.L102:
 1952              		.loc 7 388 0
 1953 0180 1037     		adds	r7, r7, #16
 1954 0182 BD46     		mov	sp, r7
 1955              		@ sp needed
 1956 0184 80BD     		pop	{r7, pc}
 1957              	.L112:
 1958 0186 00BF     		.align	2
 1959              	.L111:
 1960 0188 00000000 		.word	chp
 1961 018c 04000000 		.word	.LC1
 1962 0190 08000000 		.word	.LC2
 1963 0194 24000000 		.word	.LC3
 1964 0198 28000000 		.word	.LC4
 1965 019c 3C000000 		.word	.LC5
 1966 01a0 44000000 		.word	.LC6
 1967 01a4 58000000 		.word	.LC7
 1968 01a8 70000000 		.word	.LC8
 1969 01ac 84000000 		.word	.LC9
 1970 01b0 CC000000 		.word	.LC10
 1971 01b4 E0000000 		.word	.LC11
 1972 01b8 EC000000 		.word	.LC12
 1973 01bc 00010000 		.word	.LC13
 1974 01c0 0C010000 		.word	.LC14
 1975 01c4 20010000 		.word	.LC15
 1976 01c8 38010000 		.word	.LC16
 1977 01cc 4C010000 		.word	.LC17
 1978 01d0 78010000 		.word	.LC18
 1979 01d4 8C010000 		.word	.LC19
 1980 01d8 00000000 		.word	test_global_fail
 1981 01dc A0010000 		.word	.LC20
 1982 01e0 B0010000 		.word	.LC21
 1983 01e4 B4010000 		.word	.LC22
 1984 01e8 00000000 		.word	patterns
ARM GAS  C:\Users\Luis\AppData\Local\Temp\cc6PEIto.s 			page 38


 1985 01ec B8010000 		.word	.LC23
 1986 01f0 00000000 		.word	local_fail
 1987 01f4 BC010000 		.word	.LC24
 1988 01f8 00000000 		.word	failpoint
 1989 01fc D4010000 		.word	.LC25
 1990 0200 D8010000 		.word	.LC26
 1991 0204 DC010000 		.word	.LC27
 1992 0208 F0010000 		.word	.LC28
 1993 020c 00020000 		.word	.LC29
 1994 0210 08020000 		.word	.LC30
 1995              		.cfi_endproc
 1996              	.LFE277:
 1997              		.size	TestThread, .-TestThread
 1998 0214 AFF30080 		.section	.rodata.__func__.5842,"a",%progbits
 1998      AFF30080 
 1998      AFF30080 
 1999              		.align	2
 2000              		.type	__func__.5842, %object
 2001              		.size	__func__.5842, 12
 2002              	__func__.5842:
 2003 0000 63685379 		.ascii	"chSysUnlock\000"
 2003      73556E6C 
 2003      6F636B00 
 2004              		.text
 2005              	.Letext0:
 2006              		.file 8 "c:\\emtechesdk\\gcc\\lib\\gcc\\arm-none-eabi\\4.8.3\\include\\stddef.h"
 2007              		.file 9 "c:\\emtechesdk\\gcc\\arm-none-eabi\\include\\stdint.h"
 2008              		.file 10 "../../ChibiOS/os/rt/ports/ARMCMx/compilers/GCC/chtypes.h"
 2009              		.file 11 "../../ChibiOS/os/rt/include/chsystypes.h"
 2010              		.file 12 "../../ChibiOS/os/rt/include/chschd.h"
 2011              		.file 13 "../../ChibiOS/os/rt/ports/ARMCMx/chcore.h"
 2012              		.file 14 "../../ChibiOS/os/hal/ports/STM32/LLD/TIMv1/stm32_tim.h"
 2013              		.file 15 "../../ChibiOS/os/rt/include/chdebug.h"
 2014              		.file 16 "../../ChibiOS/os/rt/include/chtm.h"
 2015              		.file 17 "../../ChibiOS/os/rt/include/chstats.h"
 2016              		.file 18 "../../ChibiOS/os/rt/include/chsem.h"
 2017              		.file 19 "../../ChibiOS/os/rt/include/chmtx.h"
 2018              		.file 20 "../../ChibiOS/os/rt/include/chstreams.h"
 2019              		.file 21 "../../ChibiOS/test/rt/test.h"
 2020              		.file 22 "../../ChibiOS/os/ext/CMSIS/include/core_cm4.h"
 2021              		.file 23 "../../ChibiOS/test/rt/testsys.h"
 2022              		.file 24 "../../ChibiOS/test/rt/testthd.h"
 2023              		.file 25 "../../ChibiOS/test/rt/testsem.h"
 2024              		.file 26 "../../ChibiOS/test/rt/testmtx.h"
 2025              		.file 27 "../../ChibiOS/test/rt/testmsg.h"
 2026              		.file 28 "../../ChibiOS/test/rt/testmbox.h"
 2027              		.file 29 "../../ChibiOS/test/rt/testevt.h"
 2028              		.file 30 "../../ChibiOS/test/rt/testheap.h"
 2029              		.file 31 "../../ChibiOS/test/rt/testpools.h"
 2030              		.file 32 "../../ChibiOS/test/rt/testdyn.h"
 2031              		.file 33 "../../ChibiOS/test/rt/testqueues.h"
 2032              		.file 34 "../../ChibiOS/test/rt/testbmk.h"