ARM GAS  C:\Users\Luis\AppData\Local\Temp\ccCpGtGt.s 			page 1


   1              		.syntax unified
   2              		.cpu cortex-m4
   3              		.fpu softvfp
   4              		.eabi_attribute 20, 1
   5              		.eabi_attribute 21, 1
   6              		.eabi_attribute 23, 3
   7              		.eabi_attribute 24, 1
   8              		.eabi_attribute 25, 1
   9              		.eabi_attribute 26, 1
  10              		.eabi_attribute 30, 6
  11              		.eabi_attribute 34, 1
  12              		.eabi_attribute 18, 4
  13              		.thumb
  14              		.file	"testmbox.c"
  15              		.text
  16              	.Ltext0:
  17              		.cfi_sections	.debug_frame
  18              		.section	.text.port_lock,"ax",%progbits
  19              		.align	2
  20              		.p2align 4,,15
  21              		.thumb
  22              		.thumb_func
  23              		.type	port_lock, %function
  24              	port_lock:
  25              	.LFB116:
  26              		.file 1 "../../ChibiOS/os/rt/ports/ARMCMx/chcore_v7m.h"
  27              		.loc 1 444 0
  28              		.cfi_startproc
  29              		@ args = 0, pretend = 0, frame = 8
  30              		@ frame_needed = 1, uses_anonymous_args = 0
  31              		@ link register save eliminated.
  32 0000 80B4     		push	{r7}
  33              		.cfi_def_cfa_offset 4
  34              		.cfi_offset 7, -4
  35 0002 83B0     		sub	sp, sp, #12
  36              		.cfi_def_cfa_offset 16
  37 0004 00AF     		add	r7, sp, #0
  38              		.cfi_def_cfa_register 7
  39 0006 2023     		movs	r3, #32
  40 0008 7B60     		str	r3, [r7, #4]
  41              	.LBB6:
  42              	.LBB7:
  43              		.file 2 "../../ChibiOS/os/ext/CMSIS/include/core_cmFunc.h"
  44              		.loc 2 546 0
  45 000a 7B68     		ldr	r3, [r7, #4]
  46              	@ 546 "../../ChibiOS/os/ext/CMSIS/include/core_cmFunc.h" 1
  47 000c 83F31188 		MSR basepri, r3
  48              	@ 0 "" 2
  49              		.thumb
  50              	.LBE7:
  51              	.LBE6:
  52              		.loc 1 451 0
  53 0010 0C37     		adds	r7, r7, #12
  54 0012 BD46     		mov	sp, r7
  55              		@ sp needed
  56 0014 5DF8047B 		ldr	r7, [sp], #4
  57 0018 7047     		bx	lr
ARM GAS  C:\Users\Luis\AppData\Local\Temp\ccCpGtGt.s 			page 2


  58              		.cfi_endproc
  59              	.LFE116:
  60              		.size	port_lock, .-port_lock
  61 001a 00BFAFF3 		.section	.text.port_unlock,"ax",%progbits
  61      0080
  62              		.align	2
  63              		.p2align 4,,15
  64              		.thumb
  65              		.thumb_func
  66              		.type	port_unlock, %function
  67              	port_unlock:
  68              	.LFB117:
  69              		.loc 1 458 0
  70              		.cfi_startproc
  71              		@ args = 0, pretend = 0, frame = 8
  72              		@ frame_needed = 1, uses_anonymous_args = 0
  73              		@ link register save eliminated.
  74 0000 80B4     		push	{r7}
  75              		.cfi_def_cfa_offset 4
  76              		.cfi_offset 7, -4
  77 0002 83B0     		sub	sp, sp, #12
  78              		.cfi_def_cfa_offset 16
  79 0004 00AF     		add	r7, sp, #0
  80              		.cfi_def_cfa_register 7
  81 0006 0023     		movs	r3, #0
  82 0008 7B60     		str	r3, [r7, #4]
  83              	.LBB8:
  84              	.LBB9:
  85              		.loc 2 546 0
  86 000a 7B68     		ldr	r3, [r7, #4]
  87              	@ 546 "../../ChibiOS/os/ext/CMSIS/include/core_cmFunc.h" 1
  88 000c 83F31188 		MSR basepri, r3
  89              	@ 0 "" 2
  90              		.thumb
  91              	.LBE9:
  92              	.LBE8:
  93              		.loc 1 465 0
  94 0010 0C37     		adds	r7, r7, #12
  95 0012 BD46     		mov	sp, r7
  96              		@ sp needed
  97 0014 5DF8047B 		ldr	r7, [sp], #4
  98 0018 7047     		bx	lr
  99              		.cfi_endproc
 100              	.LFE117:
 101              		.size	port_unlock, .-port_unlock
 102 001a 00BFAFF3 		.section	.text.chSysLock,"ax",%progbits
 102      0080
 103              		.align	2
 104              		.p2align 4,,15
 105              		.thumb
 106              		.thumb_func
 107              		.type	chSysLock, %function
 108              	chSysLock:
 109              	.LFB156:
 110              		.file 3 "../../ChibiOS/os/rt/include/chsys.h"
 111              		.loc 3 346 0
 112              		.cfi_startproc
ARM GAS  C:\Users\Luis\AppData\Local\Temp\ccCpGtGt.s 			page 3


 113              		@ args = 0, pretend = 0, frame = 0
 114              		@ frame_needed = 1, uses_anonymous_args = 0
 115 0000 80B5     		push	{r7, lr}
 116              		.cfi_def_cfa_offset 8
 117              		.cfi_offset 7, -8
 118              		.cfi_offset 14, -4
 119 0002 00AF     		add	r7, sp, #0
 120              		.cfi_def_cfa_register 7
 121              		.loc 3 348 0
 122 0004 FFF7FEFF 		bl	port_lock
 123              		.loc 3 349 0
 124 0008 FFF7FEFF 		bl	_stats_start_measure_crit_thd
 125              		.loc 3 350 0
 126 000c FFF7FEFF 		bl	_dbg_check_lock
 127              		.loc 3 351 0
 128 0010 80BD     		pop	{r7, pc}
 129              		.cfi_endproc
 130              	.LFE156:
 131              		.size	chSysLock, .-chSysLock
 132 0012 00BFAFF3 		.section	.text.chSysUnlock,"ax",%progbits
 132      0080AFF3 
 132      0080AFF3 
 132      0080
 133              		.align	2
 134              		.p2align 4,,15
 135              		.thumb
 136              		.thumb_func
 137              		.type	chSysUnlock, %function
 138              	chSysUnlock:
 139              	.LFB157:
 140              		.loc 3 358 0
 141              		.cfi_startproc
 142              		@ args = 0, pretend = 0, frame = 0
 143              		@ frame_needed = 1, uses_anonymous_args = 0
 144 0000 80B5     		push	{r7, lr}
 145              		.cfi_def_cfa_offset 8
 146              		.cfi_offset 7, -8
 147              		.cfi_offset 14, -4
 148 0002 00AF     		add	r7, sp, #0
 149              		.cfi_def_cfa_register 7
 150              		.loc 3 360 0
 151 0004 FFF7FEFF 		bl	_dbg_check_unlock
 152              		.loc 3 361 0
 153 0008 FFF7FEFF 		bl	_stats_stop_measure_crit_thd
 154              		.loc 3 367 0
 155 000c 094B     		ldr	r3, .L6
 156 000e 1A68     		ldr	r2, [r3]
 157 0010 084B     		ldr	r3, .L6
 158 0012 9A42     		cmp	r2, r3
 159 0014 0AD0     		beq	.L5
 160              		.loc 3 367 0 is_stmt 0 discriminator 1
 161 0016 074B     		ldr	r3, .L6
 162 0018 9B69     		ldr	r3, [r3, #24]
 163 001a 9A68     		ldr	r2, [r3, #8]
 164 001c 054B     		ldr	r3, .L6
 165 001e 1B68     		ldr	r3, [r3]
 166 0020 9B68     		ldr	r3, [r3, #8]
ARM GAS  C:\Users\Luis\AppData\Local\Temp\ccCpGtGt.s 			page 4


 167 0022 9A42     		cmp	r2, r3
 168 0024 02D2     		bcs	.L5
 169 0026 0448     		ldr	r0, .L6+4
 170 0028 FFF7FEFF 		bl	chSysHalt
 171              	.L5:
 172              		.loc 3 371 0 is_stmt 1
 173 002c FFF7FEFF 		bl	port_unlock
 174              		.loc 3 372 0
 175 0030 80BD     		pop	{r7, pc}
 176              	.L7:
 177 0032 00BF     		.align	2
 178              	.L6:
 179 0034 00000000 		.word	ch
 180 0038 00000000 		.word	__func__.5842
 181              		.cfi_endproc
 182              	.LFE157:
 183              		.size	chSysUnlock, .-chSysUnlock
 184 003c AFF30080 		.section	.text.chSemGetCounterI,"ax",%progbits
 185              		.align	2
 186              		.p2align 4,,15
 187              		.thumb
 188              		.thumb_func
 189              		.type	chSemGetCounterI, %function
 190              	chSemGetCounterI:
 191              	.LFB191:
 192              		.file 4 "../../ChibiOS/os/rt/include/chsem.h"
 193              		.loc 4 149 0
 194              		.cfi_startproc
 195              		@ args = 0, pretend = 0, frame = 8
 196              		@ frame_needed = 1, uses_anonymous_args = 0
 197 0000 80B5     		push	{r7, lr}
 198              		.cfi_def_cfa_offset 8
 199              		.cfi_offset 7, -8
 200              		.cfi_offset 14, -4
 201 0002 82B0     		sub	sp, sp, #8
 202              		.cfi_def_cfa_offset 16
 203 0004 00AF     		add	r7, sp, #0
 204              		.cfi_def_cfa_register 7
 205 0006 7860     		str	r0, [r7, #4]
 206              		.loc 4 151 0
 207 0008 FFF7FEFF 		bl	chDbgCheckClassI
 208              		.loc 4 153 0
 209 000c 7B68     		ldr	r3, [r7, #4]
 210 000e 9B68     		ldr	r3, [r3, #8]
 211              		.loc 4 154 0
 212 0010 1846     		mov	r0, r3
 213 0012 0837     		adds	r7, r7, #8
 214 0014 BD46     		mov	sp, r7
 215              		@ sp needed
 216 0016 80BD     		pop	{r7, pc}
 217              		.cfi_endproc
 218              	.LFE191:
 219              		.size	chSemGetCounterI, .-chSemGetCounterI
 220 0018 AFF30080 		.section	.text.chMBGetFreeCountI,"ax",%progbits
 220      AFF30080 
 221              		.align	2
 222              		.p2align 4,,15
ARM GAS  C:\Users\Luis\AppData\Local\Temp\ccCpGtGt.s 			page 5


 223              		.thumb
 224              		.thumb_func
 225              		.type	chMBGetFreeCountI, %function
 226              	chMBGetFreeCountI:
 227              	.LFB214:
 228              		.file 5 "../../ChibiOS/os/rt/include/chmboxes.h"
 229              		.loc 5 158 0
 230              		.cfi_startproc
 231              		@ args = 0, pretend = 0, frame = 8
 232              		@ frame_needed = 1, uses_anonymous_args = 0
 233 0000 80B5     		push	{r7, lr}
 234              		.cfi_def_cfa_offset 8
 235              		.cfi_offset 7, -8
 236              		.cfi_offset 14, -4
 237 0002 82B0     		sub	sp, sp, #8
 238              		.cfi_def_cfa_offset 16
 239 0004 00AF     		add	r7, sp, #0
 240              		.cfi_def_cfa_register 7
 241 0006 7860     		str	r0, [r7, #4]
 242              		.loc 5 160 0
 243 0008 FFF7FEFF 		bl	chDbgCheckClassI
 244              		.loc 5 162 0
 245 000c 7B68     		ldr	r3, [r7, #4]
 246 000e 1C33     		adds	r3, r3, #28
 247 0010 1846     		mov	r0, r3
 248 0012 FFF7FEFF 		bl	chSemGetCounterI
 249 0016 0346     		mov	r3, r0
 250              		.loc 5 163 0
 251 0018 1846     		mov	r0, r3
 252 001a 0837     		adds	r7, r7, #8
 253 001c BD46     		mov	sp, r7
 254              		@ sp needed
 255 001e 80BD     		pop	{r7, pc}
 256              		.cfi_endproc
 257              	.LFE214:
 258              		.size	chMBGetFreeCountI, .-chMBGetFreeCountI
 259              		.section	.text.chMBGetUsedCountI,"ax",%progbits
 260              		.align	2
 261              		.p2align 4,,15
 262              		.thumb
 263              		.thumb_func
 264              		.type	chMBGetUsedCountI, %function
 265              	chMBGetUsedCountI:
 266              	.LFB215:
 267              		.loc 5 177 0
 268              		.cfi_startproc
 269              		@ args = 0, pretend = 0, frame = 8
 270              		@ frame_needed = 1, uses_anonymous_args = 0
 271 0000 80B5     		push	{r7, lr}
 272              		.cfi_def_cfa_offset 8
 273              		.cfi_offset 7, -8
 274              		.cfi_offset 14, -4
 275 0002 82B0     		sub	sp, sp, #8
 276              		.cfi_def_cfa_offset 16
 277 0004 00AF     		add	r7, sp, #0
 278              		.cfi_def_cfa_register 7
 279 0006 7860     		str	r0, [r7, #4]
ARM GAS  C:\Users\Luis\AppData\Local\Temp\ccCpGtGt.s 			page 6


 280              		.loc 5 179 0
 281 0008 FFF7FEFF 		bl	chDbgCheckClassI
 282              		.loc 5 181 0
 283 000c 7B68     		ldr	r3, [r7, #4]
 284 000e 1033     		adds	r3, r3, #16
 285 0010 1846     		mov	r0, r3
 286 0012 FFF7FEFF 		bl	chSemGetCounterI
 287 0016 0346     		mov	r3, r0
 288              		.loc 5 182 0
 289 0018 1846     		mov	r0, r3
 290 001a 0837     		adds	r7, r7, #8
 291 001c BD46     		mov	sp, r7
 292              		@ sp needed
 293 001e 80BD     		pop	{r7, pc}
 294              		.cfi_endproc
 295              	.LFE215:
 296              		.size	chMBGetUsedCountI, .-chMBGetUsedCountI
 297              		.section	.data.mb1,"aw",%progbits
 298              		.align	2
 299              		.type	mb1, %object
 300              		.size	mb1, 40
 301              	mb1:
 302 0000 00000000 		.word	test
 303 0004 14000000 		.word	test+20
 304 0008 00000000 		.word	test
 305 000c 00000000 		.word	test
 306 0010 10000000 		.word	mb1+16
 307 0014 10000000 		.word	mb1+16
 308 0018 00000000 		.word	0
 309 001c 1C000000 		.word	mb1+28
 310 0020 1C000000 		.word	mb1+28
 311 0024 05000000 		.word	5
 312              		.section	.text.mbox1_setup,"ax",%progbits
 313              		.align	2
 314              		.p2align 4,,15
 315              		.thumb
 316              		.thumb_func
 317              		.type	mbox1_setup, %function
 318              	mbox1_setup:
 319              	.LFB229:
 320              		.file 6 "../../ChibiOS/test/rt/testmbox.c"
 321              		.loc 6 71 0
 322              		.cfi_startproc
 323              		@ args = 0, pretend = 0, frame = 0
 324              		@ frame_needed = 1, uses_anonymous_args = 0
 325 0000 80B5     		push	{r7, lr}
 326              		.cfi_def_cfa_offset 8
 327              		.cfi_offset 7, -8
 328              		.cfi_offset 14, -4
 329 0002 00AF     		add	r7, sp, #0
 330              		.cfi_def_cfa_register 7
 331              		.loc 6 73 0
 332 0004 0248     		ldr	r0, .L15
 333 0006 0349     		ldr	r1, .L15+4
 334 0008 0522     		movs	r2, #5
 335 000a FFF7FEFF 		bl	chMBObjectInit
 336              		.loc 6 74 0
ARM GAS  C:\Users\Luis\AppData\Local\Temp\ccCpGtGt.s 			page 7


 337 000e 80BD     		pop	{r7, pc}
 338              	.L16:
 339              		.align	2
 340              	.L15:
 341 0010 00000000 		.word	mb1
 342 0014 00000000 		.word	test
 343              		.cfi_endproc
 344              	.LFE229:
 345              		.size	mbox1_setup, .-mbox1_setup
 346 0018 AFF30080 		.section	.rodata
 346      AFF30080 
 347              		.align	2
 348              	.LC0:
 349 0000 41424344 		.ascii	"ABCDE\000"
 349      4500
 350              		.section	.text.mbox1_execute,"ax",%progbits
 351              		.align	2
 352              		.p2align 4,,15
 353              		.thumb
 354              		.thumb_func
 355              		.type	mbox1_execute, %function
 356              	mbox1_execute:
 357              	.LFB230:
 358              		.loc 6 76 0
 359              		.cfi_startproc
 360              		@ args = 0, pretend = 0, frame = 16
 361              		@ frame_needed = 1, uses_anonymous_args = 0
 362 0000 80B5     		push	{r7, lr}
 363              		.cfi_def_cfa_offset 8
 364              		.cfi_offset 7, -8
 365              		.cfi_offset 14, -4
 366 0002 84B0     		sub	sp, sp, #16
 367              		.cfi_def_cfa_offset 24
 368 0004 00AF     		add	r7, sp, #0
 369              		.cfi_def_cfa_register 7
 370              		.loc 6 83 0
 371 0006 FFF7FEFF 		bl	chSysLock
 372 000a A948     		ldr	r0, .L75
 373 000c FFF7FEFF 		bl	chMBGetFreeCountI
 374 0010 0346     		mov	r3, r0
 375 0012 052B     		cmp	r3, #5
 376 0014 14BF     		ite	ne
 377 0016 0023     		movne	r3, #0
 378 0018 0123     		moveq	r3, #1
 379 001a DBB2     		uxtb	r3, r3
 380 001c 0120     		movs	r0, #1
 381 001e 1946     		mov	r1, r3
 382 0020 FFF7FEFF 		bl	_test_assert
 383 0024 0346     		mov	r3, r0
 384 0026 002B     		cmp	r3, #0
 385 0028 02D0     		beq	.L18
 386              		.loc 6 83 0 is_stmt 0 discriminator 1
 387 002a FFF7FEFF 		bl	chSysUnlock
 388 002e EEE3     		b	.L17
 389              	.L18:
 390              		.loc 6 83 0 discriminator 2
 391 0030 FFF7FEFF 		bl	chSysUnlock
ARM GAS  C:\Users\Luis\AppData\Local\Temp\ccCpGtGt.s 			page 8


 392              		.loc 6 88 0 is_stmt 1 discriminator 2
 393 0034 0023     		movs	r3, #0
 394 0036 FB60     		str	r3, [r7, #12]
 395 0038 19E0     		b	.L20
 396              	.L22:
 397              		.loc 6 89 0
 398 003a FB68     		ldr	r3, [r7, #12]
 399 003c 4233     		adds	r3, r3, #66
 400 003e 9C48     		ldr	r0, .L75
 401 0040 1946     		mov	r1, r3
 402 0042 4FF0FF32 		mov	r2, #-1
 403 0046 FFF7FEFF 		bl	chMBPost
 404 004a B860     		str	r0, [r7, #8]
 405              		.loc 6 90 0
 406 004c BB68     		ldr	r3, [r7, #8]
 407 004e 002B     		cmp	r3, #0
 408 0050 14BF     		ite	ne
 409 0052 0023     		movne	r3, #0
 410 0054 0123     		moveq	r3, #1
 411 0056 DBB2     		uxtb	r3, r3
 412 0058 0220     		movs	r0, #2
 413 005a 1946     		mov	r1, r3
 414 005c FFF7FEFF 		bl	_test_assert
 415 0060 0346     		mov	r3, r0
 416 0062 002B     		cmp	r3, #0
 417 0064 00D0     		beq	.L21
 418              		.loc 6 90 0 is_stmt 0 discriminator 1
 419 0066 D2E3     		b	.L17
 420              	.L21:
 421              		.loc 6 88 0 is_stmt 1
 422 0068 FB68     		ldr	r3, [r7, #12]
 423 006a 0133     		adds	r3, r3, #1
 424 006c FB60     		str	r3, [r7, #12]
 425              	.L20:
 426              		.loc 6 88 0 is_stmt 0 discriminator 1
 427 006e FB68     		ldr	r3, [r7, #12]
 428 0070 032B     		cmp	r3, #3
 429 0072 E2D9     		bls	.L22
 430              		.loc 6 92 0 is_stmt 1
 431 0074 8E48     		ldr	r0, .L75
 432 0076 4121     		movs	r1, #65
 433 0078 4FF0FF32 		mov	r2, #-1
 434 007c FFF7FEFF 		bl	chMBPostAhead
 435 0080 B860     		str	r0, [r7, #8]
 436              		.loc 6 93 0
 437 0082 BB68     		ldr	r3, [r7, #8]
 438 0084 002B     		cmp	r3, #0
 439 0086 14BF     		ite	ne
 440 0088 0023     		movne	r3, #0
 441 008a 0123     		moveq	r3, #1
 442 008c DBB2     		uxtb	r3, r3
 443 008e 0320     		movs	r0, #3
 444 0090 1946     		mov	r1, r3
 445 0092 FFF7FEFF 		bl	_test_assert
 446 0096 0346     		mov	r3, r0
 447 0098 002B     		cmp	r3, #0
 448 009a 00D0     		beq	.L23
ARM GAS  C:\Users\Luis\AppData\Local\Temp\ccCpGtGt.s 			page 9


 449              		.loc 6 93 0 is_stmt 0 discriminator 1
 450 009c B7E3     		b	.L17
 451              	.L23:
 452              		.loc 6 98 0 is_stmt 1
 453 009e 8448     		ldr	r0, .L75
 454 00a0 5821     		movs	r1, #88
 455 00a2 0122     		movs	r2, #1
 456 00a4 FFF7FEFF 		bl	chMBPost
 457 00a8 B860     		str	r0, [r7, #8]
 458              		.loc 6 99 0
 459 00aa BB68     		ldr	r3, [r7, #8]
 460 00ac B3F1FF3F 		cmp	r3, #-1
 461 00b0 14BF     		ite	ne
 462 00b2 0023     		movne	r3, #0
 463 00b4 0123     		moveq	r3, #1
 464 00b6 DBB2     		uxtb	r3, r3
 465 00b8 0420     		movs	r0, #4
 466 00ba 1946     		mov	r1, r3
 467 00bc FFF7FEFF 		bl	_test_assert
 468 00c0 0346     		mov	r3, r0
 469 00c2 002B     		cmp	r3, #0
 470 00c4 00D0     		beq	.L24
 471              		.loc 6 99 0 is_stmt 0 discriminator 1
 472 00c6 A2E3     		b	.L17
 473              	.L24:
 474              		.loc 6 100 0 is_stmt 1
 475 00c8 FFF7FEFF 		bl	chSysLock
 476              		.loc 6 101 0
 477 00cc 7848     		ldr	r0, .L75
 478 00ce 5821     		movs	r1, #88
 479 00d0 FFF7FEFF 		bl	chMBPostI
 480 00d4 B860     		str	r0, [r7, #8]
 481              		.loc 6 102 0
 482 00d6 FFF7FEFF 		bl	chSysUnlock
 483              		.loc 6 103 0
 484 00da BB68     		ldr	r3, [r7, #8]
 485 00dc B3F1FF3F 		cmp	r3, #-1
 486 00e0 14BF     		ite	ne
 487 00e2 0023     		movne	r3, #0
 488 00e4 0123     		moveq	r3, #1
 489 00e6 DBB2     		uxtb	r3, r3
 490 00e8 0520     		movs	r0, #5
 491 00ea 1946     		mov	r1, r3
 492 00ec FFF7FEFF 		bl	_test_assert
 493 00f0 0346     		mov	r3, r0
 494 00f2 002B     		cmp	r3, #0
 495 00f4 00D0     		beq	.L25
 496              		.loc 6 103 0 is_stmt 0 discriminator 1
 497 00f6 8AE3     		b	.L17
 498              	.L25:
 499              		.loc 6 104 0 is_stmt 1
 500 00f8 6D48     		ldr	r0, .L75
 501 00fa 5821     		movs	r1, #88
 502 00fc 0122     		movs	r2, #1
 503 00fe FFF7FEFF 		bl	chMBPostAhead
 504 0102 B860     		str	r0, [r7, #8]
 505              		.loc 6 105 0
ARM GAS  C:\Users\Luis\AppData\Local\Temp\ccCpGtGt.s 			page 10


 506 0104 BB68     		ldr	r3, [r7, #8]
 507 0106 B3F1FF3F 		cmp	r3, #-1
 508 010a 14BF     		ite	ne
 509 010c 0023     		movne	r3, #0
 510 010e 0123     		moveq	r3, #1
 511 0110 DBB2     		uxtb	r3, r3
 512 0112 0620     		movs	r0, #6
 513 0114 1946     		mov	r1, r3
 514 0116 FFF7FEFF 		bl	_test_assert
 515 011a 0346     		mov	r3, r0
 516 011c 002B     		cmp	r3, #0
 517 011e 00D0     		beq	.L26
 518              		.loc 6 105 0 is_stmt 0 discriminator 1
 519 0120 75E3     		b	.L17
 520              	.L26:
 521              		.loc 6 106 0 is_stmt 1
 522 0122 FFF7FEFF 		bl	chSysLock
 523              		.loc 6 107 0
 524 0126 6248     		ldr	r0, .L75
 525 0128 5821     		movs	r1, #88
 526 012a FFF7FEFF 		bl	chMBPostAheadI
 527 012e B860     		str	r0, [r7, #8]
 528              		.loc 6 108 0
 529 0130 FFF7FEFF 		bl	chSysUnlock
 530              		.loc 6 109 0
 531 0134 BB68     		ldr	r3, [r7, #8]
 532 0136 B3F1FF3F 		cmp	r3, #-1
 533 013a 14BF     		ite	ne
 534 013c 0023     		movne	r3, #0
 535 013e 0123     		moveq	r3, #1
 536 0140 DBB2     		uxtb	r3, r3
 537 0142 0720     		movs	r0, #7
 538 0144 1946     		mov	r1, r3
 539 0146 FFF7FEFF 		bl	_test_assert
 540 014a 0346     		mov	r3, r0
 541 014c 002B     		cmp	r3, #0
 542 014e 00D0     		beq	.L27
 543              		.loc 6 109 0 is_stmt 0 discriminator 1
 544 0150 5DE3     		b	.L17
 545              	.L27:
 546              		.loc 6 114 0 is_stmt 1
 547 0152 FFF7FEFF 		bl	chSysLock
 548 0156 5648     		ldr	r0, .L75
 549 0158 FFF7FEFF 		bl	chMBGetFreeCountI
 550 015c 0346     		mov	r3, r0
 551 015e 002B     		cmp	r3, #0
 552 0160 14BF     		ite	ne
 553 0162 0023     		movne	r3, #0
 554 0164 0123     		moveq	r3, #1
 555 0166 DBB2     		uxtb	r3, r3
 556 0168 0820     		movs	r0, #8
 557 016a 1946     		mov	r1, r3
 558 016c FFF7FEFF 		bl	_test_assert
 559 0170 0346     		mov	r3, r0
 560 0172 002B     		cmp	r3, #0
 561 0174 02D0     		beq	.L28
 562              		.loc 6 114 0 is_stmt 0 discriminator 1
ARM GAS  C:\Users\Luis\AppData\Local\Temp\ccCpGtGt.s 			page 11


 563 0176 FFF7FEFF 		bl	chSysUnlock
 564 017a 48E3     		b	.L17
 565              	.L28:
 566              		.loc 6 114 0 discriminator 2
 567 017c FFF7FEFF 		bl	chSysUnlock
 568              		.loc 6 115 0 is_stmt 1 discriminator 2
 569 0180 FFF7FEFF 		bl	chSysLock
 570 0184 4A48     		ldr	r0, .L75
 571 0186 FFF7FEFF 		bl	chMBGetUsedCountI
 572 018a 0346     		mov	r3, r0
 573 018c 052B     		cmp	r3, #5
 574 018e 14BF     		ite	ne
 575 0190 0023     		movne	r3, #0
 576 0192 0123     		moveq	r3, #1
 577 0194 DBB2     		uxtb	r3, r3
 578 0196 0920     		movs	r0, #9
 579 0198 1946     		mov	r1, r3
 580 019a FFF7FEFF 		bl	_test_assert
 581 019e 0346     		mov	r3, r0
 582 01a0 002B     		cmp	r3, #0
 583 01a2 02D0     		beq	.L29
 584              		.loc 6 115 0 is_stmt 0 discriminator 1
 585 01a4 FFF7FEFF 		bl	chSysUnlock
 586 01a8 31E3     		b	.L17
 587              	.L29:
 588              		.loc 6 115 0 discriminator 2
 589 01aa FFF7FEFF 		bl	chSysUnlock
 590              		.loc 6 116 0 is_stmt 1 discriminator 2
 591 01ae FFF7FEFF 		bl	chSysLock
 592 01b2 3F4B     		ldr	r3, .L75
 593 01b4 DA68     		ldr	r2, [r3, #12]
 594 01b6 3E4B     		ldr	r3, .L75
 595 01b8 9B68     		ldr	r3, [r3, #8]
 596 01ba 9A42     		cmp	r2, r3
 597 01bc 14BF     		ite	ne
 598 01be 0023     		movne	r3, #0
 599 01c0 0123     		moveq	r3, #1
 600 01c2 DBB2     		uxtb	r3, r3
 601 01c4 0A20     		movs	r0, #10
 602 01c6 1946     		mov	r1, r3
 603 01c8 FFF7FEFF 		bl	_test_assert
 604 01cc 0346     		mov	r3, r0
 605 01ce 002B     		cmp	r3, #0
 606 01d0 02D0     		beq	.L30
 607              		.loc 6 116 0 is_stmt 0 discriminator 1
 608 01d2 FFF7FEFF 		bl	chSysUnlock
 609 01d6 1AE3     		b	.L17
 610              	.L30:
 611              		.loc 6 116 0 discriminator 2
 612 01d8 FFF7FEFF 		bl	chSysUnlock
 613              		.loc 6 121 0 is_stmt 1 discriminator 2
 614 01dc 0023     		movs	r3, #0
 615 01de FB60     		str	r3, [r7, #12]
 616 01e0 1DE0     		b	.L31
 617              	.L33:
 618              		.loc 6 122 0
 619 01e2 3B1D     		adds	r3, r7, #4
ARM GAS  C:\Users\Luis\AppData\Local\Temp\ccCpGtGt.s 			page 12


 620 01e4 3248     		ldr	r0, .L75
 621 01e6 1946     		mov	r1, r3
 622 01e8 4FF0FF32 		mov	r2, #-1
 623 01ec FFF7FEFF 		bl	chMBFetch
 624 01f0 B860     		str	r0, [r7, #8]
 625              		.loc 6 123 0
 626 01f2 BB68     		ldr	r3, [r7, #8]
 627 01f4 002B     		cmp	r3, #0
 628 01f6 14BF     		ite	ne
 629 01f8 0023     		movne	r3, #0
 630 01fa 0123     		moveq	r3, #1
 631 01fc DBB2     		uxtb	r3, r3
 632 01fe 0B20     		movs	r0, #11
 633 0200 1946     		mov	r1, r3
 634 0202 FFF7FEFF 		bl	_test_assert
 635 0206 0346     		mov	r3, r0
 636 0208 002B     		cmp	r3, #0
 637 020a 00D0     		beq	.L32
 638              		.loc 6 123 0 is_stmt 0 discriminator 1
 639 020c FFE2     		b	.L17
 640              	.L32:
 641              		.loc 6 124 0 is_stmt 1
 642 020e 7B68     		ldr	r3, [r7, #4]
 643 0210 DBB2     		uxtb	r3, r3
 644 0212 1846     		mov	r0, r3
 645 0214 FFF7FEFF 		bl	test_emit_token
 646              		.loc 6 121 0
 647 0218 FB68     		ldr	r3, [r7, #12]
 648 021a 0133     		adds	r3, r3, #1
 649 021c FB60     		str	r3, [r7, #12]
 650              	.L31:
 651              		.loc 6 121 0 is_stmt 0 discriminator 1
 652 021e FB68     		ldr	r3, [r7, #12]
 653 0220 042B     		cmp	r3, #4
 654 0222 DED9     		bls	.L33
 655              		.loc 6 126 0 is_stmt 1
 656 0224 0C20     		movs	r0, #12
 657 0226 2349     		ldr	r1, .L75+4
 658 0228 FFF7FEFF 		bl	_test_assert_sequence
 659 022c 0346     		mov	r3, r0
 660 022e 002B     		cmp	r3, #0
 661 0230 00D0     		beq	.L34
 662              		.loc 6 126 0 is_stmt 0 discriminator 1
 663 0232 ECE2     		b	.L17
 664              	.L34:
 665              		.loc 6 131 0 is_stmt 1
 666 0234 FB68     		ldr	r3, [r7, #12]
 667 0236 4233     		adds	r3, r3, #66
 668 0238 1D48     		ldr	r0, .L75
 669 023a 1946     		mov	r1, r3
 670 023c 4FF0FF32 		mov	r2, #-1
 671 0240 FFF7FEFF 		bl	chMBPost
 672 0244 B860     		str	r0, [r7, #8]
 673              		.loc 6 132 0
 674 0246 BB68     		ldr	r3, [r7, #8]
 675 0248 002B     		cmp	r3, #0
 676 024a 14BF     		ite	ne
ARM GAS  C:\Users\Luis\AppData\Local\Temp\ccCpGtGt.s 			page 13


 677 024c 0023     		movne	r3, #0
 678 024e 0123     		moveq	r3, #1
 679 0250 DBB2     		uxtb	r3, r3
 680 0252 0D20     		movs	r0, #13
 681 0254 1946     		mov	r1, r3
 682 0256 FFF7FEFF 		bl	_test_assert
 683 025a 0346     		mov	r3, r0
 684 025c 002B     		cmp	r3, #0
 685 025e 00D0     		beq	.L35
 686              		.loc 6 132 0 is_stmt 0 discriminator 1
 687 0260 D5E2     		b	.L17
 688              	.L35:
 689              		.loc 6 133 0 is_stmt 1
 690 0262 3B1D     		adds	r3, r7, #4
 691 0264 1248     		ldr	r0, .L75
 692 0266 1946     		mov	r1, r3
 693 0268 4FF0FF32 		mov	r2, #-1
 694 026c FFF7FEFF 		bl	chMBFetch
 695 0270 B860     		str	r0, [r7, #8]
 696              		.loc 6 134 0
 697 0272 BB68     		ldr	r3, [r7, #8]
 698 0274 002B     		cmp	r3, #0
 699 0276 14BF     		ite	ne
 700 0278 0023     		movne	r3, #0
 701 027a 0123     		moveq	r3, #1
 702 027c DBB2     		uxtb	r3, r3
 703 027e 0E20     		movs	r0, #14
 704 0280 1946     		mov	r1, r3
 705 0282 FFF7FEFF 		bl	_test_assert
 706 0286 0346     		mov	r3, r0
 707 0288 002B     		cmp	r3, #0
 708 028a 00D0     		beq	.L36
 709              		.loc 6 134 0 is_stmt 0 discriminator 1
 710 028c BFE2     		b	.L17
 711              	.L36:
 712              		.loc 6 135 0 is_stmt 1
 713 028e 084B     		ldr	r3, .L75
 714 0290 1A68     		ldr	r2, [r3]
 715 0292 074B     		ldr	r3, .L75
 716 0294 9B68     		ldr	r3, [r3, #8]
 717 0296 9A42     		cmp	r2, r3
 718 0298 14BF     		ite	ne
 719 029a 0023     		movne	r3, #0
 720 029c 0123     		moveq	r3, #1
 721 029e DBB2     		uxtb	r3, r3
 722 02a0 0F20     		movs	r0, #15
 723 02a2 1946     		mov	r1, r3
 724 02a4 FFF7FEFF 		bl	_test_assert
 725 02a8 0346     		mov	r3, r0
 726 02aa 002B     		cmp	r3, #0
 727 02ac 04D0     		beq	.L37
 728              		.loc 6 135 0 is_stmt 0 discriminator 1
 729 02ae AEE2     		b	.L17
 730              	.L76:
 731              		.align	2
 732              	.L75:
 733 02b0 00000000 		.word	mb1
ARM GAS  C:\Users\Luis\AppData\Local\Temp\ccCpGtGt.s 			page 14


 734 02b4 00000000 		.word	.LC0
 735              	.L37:
 736              		.loc 6 136 0 is_stmt 1
 737 02b8 A94B     		ldr	r3, .L77
 738 02ba 1A68     		ldr	r2, [r3]
 739 02bc A84B     		ldr	r3, .L77
 740 02be DB68     		ldr	r3, [r3, #12]
 741 02c0 9A42     		cmp	r2, r3
 742 02c2 14BF     		ite	ne
 743 02c4 0023     		movne	r3, #0
 744 02c6 0123     		moveq	r3, #1
 745 02c8 DBB2     		uxtb	r3, r3
 746 02ca 1020     		movs	r0, #16
 747 02cc 1946     		mov	r1, r3
 748 02ce FFF7FEFF 		bl	_test_assert
 749 02d2 0346     		mov	r3, r0
 750 02d4 002B     		cmp	r3, #0
 751 02d6 00D0     		beq	.L38
 752              		.loc 6 136 0 is_stmt 0 discriminator 1
 753 02d8 99E2     		b	.L17
 754              	.L38:
 755              		.loc 6 141 0 is_stmt 1
 756 02da 3B1D     		adds	r3, r7, #4
 757 02dc A048     		ldr	r0, .L77
 758 02de 1946     		mov	r1, r3
 759 02e0 0122     		movs	r2, #1
 760 02e2 FFF7FEFF 		bl	chMBFetch
 761 02e6 B860     		str	r0, [r7, #8]
 762              		.loc 6 142 0
 763 02e8 BB68     		ldr	r3, [r7, #8]
 764 02ea B3F1FF3F 		cmp	r3, #-1
 765 02ee 14BF     		ite	ne
 766 02f0 0023     		movne	r3, #0
 767 02f2 0123     		moveq	r3, #1
 768 02f4 DBB2     		uxtb	r3, r3
 769 02f6 1120     		movs	r0, #17
 770 02f8 1946     		mov	r1, r3
 771 02fa FFF7FEFF 		bl	_test_assert
 772 02fe 0346     		mov	r3, r0
 773 0300 002B     		cmp	r3, #0
 774 0302 00D0     		beq	.L39
 775              		.loc 6 142 0 is_stmt 0 discriminator 1
 776 0304 83E2     		b	.L17
 777              	.L39:
 778              		.loc 6 143 0 is_stmt 1
 779 0306 FFF7FEFF 		bl	chSysLock
 780              		.loc 6 144 0
 781 030a 3B1D     		adds	r3, r7, #4
 782 030c 9448     		ldr	r0, .L77
 783 030e 1946     		mov	r1, r3
 784 0310 FFF7FEFF 		bl	chMBFetchI
 785 0314 B860     		str	r0, [r7, #8]
 786              		.loc 6 145 0
 787 0316 FFF7FEFF 		bl	chSysUnlock
 788              		.loc 6 146 0
 789 031a BB68     		ldr	r3, [r7, #8]
 790 031c B3F1FF3F 		cmp	r3, #-1
ARM GAS  C:\Users\Luis\AppData\Local\Temp\ccCpGtGt.s 			page 15


 791 0320 14BF     		ite	ne
 792 0322 0023     		movne	r3, #0
 793 0324 0123     		moveq	r3, #1
 794 0326 DBB2     		uxtb	r3, r3
 795 0328 1220     		movs	r0, #18
 796 032a 1946     		mov	r1, r3
 797 032c FFF7FEFF 		bl	_test_assert
 798 0330 0346     		mov	r3, r0
 799 0332 002B     		cmp	r3, #0
 800 0334 00D0     		beq	.L40
 801              		.loc 6 146 0 is_stmt 0 discriminator 1
 802 0336 6AE2     		b	.L17
 803              	.L40:
 804              		.loc 6 151 0 is_stmt 1
 805 0338 FFF7FEFF 		bl	chSysLock
 806 033c 8848     		ldr	r0, .L77
 807 033e FFF7FEFF 		bl	chMBGetFreeCountI
 808 0342 0346     		mov	r3, r0
 809 0344 052B     		cmp	r3, #5
 810 0346 14BF     		ite	ne
 811 0348 0023     		movne	r3, #0
 812 034a 0123     		moveq	r3, #1
 813 034c DBB2     		uxtb	r3, r3
 814 034e 1320     		movs	r0, #19
 815 0350 1946     		mov	r1, r3
 816 0352 FFF7FEFF 		bl	_test_assert
 817 0356 0346     		mov	r3, r0
 818 0358 002B     		cmp	r3, #0
 819 035a 02D0     		beq	.L41
 820              		.loc 6 151 0 is_stmt 0 discriminator 1
 821 035c FFF7FEFF 		bl	chSysUnlock
 822 0360 55E2     		b	.L17
 823              	.L41:
 824              		.loc 6 151 0 discriminator 2
 825 0362 FFF7FEFF 		bl	chSysUnlock
 826              		.loc 6 152 0 is_stmt 1 discriminator 2
 827 0366 FFF7FEFF 		bl	chSysLock
 828 036a 7D48     		ldr	r0, .L77
 829 036c FFF7FEFF 		bl	chMBGetUsedCountI
 830 0370 0346     		mov	r3, r0
 831 0372 002B     		cmp	r3, #0
 832 0374 14BF     		ite	ne
 833 0376 0023     		movne	r3, #0
 834 0378 0123     		moveq	r3, #1
 835 037a DBB2     		uxtb	r3, r3
 836 037c 1420     		movs	r0, #20
 837 037e 1946     		mov	r1, r3
 838 0380 FFF7FEFF 		bl	_test_assert
 839 0384 0346     		mov	r3, r0
 840 0386 002B     		cmp	r3, #0
 841 0388 02D0     		beq	.L42
 842              		.loc 6 152 0 is_stmt 0 discriminator 1
 843 038a FFF7FEFF 		bl	chSysUnlock
 844 038e 3EE2     		b	.L17
 845              	.L42:
 846              		.loc 6 152 0 discriminator 2
 847 0390 FFF7FEFF 		bl	chSysUnlock
ARM GAS  C:\Users\Luis\AppData\Local\Temp\ccCpGtGt.s 			page 16


 848              		.loc 6 153 0 is_stmt 1 discriminator 2
 849 0394 FFF7FEFF 		bl	chSysLock
 850 0398 714B     		ldr	r3, .L77
 851 039a DA68     		ldr	r2, [r3, #12]
 852 039c 704B     		ldr	r3, .L77
 853 039e 9B68     		ldr	r3, [r3, #8]
 854 03a0 9A42     		cmp	r2, r3
 855 03a2 14BF     		ite	ne
 856 03a4 0023     		movne	r3, #0
 857 03a6 0123     		moveq	r3, #1
 858 03a8 DBB2     		uxtb	r3, r3
 859 03aa 1520     		movs	r0, #21
 860 03ac 1946     		mov	r1, r3
 861 03ae FFF7FEFF 		bl	_test_assert
 862 03b2 0346     		mov	r3, r0
 863 03b4 002B     		cmp	r3, #0
 864 03b6 02D0     		beq	.L43
 865              		.loc 6 153 0 is_stmt 0 discriminator 1
 866 03b8 FFF7FEFF 		bl	chSysUnlock
 867 03bc 27E2     		b	.L17
 868              	.L43:
 869              		.loc 6 153 0 discriminator 2
 870 03be FFF7FEFF 		bl	chSysUnlock
 871              		.loc 6 158 0 is_stmt 1 discriminator 2
 872 03c2 FFF7FEFF 		bl	chSysLock
 873              		.loc 6 159 0 discriminator 2
 874 03c6 6648     		ldr	r0, .L77
 875 03c8 4121     		movs	r1, #65
 876 03ca FFF7FEFF 		bl	chMBPostI
 877 03ce B860     		str	r0, [r7, #8]
 878              		.loc 6 160 0 discriminator 2
 879 03d0 BB68     		ldr	r3, [r7, #8]
 880 03d2 002B     		cmp	r3, #0
 881 03d4 14BF     		ite	ne
 882 03d6 0023     		movne	r3, #0
 883 03d8 0123     		moveq	r3, #1
 884 03da DBB2     		uxtb	r3, r3
 885 03dc 1620     		movs	r0, #22
 886 03de 1946     		mov	r1, r3
 887 03e0 FFF7FEFF 		bl	_test_assert
 888 03e4 0346     		mov	r3, r0
 889 03e6 002B     		cmp	r3, #0
 890 03e8 00D0     		beq	.L44
 891              		.loc 6 160 0 is_stmt 0 discriminator 1
 892 03ea 10E2     		b	.L17
 893              	.L44:
 894              		.loc 6 161 0 is_stmt 1
 895 03ec 5C48     		ldr	r0, .L77
 896 03ee 4221     		movs	r1, #66
 897 03f0 FFF7FEFF 		bl	chMBPostI
 898 03f4 B860     		str	r0, [r7, #8]
 899              		.loc 6 162 0
 900 03f6 BB68     		ldr	r3, [r7, #8]
 901 03f8 002B     		cmp	r3, #0
 902 03fa 14BF     		ite	ne
 903 03fc 0023     		movne	r3, #0
 904 03fe 0123     		moveq	r3, #1
ARM GAS  C:\Users\Luis\AppData\Local\Temp\ccCpGtGt.s 			page 17


 905 0400 DBB2     		uxtb	r3, r3
 906 0402 1720     		movs	r0, #23
 907 0404 1946     		mov	r1, r3
 908 0406 FFF7FEFF 		bl	_test_assert
 909 040a 0346     		mov	r3, r0
 910 040c 002B     		cmp	r3, #0
 911 040e 00D0     		beq	.L45
 912              		.loc 6 162 0 is_stmt 0 discriminator 1
 913 0410 FDE1     		b	.L17
 914              	.L45:
 915              		.loc 6 163 0 is_stmt 1
 916 0412 5348     		ldr	r0, .L77
 917 0414 4321     		movs	r1, #67
 918 0416 FFF7FEFF 		bl	chMBPostI
 919 041a B860     		str	r0, [r7, #8]
 920              		.loc 6 164 0
 921 041c BB68     		ldr	r3, [r7, #8]
 922 041e 002B     		cmp	r3, #0
 923 0420 14BF     		ite	ne
 924 0422 0023     		movne	r3, #0
 925 0424 0123     		moveq	r3, #1
 926 0426 DBB2     		uxtb	r3, r3
 927 0428 1820     		movs	r0, #24
 928 042a 1946     		mov	r1, r3
 929 042c FFF7FEFF 		bl	_test_assert
 930 0430 0346     		mov	r3, r0
 931 0432 002B     		cmp	r3, #0
 932 0434 00D0     		beq	.L46
 933              		.loc 6 164 0 is_stmt 0 discriminator 1
 934 0436 EAE1     		b	.L17
 935              	.L46:
 936              		.loc 6 165 0 is_stmt 1
 937 0438 4948     		ldr	r0, .L77
 938 043a 4421     		movs	r1, #68
 939 043c FFF7FEFF 		bl	chMBPostI
 940 0440 B860     		str	r0, [r7, #8]
 941              		.loc 6 166 0
 942 0442 BB68     		ldr	r3, [r7, #8]
 943 0444 002B     		cmp	r3, #0
 944 0446 14BF     		ite	ne
 945 0448 0023     		movne	r3, #0
 946 044a 0123     		moveq	r3, #1
 947 044c DBB2     		uxtb	r3, r3
 948 044e 1920     		movs	r0, #25
 949 0450 1946     		mov	r1, r3
 950 0452 FFF7FEFF 		bl	_test_assert
 951 0456 0346     		mov	r3, r0
 952 0458 002B     		cmp	r3, #0
 953 045a 00D0     		beq	.L47
 954              		.loc 6 166 0 is_stmt 0 discriminator 1
 955 045c D7E1     		b	.L17
 956              	.L47:
 957              		.loc 6 167 0 is_stmt 1
 958 045e 4048     		ldr	r0, .L77
 959 0460 4521     		movs	r1, #69
 960 0462 FFF7FEFF 		bl	chMBPostI
 961 0466 B860     		str	r0, [r7, #8]
ARM GAS  C:\Users\Luis\AppData\Local\Temp\ccCpGtGt.s 			page 18


 962              		.loc 6 168 0
 963 0468 FFF7FEFF 		bl	chSysUnlock
 964              		.loc 6 169 0
 965 046c BB68     		ldr	r3, [r7, #8]
 966 046e 002B     		cmp	r3, #0
 967 0470 14BF     		ite	ne
 968 0472 0023     		movne	r3, #0
 969 0474 0123     		moveq	r3, #1
 970 0476 DBB2     		uxtb	r3, r3
 971 0478 1A20     		movs	r0, #26
 972 047a 1946     		mov	r1, r3
 973 047c FFF7FEFF 		bl	_test_assert
 974 0480 0346     		mov	r3, r0
 975 0482 002B     		cmp	r3, #0
 976 0484 00D0     		beq	.L48
 977              		.loc 6 169 0 is_stmt 0 discriminator 1
 978 0486 C2E1     		b	.L17
 979              	.L48:
 980              		.loc 6 170 0 is_stmt 1
 981 0488 354B     		ldr	r3, .L77
 982 048a DA68     		ldr	r2, [r3, #12]
 983 048c 344B     		ldr	r3, .L77
 984 048e 9B68     		ldr	r3, [r3, #8]
 985 0490 9A42     		cmp	r2, r3
 986 0492 14BF     		ite	ne
 987 0494 0023     		movne	r3, #0
 988 0496 0123     		moveq	r3, #1
 989 0498 DBB2     		uxtb	r3, r3
 990 049a 1B20     		movs	r0, #27
 991 049c 1946     		mov	r1, r3
 992 049e FFF7FEFF 		bl	_test_assert
 993 04a2 0346     		mov	r3, r0
 994 04a4 002B     		cmp	r3, #0
 995 04a6 00D0     		beq	.L49
 996              		.loc 6 170 0 is_stmt 0 discriminator 1
 997 04a8 B1E1     		b	.L17
 998              	.L49:
 999              		.loc 6 171 0 is_stmt 1
 1000 04aa 0023     		movs	r3, #0
 1001 04ac FB60     		str	r3, [r7, #12]
 1002 04ae 1FE0     		b	.L50
 1003              	.L52:
 1004              		.loc 6 172 0
 1005 04b0 FFF7FEFF 		bl	chSysLock
 1006              		.loc 6 173 0
 1007 04b4 3B1D     		adds	r3, r7, #4
 1008 04b6 2A48     		ldr	r0, .L77
 1009 04b8 1946     		mov	r1, r3
 1010 04ba FFF7FEFF 		bl	chMBFetchI
 1011 04be B860     		str	r0, [r7, #8]
 1012              		.loc 6 174 0
 1013 04c0 FFF7FEFF 		bl	chSysUnlock
 1014              		.loc 6 175 0
 1015 04c4 BB68     		ldr	r3, [r7, #8]
 1016 04c6 002B     		cmp	r3, #0
 1017 04c8 14BF     		ite	ne
 1018 04ca 0023     		movne	r3, #0
ARM GAS  C:\Users\Luis\AppData\Local\Temp\ccCpGtGt.s 			page 19


 1019 04cc 0123     		moveq	r3, #1
 1020 04ce DBB2     		uxtb	r3, r3
 1021 04d0 1C20     		movs	r0, #28
 1022 04d2 1946     		mov	r1, r3
 1023 04d4 FFF7FEFF 		bl	_test_assert
 1024 04d8 0346     		mov	r3, r0
 1025 04da 002B     		cmp	r3, #0
 1026 04dc 00D0     		beq	.L51
 1027              		.loc 6 175 0 is_stmt 0 discriminator 1
 1028 04de 96E1     		b	.L17
 1029              	.L51:
 1030              		.loc 6 176 0 is_stmt 1
 1031 04e0 7B68     		ldr	r3, [r7, #4]
 1032 04e2 DBB2     		uxtb	r3, r3
 1033 04e4 1846     		mov	r0, r3
 1034 04e6 FFF7FEFF 		bl	test_emit_token
 1035              		.loc 6 171 0
 1036 04ea FB68     		ldr	r3, [r7, #12]
 1037 04ec 0133     		adds	r3, r3, #1
 1038 04ee FB60     		str	r3, [r7, #12]
 1039              	.L50:
 1040              		.loc 6 171 0 is_stmt 0 discriminator 1
 1041 04f0 FB68     		ldr	r3, [r7, #12]
 1042 04f2 042B     		cmp	r3, #4
 1043 04f4 DCD9     		bls	.L52
 1044              		.loc 6 178 0 is_stmt 1
 1045 04f6 1D20     		movs	r0, #29
 1046 04f8 1A49     		ldr	r1, .L77+4
 1047 04fa FFF7FEFF 		bl	_test_assert_sequence
 1048 04fe 0346     		mov	r3, r0
 1049 0500 002B     		cmp	r3, #0
 1050 0502 00D0     		beq	.L53
 1051              		.loc 6 178 0 is_stmt 0 discriminator 1
 1052 0504 83E1     		b	.L17
 1053              	.L53:
 1054              		.loc 6 179 0 is_stmt 1
 1055 0506 FFF7FEFF 		bl	chSysLock
 1056 050a 1548     		ldr	r0, .L77
 1057 050c FFF7FEFF 		bl	chMBGetFreeCountI
 1058 0510 0346     		mov	r3, r0
 1059 0512 052B     		cmp	r3, #5
 1060 0514 14BF     		ite	ne
 1061 0516 0023     		movne	r3, #0
 1062 0518 0123     		moveq	r3, #1
 1063 051a DBB2     		uxtb	r3, r3
 1064 051c 1E20     		movs	r0, #30
 1065 051e 1946     		mov	r1, r3
 1066 0520 FFF7FEFF 		bl	_test_assert
 1067 0524 0346     		mov	r3, r0
 1068 0526 002B     		cmp	r3, #0
 1069 0528 02D0     		beq	.L54
 1070              		.loc 6 179 0 is_stmt 0 discriminator 1
 1071 052a FFF7FEFF 		bl	chSysUnlock
 1072 052e 6EE1     		b	.L17
 1073              	.L54:
 1074              		.loc 6 179 0 discriminator 2
 1075 0530 FFF7FEFF 		bl	chSysUnlock
ARM GAS  C:\Users\Luis\AppData\Local\Temp\ccCpGtGt.s 			page 20


 1076              		.loc 6 180 0 is_stmt 1 discriminator 2
 1077 0534 FFF7FEFF 		bl	chSysLock
 1078 0538 0948     		ldr	r0, .L77
 1079 053a FFF7FEFF 		bl	chMBGetUsedCountI
 1080 053e 0346     		mov	r3, r0
 1081 0540 002B     		cmp	r3, #0
 1082 0542 14BF     		ite	ne
 1083 0544 0023     		movne	r3, #0
 1084 0546 0123     		moveq	r3, #1
 1085 0548 DBB2     		uxtb	r3, r3
 1086 054a 1F20     		movs	r0, #31
 1087 054c 1946     		mov	r1, r3
 1088 054e FFF7FEFF 		bl	_test_assert
 1089 0552 0346     		mov	r3, r0
 1090 0554 002B     		cmp	r3, #0
 1091 0556 07D0     		beq	.L55
 1092              		.loc 6 180 0 is_stmt 0 discriminator 1
 1093 0558 FFF7FEFF 		bl	chSysUnlock
 1094 055c 57E1     		b	.L17
 1095              	.L78:
 1096 055e 00BF     		.align	2
 1097              	.L77:
 1098 0560 00000000 		.word	mb1
 1099 0564 00000000 		.word	.LC0
 1100              	.L55:
 1101              		.loc 6 180 0 discriminator 2
 1102 0568 FFF7FEFF 		bl	chSysUnlock
 1103              		.loc 6 181 0 is_stmt 1 discriminator 2
 1104 056c A94B     		ldr	r3, .L79
 1105 056e DA68     		ldr	r2, [r3, #12]
 1106 0570 A84B     		ldr	r3, .L79
 1107 0572 9B68     		ldr	r3, [r3, #8]
 1108 0574 9A42     		cmp	r2, r3
 1109 0576 14BF     		ite	ne
 1110 0578 0023     		movne	r3, #0
 1111 057a 0123     		moveq	r3, #1
 1112 057c DBB2     		uxtb	r3, r3
 1113 057e 2020     		movs	r0, #32
 1114 0580 1946     		mov	r1, r3
 1115 0582 FFF7FEFF 		bl	_test_assert
 1116 0586 0346     		mov	r3, r0
 1117 0588 002B     		cmp	r3, #0
 1118 058a 00D0     		beq	.L56
 1119              		.loc 6 181 0 is_stmt 0 discriminator 1
 1120 058c 3FE1     		b	.L17
 1121              	.L56:
 1122              		.loc 6 183 0 is_stmt 1
 1123 058e FFF7FEFF 		bl	chSysLock
 1124              		.loc 6 184 0
 1125 0592 A048     		ldr	r0, .L79
 1126 0594 4521     		movs	r1, #69
 1127 0596 FFF7FEFF 		bl	chMBPostAheadI
 1128 059a B860     		str	r0, [r7, #8]
 1129              		.loc 6 185 0
 1130 059c BB68     		ldr	r3, [r7, #8]
 1131 059e 002B     		cmp	r3, #0
 1132 05a0 14BF     		ite	ne
ARM GAS  C:\Users\Luis\AppData\Local\Temp\ccCpGtGt.s 			page 21


 1133 05a2 0023     		movne	r3, #0
 1134 05a4 0123     		moveq	r3, #1
 1135 05a6 DBB2     		uxtb	r3, r3
 1136 05a8 2120     		movs	r0, #33
 1137 05aa 1946     		mov	r1, r3
 1138 05ac FFF7FEFF 		bl	_test_assert
 1139 05b0 0346     		mov	r3, r0
 1140 05b2 002B     		cmp	r3, #0
 1141 05b4 00D0     		beq	.L57
 1142              		.loc 6 185 0 is_stmt 0 discriminator 1
 1143 05b6 2AE1     		b	.L17
 1144              	.L57:
 1145              		.loc 6 186 0 is_stmt 1
 1146 05b8 9648     		ldr	r0, .L79
 1147 05ba 4421     		movs	r1, #68
 1148 05bc FFF7FEFF 		bl	chMBPostAheadI
 1149 05c0 B860     		str	r0, [r7, #8]
 1150              		.loc 6 187 0
 1151 05c2 BB68     		ldr	r3, [r7, #8]
 1152 05c4 002B     		cmp	r3, #0
 1153 05c6 14BF     		ite	ne
 1154 05c8 0023     		movne	r3, #0
 1155 05ca 0123     		moveq	r3, #1
 1156 05cc DBB2     		uxtb	r3, r3
 1157 05ce 2220     		movs	r0, #34
 1158 05d0 1946     		mov	r1, r3
 1159 05d2 FFF7FEFF 		bl	_test_assert
 1160 05d6 0346     		mov	r3, r0
 1161 05d8 002B     		cmp	r3, #0
 1162 05da 00D0     		beq	.L58
 1163              		.loc 6 187 0 is_stmt 0 discriminator 1
 1164 05dc 17E1     		b	.L17
 1165              	.L58:
 1166              		.loc 6 188 0 is_stmt 1
 1167 05de 8D48     		ldr	r0, .L79
 1168 05e0 4321     		movs	r1, #67
 1169 05e2 FFF7FEFF 		bl	chMBPostAheadI
 1170 05e6 B860     		str	r0, [r7, #8]
 1171              		.loc 6 189 0
 1172 05e8 BB68     		ldr	r3, [r7, #8]
 1173 05ea 002B     		cmp	r3, #0
 1174 05ec 14BF     		ite	ne
 1175 05ee 0023     		movne	r3, #0
 1176 05f0 0123     		moveq	r3, #1
 1177 05f2 DBB2     		uxtb	r3, r3
 1178 05f4 2320     		movs	r0, #35
 1179 05f6 1946     		mov	r1, r3
 1180 05f8 FFF7FEFF 		bl	_test_assert
 1181 05fc 0346     		mov	r3, r0
 1182 05fe 002B     		cmp	r3, #0
 1183 0600 00D0     		beq	.L59
 1184              		.loc 6 189 0 is_stmt 0 discriminator 1
 1185 0602 04E1     		b	.L17
 1186              	.L59:
 1187              		.loc 6 190 0 is_stmt 1
 1188 0604 8348     		ldr	r0, .L79
 1189 0606 4221     		movs	r1, #66
ARM GAS  C:\Users\Luis\AppData\Local\Temp\ccCpGtGt.s 			page 22


 1190 0608 FFF7FEFF 		bl	chMBPostAheadI
 1191 060c B860     		str	r0, [r7, #8]
 1192              		.loc 6 191 0
 1193 060e BB68     		ldr	r3, [r7, #8]
 1194 0610 002B     		cmp	r3, #0
 1195 0612 14BF     		ite	ne
 1196 0614 0023     		movne	r3, #0
 1197 0616 0123     		moveq	r3, #1
 1198 0618 DBB2     		uxtb	r3, r3
 1199 061a 2420     		movs	r0, #36
 1200 061c 1946     		mov	r1, r3
 1201 061e FFF7FEFF 		bl	_test_assert
 1202 0622 0346     		mov	r3, r0
 1203 0624 002B     		cmp	r3, #0
 1204 0626 00D0     		beq	.L60
 1205              		.loc 6 191 0 is_stmt 0 discriminator 1
 1206 0628 F1E0     		b	.L17
 1207              	.L60:
 1208              		.loc 6 192 0 is_stmt 1
 1209 062a 7A48     		ldr	r0, .L79
 1210 062c 4121     		movs	r1, #65
 1211 062e FFF7FEFF 		bl	chMBPostAheadI
 1212 0632 B860     		str	r0, [r7, #8]
 1213              		.loc 6 193 0
 1214 0634 FFF7FEFF 		bl	chSysUnlock
 1215              		.loc 6 194 0
 1216 0638 BB68     		ldr	r3, [r7, #8]
 1217 063a 002B     		cmp	r3, #0
 1218 063c 14BF     		ite	ne
 1219 063e 0023     		movne	r3, #0
 1220 0640 0123     		moveq	r3, #1
 1221 0642 DBB2     		uxtb	r3, r3
 1222 0644 2520     		movs	r0, #37
 1223 0646 1946     		mov	r1, r3
 1224 0648 FFF7FEFF 		bl	_test_assert
 1225 064c 0346     		mov	r3, r0
 1226 064e 002B     		cmp	r3, #0
 1227 0650 00D0     		beq	.L61
 1228              		.loc 6 194 0 is_stmt 0 discriminator 1
 1229 0652 DCE0     		b	.L17
 1230              	.L61:
 1231              		.loc 6 195 0 is_stmt 1
 1232 0654 6F4B     		ldr	r3, .L79
 1233 0656 DA68     		ldr	r2, [r3, #12]
 1234 0658 6E4B     		ldr	r3, .L79
 1235 065a 9B68     		ldr	r3, [r3, #8]
 1236 065c 9A42     		cmp	r2, r3
 1237 065e 14BF     		ite	ne
 1238 0660 0023     		movne	r3, #0
 1239 0662 0123     		moveq	r3, #1
 1240 0664 DBB2     		uxtb	r3, r3
 1241 0666 2620     		movs	r0, #38
 1242 0668 1946     		mov	r1, r3
 1243 066a FFF7FEFF 		bl	_test_assert
 1244 066e 0346     		mov	r3, r0
 1245 0670 002B     		cmp	r3, #0
 1246 0672 00D0     		beq	.L62
ARM GAS  C:\Users\Luis\AppData\Local\Temp\ccCpGtGt.s 			page 23


 1247              		.loc 6 195 0 is_stmt 0 discriminator 1
 1248 0674 CBE0     		b	.L17
 1249              	.L62:
 1250              		.loc 6 196 0 is_stmt 1
 1251 0676 0023     		movs	r3, #0
 1252 0678 FB60     		str	r3, [r7, #12]
 1253 067a 1FE0     		b	.L63
 1254              	.L65:
 1255              		.loc 6 197 0
 1256 067c FFF7FEFF 		bl	chSysLock
 1257              		.loc 6 198 0
 1258 0680 3B1D     		adds	r3, r7, #4
 1259 0682 6448     		ldr	r0, .L79
 1260 0684 1946     		mov	r1, r3
 1261 0686 FFF7FEFF 		bl	chMBFetchI
 1262 068a B860     		str	r0, [r7, #8]
 1263              		.loc 6 199 0
 1264 068c FFF7FEFF 		bl	chSysUnlock
 1265              		.loc 6 200 0
 1266 0690 BB68     		ldr	r3, [r7, #8]
 1267 0692 002B     		cmp	r3, #0
 1268 0694 14BF     		ite	ne
 1269 0696 0023     		movne	r3, #0
 1270 0698 0123     		moveq	r3, #1
 1271 069a DBB2     		uxtb	r3, r3
 1272 069c 2720     		movs	r0, #39
 1273 069e 1946     		mov	r1, r3
 1274 06a0 FFF7FEFF 		bl	_test_assert
 1275 06a4 0346     		mov	r3, r0
 1276 06a6 002B     		cmp	r3, #0
 1277 06a8 00D0     		beq	.L64
 1278              		.loc 6 200 0 is_stmt 0 discriminator 1
 1279 06aa B0E0     		b	.L17
 1280              	.L64:
 1281              		.loc 6 201 0 is_stmt 1
 1282 06ac 7B68     		ldr	r3, [r7, #4]
 1283 06ae DBB2     		uxtb	r3, r3
 1284 06b0 1846     		mov	r0, r3
 1285 06b2 FFF7FEFF 		bl	test_emit_token
 1286              		.loc 6 196 0
 1287 06b6 FB68     		ldr	r3, [r7, #12]
 1288 06b8 0133     		adds	r3, r3, #1
 1289 06ba FB60     		str	r3, [r7, #12]
 1290              	.L63:
 1291              		.loc 6 196 0 is_stmt 0 discriminator 1
 1292 06bc FB68     		ldr	r3, [r7, #12]
 1293 06be 042B     		cmp	r3, #4
 1294 06c0 DCD9     		bls	.L65
 1295              		.loc 6 203 0 is_stmt 1
 1296 06c2 2820     		movs	r0, #40
 1297 06c4 5449     		ldr	r1, .L79+4
 1298 06c6 FFF7FEFF 		bl	_test_assert_sequence
 1299 06ca 0346     		mov	r3, r0
 1300 06cc 002B     		cmp	r3, #0
 1301 06ce 00D0     		beq	.L66
 1302              		.loc 6 203 0 is_stmt 0 discriminator 1
 1303 06d0 9DE0     		b	.L17
ARM GAS  C:\Users\Luis\AppData\Local\Temp\ccCpGtGt.s 			page 24


 1304              	.L66:
 1305              		.loc 6 204 0 is_stmt 1
 1306 06d2 FFF7FEFF 		bl	chSysLock
 1307 06d6 4F48     		ldr	r0, .L79
 1308 06d8 FFF7FEFF 		bl	chMBGetFreeCountI
 1309 06dc 0346     		mov	r3, r0
 1310 06de 052B     		cmp	r3, #5
 1311 06e0 14BF     		ite	ne
 1312 06e2 0023     		movne	r3, #0
 1313 06e4 0123     		moveq	r3, #1
 1314 06e6 DBB2     		uxtb	r3, r3
 1315 06e8 2920     		movs	r0, #41
 1316 06ea 1946     		mov	r1, r3
 1317 06ec FFF7FEFF 		bl	_test_assert
 1318 06f0 0346     		mov	r3, r0
 1319 06f2 002B     		cmp	r3, #0
 1320 06f4 02D0     		beq	.L67
 1321              		.loc 6 204 0 is_stmt 0 discriminator 1
 1322 06f6 FFF7FEFF 		bl	chSysUnlock
 1323 06fa 88E0     		b	.L17
 1324              	.L67:
 1325              		.loc 6 204 0 discriminator 2
 1326 06fc FFF7FEFF 		bl	chSysUnlock
 1327              		.loc 6 205 0 is_stmt 1 discriminator 2
 1328 0700 FFF7FEFF 		bl	chSysLock
 1329 0704 4348     		ldr	r0, .L79
 1330 0706 FFF7FEFF 		bl	chMBGetUsedCountI
 1331 070a 0346     		mov	r3, r0
 1332 070c 002B     		cmp	r3, #0
 1333 070e 14BF     		ite	ne
 1334 0710 0023     		movne	r3, #0
 1335 0712 0123     		moveq	r3, #1
 1336 0714 DBB2     		uxtb	r3, r3
 1337 0716 2A20     		movs	r0, #42
 1338 0718 1946     		mov	r1, r3
 1339 071a FFF7FEFF 		bl	_test_assert
 1340 071e 0346     		mov	r3, r0
 1341 0720 002B     		cmp	r3, #0
 1342 0722 02D0     		beq	.L68
 1343              		.loc 6 205 0 is_stmt 0 discriminator 1
 1344 0724 FFF7FEFF 		bl	chSysUnlock
 1345 0728 71E0     		b	.L17
 1346              	.L68:
 1347              		.loc 6 205 0 discriminator 2
 1348 072a FFF7FEFF 		bl	chSysUnlock
 1349              		.loc 6 206 0 is_stmt 1 discriminator 2
 1350 072e 394B     		ldr	r3, .L79
 1351 0730 DA68     		ldr	r2, [r3, #12]
 1352 0732 384B     		ldr	r3, .L79
 1353 0734 9B68     		ldr	r3, [r3, #8]
 1354 0736 9A42     		cmp	r2, r3
 1355 0738 14BF     		ite	ne
 1356 073a 0023     		movne	r3, #0
 1357 073c 0123     		moveq	r3, #1
 1358 073e DBB2     		uxtb	r3, r3
 1359 0740 2B20     		movs	r0, #43
 1360 0742 1946     		mov	r1, r3
ARM GAS  C:\Users\Luis\AppData\Local\Temp\ccCpGtGt.s 			page 25


 1361 0744 FFF7FEFF 		bl	_test_assert
 1362 0748 0346     		mov	r3, r0
 1363 074a 002B     		cmp	r3, #0
 1364 074c 00D0     		beq	.L69
 1365              		.loc 6 206 0 is_stmt 0 discriminator 1
 1366 074e 5EE0     		b	.L17
 1367              	.L69:
 1368              		.loc 6 211 0 is_stmt 1
 1369 0750 3048     		ldr	r0, .L79
 1370 0752 FFF7FEFF 		bl	chMBReset
 1371              		.loc 6 216 0
 1372 0756 FFF7FEFF 		bl	chSysLock
 1373 075a 2E48     		ldr	r0, .L79
 1374 075c FFF7FEFF 		bl	chMBGetFreeCountI
 1375 0760 0346     		mov	r3, r0
 1376 0762 052B     		cmp	r3, #5
 1377 0764 14BF     		ite	ne
 1378 0766 0023     		movne	r3, #0
 1379 0768 0123     		moveq	r3, #1
 1380 076a DBB2     		uxtb	r3, r3
 1381 076c 2C20     		movs	r0, #44
 1382 076e 1946     		mov	r1, r3
 1383 0770 FFF7FEFF 		bl	_test_assert
 1384 0774 0346     		mov	r3, r0
 1385 0776 002B     		cmp	r3, #0
 1386 0778 02D0     		beq	.L70
 1387              		.loc 6 216 0 is_stmt 0 discriminator 1
 1388 077a FFF7FEFF 		bl	chSysUnlock
 1389 077e 46E0     		b	.L17
 1390              	.L70:
 1391              		.loc 6 216 0 discriminator 2
 1392 0780 FFF7FEFF 		bl	chSysUnlock
 1393              		.loc 6 217 0 is_stmt 1 discriminator 2
 1394 0784 FFF7FEFF 		bl	chSysLock
 1395 0788 2248     		ldr	r0, .L79
 1396 078a FFF7FEFF 		bl	chMBGetUsedCountI
 1397 078e 0346     		mov	r3, r0
 1398 0790 002B     		cmp	r3, #0
 1399 0792 14BF     		ite	ne
 1400 0794 0023     		movne	r3, #0
 1401 0796 0123     		moveq	r3, #1
 1402 0798 DBB2     		uxtb	r3, r3
 1403 079a 2D20     		movs	r0, #45
 1404 079c 1946     		mov	r1, r3
 1405 079e FFF7FEFF 		bl	_test_assert
 1406 07a2 0346     		mov	r3, r0
 1407 07a4 002B     		cmp	r3, #0
 1408 07a6 02D0     		beq	.L71
 1409              		.loc 6 217 0 is_stmt 0 discriminator 1
 1410 07a8 FFF7FEFF 		bl	chSysUnlock
 1411 07ac 2FE0     		b	.L17
 1412              	.L71:
 1413              		.loc 6 217 0 discriminator 2
 1414 07ae FFF7FEFF 		bl	chSysUnlock
 1415              		.loc 6 218 0 is_stmt 1 discriminator 2
 1416 07b2 FFF7FEFF 		bl	chSysLock
 1417 07b6 174B     		ldr	r3, .L79
ARM GAS  C:\Users\Luis\AppData\Local\Temp\ccCpGtGt.s 			page 26


 1418 07b8 1A68     		ldr	r2, [r3]
 1419 07ba 164B     		ldr	r3, .L79
 1420 07bc 9B68     		ldr	r3, [r3, #8]
 1421 07be 9A42     		cmp	r2, r3
 1422 07c0 14BF     		ite	ne
 1423 07c2 0023     		movne	r3, #0
 1424 07c4 0123     		moveq	r3, #1
 1425 07c6 DBB2     		uxtb	r3, r3
 1426 07c8 2E20     		movs	r0, #46
 1427 07ca 1946     		mov	r1, r3
 1428 07cc FFF7FEFF 		bl	_test_assert
 1429 07d0 0346     		mov	r3, r0
 1430 07d2 002B     		cmp	r3, #0
 1431 07d4 02D0     		beq	.L72
 1432              		.loc 6 218 0 is_stmt 0 discriminator 1
 1433 07d6 FFF7FEFF 		bl	chSysUnlock
 1434 07da 18E0     		b	.L17
 1435              	.L72:
 1436              		.loc 6 218 0 discriminator 2
 1437 07dc FFF7FEFF 		bl	chSysUnlock
 1438              		.loc 6 219 0 is_stmt 1 discriminator 2
 1439 07e0 FFF7FEFF 		bl	chSysLock
 1440 07e4 0B4B     		ldr	r3, .L79
 1441 07e6 1A68     		ldr	r2, [r3]
 1442 07e8 0A4B     		ldr	r3, .L79
 1443 07ea DB68     		ldr	r3, [r3, #12]
 1444 07ec 9A42     		cmp	r2, r3
 1445 07ee 14BF     		ite	ne
 1446 07f0 0023     		movne	r3, #0
 1447 07f2 0123     		moveq	r3, #1
 1448 07f4 DBB2     		uxtb	r3, r3
 1449 07f6 2F20     		movs	r0, #47
 1450 07f8 1946     		mov	r1, r3
 1451 07fa FFF7FEFF 		bl	_test_assert
 1452 07fe 0346     		mov	r3, r0
 1453 0800 002B     		cmp	r3, #0
 1454 0802 02D0     		beq	.L73
 1455              		.loc 6 219 0 is_stmt 0 discriminator 1
 1456 0804 FFF7FEFF 		bl	chSysUnlock
 1457 0808 01E0     		b	.L17
 1458              	.L73:
 1459              		.loc 6 219 0 discriminator 2
 1460 080a FFF7FEFF 		bl	chSysUnlock
 1461              	.L17:
 1462              		.loc 6 220 0 is_stmt 1
 1463 080e 1037     		adds	r7, r7, #16
 1464 0810 BD46     		mov	sp, r7
 1465              		@ sp needed
 1466 0812 80BD     		pop	{r7, pc}
 1467              	.L80:
 1468              		.align	2
 1469              	.L79:
 1470 0814 00000000 		.word	mb1
 1471 0818 00000000 		.word	.LC0
 1472              		.cfi_endproc
 1473              	.LFE230:
 1474              		.size	mbox1_execute, .-mbox1_execute
ARM GAS  C:\Users\Luis\AppData\Local\Temp\ccCpGtGt.s 			page 27


 1475              		.global	testmbox1
 1476 081c AFF30080 		.section	.rodata
 1477 0006 0000     		.align	2
 1478              	.LC1:
 1479 0008 4D61696C 		.ascii	"Mailboxes, queuing and timeouts\000"
 1479      626F7865 
 1479      732C2071 
 1479      75657569 
 1479      6E672061 
 1480              		.section	.rodata.testmbox1,"a",%progbits
 1481              		.align	2
 1482              		.type	testmbox1, %object
 1483              		.size	testmbox1, 16
 1484              	testmbox1:
 1485 0000 08000000 		.word	.LC1
 1486 0004 00000000 		.word	mbox1_setup
 1487 0008 00000000 		.word	0
 1488 000c 00000000 		.word	mbox1_execute
 1489              		.global	patternmbox
 1490              		.section	.rodata.patternmbox,"a",%progbits
 1491              		.align	2
 1492              		.type	patternmbox, %object
 1493              		.size	patternmbox, 8
 1494              	patternmbox:
 1495 0000 00000000 		.word	testmbox1
 1496 0004 00000000 		.word	0
 1497              		.section	.rodata.__func__.5842,"a",%progbits
 1498              		.align	2
 1499              		.type	__func__.5842, %object
 1500              		.size	__func__.5842, 12
 1501              	__func__.5842:
 1502 0000 63685379 		.ascii	"chSysUnlock\000"
 1502      73556E6C 
 1502      6F636B00 
 1503              		.text
 1504              	.Letext0:
 1505              		.file 7 "c:\\emtechesdk\\gcc\\lib\\gcc\\arm-none-eabi\\4.8.3\\include\\stddef.h"
 1506              		.file 8 "c:\\emtechesdk\\gcc\\arm-none-eabi\\include\\stdint.h"
 1507              		.file 9 "../../ChibiOS/os/rt/ports/ARMCMx/compilers/GCC/chtypes.h"
 1508              		.file 10 "../../ChibiOS/os/rt/include/chsystypes.h"
 1509              		.file 11 "../../ChibiOS/os/rt/include/chschd.h"
 1510              		.file 12 "../../ChibiOS/os/rt/ports/ARMCMx/chcore.h"
 1511              		.file 13 "../../ChibiOS/os/rt/include/chdebug.h"
 1512              		.file 14 "../../ChibiOS/os/rt/include/chtm.h"
 1513              		.file 15 "../../ChibiOS/os/rt/include/chstats.h"
 1514              		.file 16 "../../ChibiOS/os/rt/include/chmtx.h"
 1515              		.file 17 "../../ChibiOS/test/rt/test.h"
 1516              		.file 18 "../../ChibiOS/os/ext/CMSIS/include/core_cm4.h"