ARM GAS  C:\Users\Luis\AppData\Local\Temp\ccEHI8EP.s 			page 1


   1              		.syntax unified
   2              		.cpu cortex-m4
   3              		.fpu softvfp
   4              		.eabi_attribute 20, 1
   5              		.eabi_attribute 21, 1
   6              		.eabi_attribute 23, 3
   7              		.eabi_attribute 24, 1
   8              		.eabi_attribute 25, 1
   9              		.eabi_attribute 26, 1
  10              		.eabi_attribute 30, 6
  11              		.eabi_attribute 34, 1
  12              		.eabi_attribute 18, 4
  13              		.thumb
  14              		.file	"timers.c"
  15              		.text
  16              	.Ltext0:
  17              		.cfi_sections	.debug_frame
  18              		.section	.text.osalSysHalt,"ax",%progbits
  19              		.align	2
  20              		.p2align 4,,15
  21              		.thumb
  22              		.thumb_func
  23              		.type	osalSysHalt, %function
  24              	osalSysHalt:
  25              	.LFB230:
  26              		.file 1 "../../ChibiOS/os/hal/osal/rt/osal.h"
  27              		.loc 1 460 0
  28              		.cfi_startproc
  29              		@ args = 0, pretend = 0, frame = 8
  30              		@ frame_needed = 1, uses_anonymous_args = 0
  31 0000 80B5     		push	{r7, lr}
  32              		.cfi_def_cfa_offset 8
  33              		.cfi_offset 7, -8
  34              		.cfi_offset 14, -4
  35 0002 82B0     		sub	sp, sp, #8
  36              		.cfi_def_cfa_offset 16
  37 0004 00AF     		add	r7, sp, #0
  38              		.cfi_def_cfa_register 7
  39 0006 7860     		str	r0, [r7, #4]
  40              		.loc 1 462 0
  41 0008 7868     		ldr	r0, [r7, #4]
  42 000a FFF7FEFF 		bl	chSysHalt
  43              		.loc 1 463 0
  44 000e 0837     		adds	r7, r7, #8
  45 0010 BD46     		mov	sp, r7
  46              		@ sp needed
  47 0012 80BD     		pop	{r7, pc}
  48              		.cfi_endproc
  49              	.LFE230:
  50              		.size	osalSysHalt, .-osalSysHalt
  51 0014 AFF30080 		.section	.bss.next_timeout,"aw",%nobits
  51      AFF30080 
  51      AFF30080 
  52              		.align	2
  53              		.type	next_timeout, %object
  54              		.size	next_timeout, 4
  55              	next_timeout:
ARM GAS  C:\Users\Luis\AppData\Local\Temp\ccEHI8EP.s 			page 2


  56 0000 00000000 		.space	4
  57              		.section	.bss.tcpip_tcp_timer_active,"aw",%nobits
  58              		.align	2
  59              		.type	tcpip_tcp_timer_active, %object
  60              		.size	tcpip_tcp_timer_active, 4
  61              	tcpip_tcp_timer_active:
  62 0000 00000000 		.space	4
  63              		.section	.text.tcpip_tcp_timer,"ax",%progbits
  64              		.align	2
  65              		.p2align 4,,15
  66              		.thumb
  67              		.thumb_func
  68              		.type	tcpip_tcp_timer, %function
  69              	tcpip_tcp_timer:
  70              	.LFB260:
  71              		.file 2 "../../ChibiOS/ext/lwip/src/core/timers.c"
  72              		.loc 2 80 0
  73              		.cfi_startproc
  74              		@ args = 0, pretend = 0, frame = 8
  75              		@ frame_needed = 1, uses_anonymous_args = 0
  76 0000 80B5     		push	{r7, lr}
  77              		.cfi_def_cfa_offset 8
  78              		.cfi_offset 7, -8
  79              		.cfi_offset 14, -4
  80 0002 82B0     		sub	sp, sp, #8
  81              		.cfi_def_cfa_offset 16
  82 0004 00AF     		add	r7, sp, #0
  83              		.cfi_def_cfa_register 7
  84 0006 7860     		str	r0, [r7, #4]
  85              		.loc 2 84 0
  86 0008 FFF7FEFF 		bl	tcp_tmr
  87              		.loc 2 86 0
  88 000c 094B     		ldr	r3, .L6
  89 000e 1B68     		ldr	r3, [r3]
  90 0010 002B     		cmp	r3, #0
  91 0012 03D1     		bne	.L3
  92              		.loc 2 86 0 is_stmt 0 discriminator 1
  93 0014 084B     		ldr	r3, .L6+4
  94 0016 1B68     		ldr	r3, [r3]
  95 0018 002B     		cmp	r3, #0
  96 001a 05D0     		beq	.L4
  97              	.L3:
  98              		.loc 2 88 0 is_stmt 1
  99 001c FA20     		movs	r0, #250
 100 001e 0749     		ldr	r1, .L6+8
 101 0020 0022     		movs	r2, #0
 102 0022 FFF7FEFF 		bl	sys_timeout
 103 0026 02E0     		b	.L2
 104              	.L4:
 105              		.loc 2 91 0
 106 0028 054B     		ldr	r3, .L6+12
 107 002a 0022     		movs	r2, #0
 108 002c 1A60     		str	r2, [r3]
 109              	.L2:
 110              		.loc 2 93 0
 111 002e 0837     		adds	r7, r7, #8
 112 0030 BD46     		mov	sp, r7
ARM GAS  C:\Users\Luis\AppData\Local\Temp\ccEHI8EP.s 			page 3


 113              		@ sp needed
 114 0032 80BD     		pop	{r7, pc}
 115              	.L7:
 116              		.align	2
 117              	.L6:
 118 0034 00000000 		.word	tcp_active_pcbs
 119 0038 00000000 		.word	tcp_tw_pcbs
 120 003c 00000000 		.word	tcpip_tcp_timer
 121 0040 00000000 		.word	tcpip_tcp_timer_active
 122              		.cfi_endproc
 123              	.LFE260:
 124              		.size	tcpip_tcp_timer, .-tcpip_tcp_timer
 125 0044 AFF30080 		.section	.text.tcp_timer_needed,"ax",%progbits
 125      AFF30080 
 125      AFF30080 
 126              		.align	2
 127              		.p2align 4,,15
 128              		.global	tcp_timer_needed
 129              		.thumb
 130              		.thumb_func
 131              		.type	tcp_timer_needed, %function
 132              	tcp_timer_needed:
 133              	.LFB261:
 134              		.loc 2 102 0
 135              		.cfi_startproc
 136              		@ args = 0, pretend = 0, frame = 0
 137              		@ frame_needed = 1, uses_anonymous_args = 0
 138 0000 80B5     		push	{r7, lr}
 139              		.cfi_def_cfa_offset 8
 140              		.cfi_offset 7, -8
 141              		.cfi_offset 14, -4
 142 0002 00AF     		add	r7, sp, #0
 143              		.cfi_def_cfa_register 7
 144              		.loc 2 104 0
 145 0004 0A4B     		ldr	r3, .L11
 146 0006 1B68     		ldr	r3, [r3]
 147 0008 002B     		cmp	r3, #0
 148 000a 0FD1     		bne	.L8
 149              		.loc 2 104 0 is_stmt 0 discriminator 1
 150 000c 094B     		ldr	r3, .L11+4
 151 000e 1B68     		ldr	r3, [r3]
 152 0010 002B     		cmp	r3, #0
 153 0012 03D1     		bne	.L10
 154 0014 084B     		ldr	r3, .L11+8
 155 0016 1B68     		ldr	r3, [r3]
 156 0018 002B     		cmp	r3, #0
 157 001a 07D0     		beq	.L8
 158              	.L10:
 159              		.loc 2 106 0 is_stmt 1
 160 001c 044B     		ldr	r3, .L11
 161 001e 0122     		movs	r2, #1
 162 0020 1A60     		str	r2, [r3]
 163              		.loc 2 107 0
 164 0022 FA20     		movs	r0, #250
 165 0024 0549     		ldr	r1, .L11+12
 166 0026 0022     		movs	r2, #0
 167 0028 FFF7FEFF 		bl	sys_timeout
ARM GAS  C:\Users\Luis\AppData\Local\Temp\ccEHI8EP.s 			page 4


 168              	.L8:
 169              		.loc 2 109 0
 170 002c 80BD     		pop	{r7, pc}
 171              	.L12:
 172 002e 00BF     		.align	2
 173              	.L11:
 174 0030 00000000 		.word	tcpip_tcp_timer_active
 175 0034 00000000 		.word	tcp_active_pcbs
 176 0038 00000000 		.word	tcp_tw_pcbs
 177 003c 00000000 		.word	tcpip_tcp_timer
 178              		.cfi_endproc
 179              	.LFE261:
 180              		.size	tcp_timer_needed, .-tcp_timer_needed
 181              		.section	.text.ip_reass_timer,"ax",%progbits
 182              		.align	2
 183              		.p2align 4,,15
 184              		.thumb
 185              		.thumb_func
 186              		.type	ip_reass_timer, %function
 187              	ip_reass_timer:
 188              	.LFB262:
 189              		.loc 2 120 0
 190              		.cfi_startproc
 191              		@ args = 0, pretend = 0, frame = 8
 192              		@ frame_needed = 1, uses_anonymous_args = 0
 193 0000 80B5     		push	{r7, lr}
 194              		.cfi_def_cfa_offset 8
 195              		.cfi_offset 7, -8
 196              		.cfi_offset 14, -4
 197 0002 82B0     		sub	sp, sp, #8
 198              		.cfi_def_cfa_offset 16
 199 0004 00AF     		add	r7, sp, #0
 200              		.cfi_def_cfa_register 7
 201 0006 7860     		str	r0, [r7, #4]
 202              		.loc 2 123 0
 203 0008 FFF7FEFF 		bl	ip_reass_tmr
 204              		.loc 2 124 0
 205 000c 4FF47A70 		mov	r0, #1000
 206 0010 0349     		ldr	r1, .L14
 207 0012 0022     		movs	r2, #0
 208 0014 FFF7FEFF 		bl	sys_timeout
 209              		.loc 2 125 0
 210 0018 0837     		adds	r7, r7, #8
 211 001a BD46     		mov	sp, r7
 212              		@ sp needed
 213 001c 80BD     		pop	{r7, pc}
 214              	.L15:
 215 001e 00BF     		.align	2
 216              	.L14:
 217 0020 00000000 		.word	ip_reass_timer
 218              		.cfi_endproc
 219              	.LFE262:
 220              		.size	ip_reass_timer, .-ip_reass_timer
 221 0024 AFF30080 		.section	.text.arp_timer,"ax",%progbits
 221      AFF30080 
 221      AFF30080 
 222              		.align	2
ARM GAS  C:\Users\Luis\AppData\Local\Temp\ccEHI8EP.s 			page 5


 223              		.p2align 4,,15
 224              		.thumb
 225              		.thumb_func
 226              		.type	arp_timer, %function
 227              	arp_timer:
 228              	.LFB263:
 229              		.loc 2 136 0
 230              		.cfi_startproc
 231              		@ args = 0, pretend = 0, frame = 8
 232              		@ frame_needed = 1, uses_anonymous_args = 0
 233 0000 80B5     		push	{r7, lr}
 234              		.cfi_def_cfa_offset 8
 235              		.cfi_offset 7, -8
 236              		.cfi_offset 14, -4
 237 0002 82B0     		sub	sp, sp, #8
 238              		.cfi_def_cfa_offset 16
 239 0004 00AF     		add	r7, sp, #0
 240              		.cfi_def_cfa_register 7
 241 0006 7860     		str	r0, [r7, #4]
 242              		.loc 2 139 0
 243 0008 FFF7FEFF 		bl	etharp_tmr
 244              		.loc 2 140 0
 245 000c 41F28830 		movw	r0, #5000
 246 0010 0349     		ldr	r1, .L17
 247 0012 0022     		movs	r2, #0
 248 0014 FFF7FEFF 		bl	sys_timeout
 249              		.loc 2 141 0
 250 0018 0837     		adds	r7, r7, #8
 251 001a BD46     		mov	sp, r7
 252              		@ sp needed
 253 001c 80BD     		pop	{r7, pc}
 254              	.L18:
 255 001e 00BF     		.align	2
 256              	.L17:
 257 0020 00000000 		.word	arp_timer
 258              		.cfi_endproc
 259              	.LFE263:
 260              		.size	arp_timer, .-arp_timer
 261 0024 AFF30080 		.section	.text.sys_timeouts_init,"ax",%progbits
 261      AFF30080 
 261      AFF30080 
 262              		.align	2
 263              		.p2align 4,,15
 264              		.global	sys_timeouts_init
 265              		.thumb
 266              		.thumb_func
 267              		.type	sys_timeouts_init, %function
 268              	sys_timeouts_init:
 269              	.LFB264:
 270              		.loc 2 224 0
 271              		.cfi_startproc
 272              		@ args = 0, pretend = 0, frame = 0
 273              		@ frame_needed = 1, uses_anonymous_args = 0
 274 0000 80B5     		push	{r7, lr}
 275              		.cfi_def_cfa_offset 8
 276              		.cfi_offset 7, -8
 277              		.cfi_offset 14, -4
ARM GAS  C:\Users\Luis\AppData\Local\Temp\ccEHI8EP.s 			page 6


 278 0002 00AF     		add	r7, sp, #0
 279              		.cfi_def_cfa_register 7
 280              		.loc 2 226 0
 281 0004 4FF47A70 		mov	r0, #1000
 282 0008 0549     		ldr	r1, .L20
 283 000a 0022     		movs	r2, #0
 284 000c FFF7FEFF 		bl	sys_timeout
 285              		.loc 2 229 0
 286 0010 41F28830 		movw	r0, #5000
 287 0014 0349     		ldr	r1, .L20+4
 288 0016 0022     		movs	r2, #0
 289 0018 FFF7FEFF 		bl	sys_timeout
 290              		.loc 2 249 0
 291 001c 80BD     		pop	{r7, pc}
 292              	.L21:
 293 001e 00BF     		.align	2
 294              	.L20:
 295 0020 00000000 		.word	ip_reass_timer
 296 0024 00000000 		.word	arp_timer
 297              		.cfi_endproc
 298              	.LFE264:
 299              		.size	sys_timeouts_init, .-sys_timeouts_init
 300 0028 AFF30080 		.section	.rodata
 300      AFF30080 
 301              		.align	2
 302              	.LC0:
 303 0000 7379735F 		.ascii	"sys_timeout: timeout != NULL, pool MEMP_SYS_TIMEOUT"
 303      74696D65 
 303      6F75743A 
 303      2074696D 
 303      656F7574 
 304 0033 20697320 		.ascii	" is empty\000"
 304      656D7074 
 304      7900
 305 003d 000000   		.section	.text.sys_timeout,"ax",%progbits
 306              		.align	2
 307              		.p2align 4,,15
 308              		.global	sys_timeout
 309              		.thumb
 310              		.thumb_func
 311              		.type	sys_timeout, %function
 312              	sys_timeout:
 313              	.LFB265:
 314              		.loc 2 268 0
 315              		.cfi_startproc
 316              		@ args = 0, pretend = 0, frame = 24
 317              		@ frame_needed = 1, uses_anonymous_args = 0
 318 0000 80B5     		push	{r7, lr}
 319              		.cfi_def_cfa_offset 8
 320              		.cfi_offset 7, -8
 321              		.cfi_offset 14, -4
 322 0002 86B0     		sub	sp, sp, #24
 323              		.cfi_def_cfa_offset 32
 324 0004 00AF     		add	r7, sp, #0
 325              		.cfi_def_cfa_register 7
 326 0006 F860     		str	r0, [r7, #12]
 327 0008 B960     		str	r1, [r7, #8]
ARM GAS  C:\Users\Luis\AppData\Local\Temp\ccEHI8EP.s 			page 7


 328 000a 7A60     		str	r2, [r7, #4]
 329              		.loc 2 271 0
 330 000c 0B20     		movs	r0, #11
 331 000e FFF7FEFF 		bl	memp_malloc
 332 0012 3861     		str	r0, [r7, #16]
 333              		.loc 2 272 0
 334 0014 3B69     		ldr	r3, [r7, #16]
 335 0016 002B     		cmp	r3, #0
 336 0018 07D1     		bne	.L23
 337              		.loc 2 273 0
 338 001a 3B69     		ldr	r3, [r7, #16]
 339 001c 002B     		cmp	r3, #0
 340 001e 03D1     		bne	.L24
 341              		.loc 2 273 0 is_stmt 0 discriminator 1
 342 0020 3148     		ldr	r0, .L33
 343 0022 FFF7FEFF 		bl	osalSysHalt
 344              		.loc 2 274 0 is_stmt 1 discriminator 1
 345 0026 5BE0     		b	.L22
 346              	.L24:
 347              		.loc 2 274 0 is_stmt 0
 348 0028 5AE0     		b	.L22
 349              	.L23:
 350              		.loc 2 276 0 is_stmt 1
 351 002a 3B69     		ldr	r3, [r7, #16]
 352 002c 0022     		movs	r2, #0
 353 002e 1A60     		str	r2, [r3]
 354              		.loc 2 277 0
 355 0030 3B69     		ldr	r3, [r7, #16]
 356 0032 BA68     		ldr	r2, [r7, #8]
 357 0034 9A60     		str	r2, [r3, #8]
 358              		.loc 2 278 0
 359 0036 3B69     		ldr	r3, [r7, #16]
 360 0038 7A68     		ldr	r2, [r7, #4]
 361 003a DA60     		str	r2, [r3, #12]
 362              		.loc 2 279 0
 363 003c 3B69     		ldr	r3, [r7, #16]
 364 003e FA68     		ldr	r2, [r7, #12]
 365 0040 5A60     		str	r2, [r3, #4]
 366              		.loc 2 286 0
 367 0042 2A4B     		ldr	r3, .L33+4
 368 0044 1B68     		ldr	r3, [r3]
 369 0046 002B     		cmp	r3, #0
 370 0048 03D1     		bne	.L26
 371              		.loc 2 287 0
 372 004a 284B     		ldr	r3, .L33+4
 373 004c 3A69     		ldr	r2, [r7, #16]
 374 004e 1A60     		str	r2, [r3]
 375              		.loc 2 288 0
 376 0050 46E0     		b	.L22
 377              	.L26:
 378              		.loc 2 291 0
 379 0052 264B     		ldr	r3, .L33+4
 380 0054 1B68     		ldr	r3, [r3]
 381 0056 5A68     		ldr	r2, [r3, #4]
 382 0058 FB68     		ldr	r3, [r7, #12]
 383 005a 9A42     		cmp	r2, r3
 384 005c 0FD9     		bls	.L27
ARM GAS  C:\Users\Luis\AppData\Local\Temp\ccEHI8EP.s 			page 8


 385              		.loc 2 292 0
 386 005e 234B     		ldr	r3, .L33+4
 387 0060 1B68     		ldr	r3, [r3]
 388 0062 224A     		ldr	r2, .L33+4
 389 0064 1268     		ldr	r2, [r2]
 390 0066 5168     		ldr	r1, [r2, #4]
 391 0068 FA68     		ldr	r2, [r7, #12]
 392 006a 8A1A     		subs	r2, r1, r2
 393 006c 5A60     		str	r2, [r3, #4]
 394              		.loc 2 293 0
 395 006e 1F4B     		ldr	r3, .L33+4
 396 0070 1A68     		ldr	r2, [r3]
 397 0072 3B69     		ldr	r3, [r7, #16]
 398 0074 1A60     		str	r2, [r3]
 399              		.loc 2 294 0
 400 0076 1D4B     		ldr	r3, .L33+4
 401 0078 3A69     		ldr	r2, [r7, #16]
 402 007a 1A60     		str	r2, [r3]
 403 007c 30E0     		b	.L22
 404              	.L27:
 405              		.loc 2 296 0
 406 007e 1B4B     		ldr	r3, .L33+4
 407 0080 1B68     		ldr	r3, [r3]
 408 0082 7B61     		str	r3, [r7, #20]
 409 0084 29E0     		b	.L28
 410              	.L32:
 411              		.loc 2 297 0
 412 0086 3B69     		ldr	r3, [r7, #16]
 413 0088 5A68     		ldr	r2, [r3, #4]
 414 008a 7B69     		ldr	r3, [r7, #20]
 415 008c 5B68     		ldr	r3, [r3, #4]
 416 008e D21A     		subs	r2, r2, r3
 417 0090 3B69     		ldr	r3, [r7, #16]
 418 0092 5A60     		str	r2, [r3, #4]
 419              		.loc 2 298 0
 420 0094 7B69     		ldr	r3, [r7, #20]
 421 0096 1B68     		ldr	r3, [r3]
 422 0098 002B     		cmp	r3, #0
 423 009a 06D0     		beq	.L29
 424              		.loc 2 298 0 is_stmt 0 discriminator 1
 425 009c 7B69     		ldr	r3, [r7, #20]
 426 009e 1B68     		ldr	r3, [r3]
 427 00a0 5A68     		ldr	r2, [r3, #4]
 428 00a2 3B69     		ldr	r3, [r7, #16]
 429 00a4 5B68     		ldr	r3, [r3, #4]
 430 00a6 9A42     		cmp	r2, r3
 431 00a8 14D9     		bls	.L30
 432              	.L29:
 433              		.loc 2 299 0 is_stmt 1
 434 00aa 7B69     		ldr	r3, [r7, #20]
 435 00ac 1B68     		ldr	r3, [r3]
 436 00ae 002B     		cmp	r3, #0
 437 00b0 08D0     		beq	.L31
 438              		.loc 2 300 0
 439 00b2 7B69     		ldr	r3, [r7, #20]
 440 00b4 1B68     		ldr	r3, [r3]
 441 00b6 7A69     		ldr	r2, [r7, #20]
ARM GAS  C:\Users\Luis\AppData\Local\Temp\ccEHI8EP.s 			page 9


 442 00b8 1268     		ldr	r2, [r2]
 443 00ba 5168     		ldr	r1, [r2, #4]
 444 00bc 3A69     		ldr	r2, [r7, #16]
 445 00be 5268     		ldr	r2, [r2, #4]
 446 00c0 8A1A     		subs	r2, r1, r2
 447 00c2 5A60     		str	r2, [r3, #4]
 448              	.L31:
 449              		.loc 2 302 0
 450 00c4 7B69     		ldr	r3, [r7, #20]
 451 00c6 1A68     		ldr	r2, [r3]
 452 00c8 3B69     		ldr	r3, [r7, #16]
 453 00ca 1A60     		str	r2, [r3]
 454              		.loc 2 303 0
 455 00cc 7B69     		ldr	r3, [r7, #20]
 456 00ce 3A69     		ldr	r2, [r7, #16]
 457 00d0 1A60     		str	r2, [r3]
 458              		.loc 2 304 0
 459 00d2 05E0     		b	.L22
 460              	.L30:
 461              		.loc 2 296 0
 462 00d4 7B69     		ldr	r3, [r7, #20]
 463 00d6 1B68     		ldr	r3, [r3]
 464 00d8 7B61     		str	r3, [r7, #20]
 465              	.L28:
 466              		.loc 2 296 0 is_stmt 0 discriminator 1
 467 00da 7B69     		ldr	r3, [r7, #20]
 468 00dc 002B     		cmp	r3, #0
 469 00de D2D1     		bne	.L32
 470              	.L22:
 471              		.loc 2 308 0 is_stmt 1
 472 00e0 1837     		adds	r7, r7, #24
 473 00e2 BD46     		mov	sp, r7
 474              		@ sp needed
 475 00e4 80BD     		pop	{r7, pc}
 476              	.L34:
 477 00e6 00BF     		.align	2
 478              	.L33:
 479 00e8 00000000 		.word	.LC0
 480 00ec 00000000 		.word	next_timeout
 481              		.cfi_endproc
 482              	.LFE265:
 483              		.size	sys_timeout, .-sys_timeout
 484              		.section	.text.sys_untimeout,"ax",%progbits
 485              		.align	2
 486              		.p2align 4,,15
 487              		.global	sys_untimeout
 488              		.thumb
 489              		.thumb_func
 490              		.type	sys_untimeout, %function
 491              	sys_untimeout:
 492              	.LFB266:
 493              		.loc 2 322 0
 494              		.cfi_startproc
 495              		@ args = 0, pretend = 0, frame = 16
 496              		@ frame_needed = 1, uses_anonymous_args = 0
 497 0000 80B5     		push	{r7, lr}
 498              		.cfi_def_cfa_offset 8
ARM GAS  C:\Users\Luis\AppData\Local\Temp\ccEHI8EP.s 			page 10


 499              		.cfi_offset 7, -8
 500              		.cfi_offset 14, -4
 501 0002 84B0     		sub	sp, sp, #16
 502              		.cfi_def_cfa_offset 24
 503 0004 00AF     		add	r7, sp, #0
 504              		.cfi_def_cfa_register 7
 505 0006 7860     		str	r0, [r7, #4]
 506 0008 3960     		str	r1, [r7]
 507              		.loc 2 325 0
 508 000a 1F4B     		ldr	r3, .L44
 509 000c 1B68     		ldr	r3, [r3]
 510 000e 002B     		cmp	r3, #0
 511 0010 00D1     		bne	.L36
 512              		.loc 2 326 0
 513 0012 36E0     		b	.L35
 514              	.L36:
 515              		.loc 2 329 0
 516 0014 1C4B     		ldr	r3, .L44
 517 0016 1B68     		ldr	r3, [r3]
 518 0018 BB60     		str	r3, [r7, #8]
 519 001a 0023     		movs	r3, #0
 520 001c FB60     		str	r3, [r7, #12]
 521 001e 2CE0     		b	.L38
 522              	.L43:
 523              		.loc 2 330 0
 524 0020 BB68     		ldr	r3, [r7, #8]
 525 0022 9A68     		ldr	r2, [r3, #8]
 526 0024 7B68     		ldr	r3, [r7, #4]
 527 0026 9A42     		cmp	r2, r3
 528 0028 22D1     		bne	.L39
 529              		.loc 2 330 0 is_stmt 0 discriminator 1
 530 002a BB68     		ldr	r3, [r7, #8]
 531 002c DA68     		ldr	r2, [r3, #12]
 532 002e 3B68     		ldr	r3, [r7]
 533 0030 9A42     		cmp	r2, r3
 534 0032 1DD1     		bne	.L39
 535              		.loc 2 333 0 is_stmt 1
 536 0034 FB68     		ldr	r3, [r7, #12]
 537 0036 002B     		cmp	r3, #0
 538 0038 04D1     		bne	.L40
 539              		.loc 2 334 0
 540 003a BB68     		ldr	r3, [r7, #8]
 541 003c 1A68     		ldr	r2, [r3]
 542 003e 124B     		ldr	r3, .L44
 543 0040 1A60     		str	r2, [r3]
 544 0042 03E0     		b	.L41
 545              	.L40:
 546              		.loc 2 336 0
 547 0044 BB68     		ldr	r3, [r7, #8]
 548 0046 1A68     		ldr	r2, [r3]
 549 0048 FB68     		ldr	r3, [r7, #12]
 550 004a 1A60     		str	r2, [r3]
 551              	.L41:
 552              		.loc 2 339 0
 553 004c BB68     		ldr	r3, [r7, #8]
 554 004e 1B68     		ldr	r3, [r3]
 555 0050 002B     		cmp	r3, #0
ARM GAS  C:\Users\Luis\AppData\Local\Temp\ccEHI8EP.s 			page 11


 556 0052 08D0     		beq	.L42
 557              		.loc 2 340 0
 558 0054 BB68     		ldr	r3, [r7, #8]
 559 0056 1B68     		ldr	r3, [r3]
 560 0058 BA68     		ldr	r2, [r7, #8]
 561 005a 1268     		ldr	r2, [r2]
 562 005c 5168     		ldr	r1, [r2, #4]
 563 005e BA68     		ldr	r2, [r7, #8]
 564 0060 5268     		ldr	r2, [r2, #4]
 565 0062 0A44     		add	r2, r2, r1
 566 0064 5A60     		str	r2, [r3, #4]
 567              	.L42:
 568              		.loc 2 342 0
 569 0066 0B20     		movs	r0, #11
 570 0068 B968     		ldr	r1, [r7, #8]
 571 006a FFF7FEFF 		bl	memp_free
 572              		.loc 2 343 0
 573 006e 08E0     		b	.L35
 574              	.L39:
 575              		.loc 2 329 0
 576 0070 BB68     		ldr	r3, [r7, #8]
 577 0072 FB60     		str	r3, [r7, #12]
 578 0074 BB68     		ldr	r3, [r7, #8]
 579 0076 1B68     		ldr	r3, [r3]
 580 0078 BB60     		str	r3, [r7, #8]
 581              	.L38:
 582              		.loc 2 329 0 is_stmt 0 discriminator 1
 583 007a BB68     		ldr	r3, [r7, #8]
 584 007c 002B     		cmp	r3, #0
 585 007e CFD1     		bne	.L43
 586              		.loc 2 346 0 is_stmt 1
 587 0080 00BF     		nop
 588              	.L35:
 589              		.loc 2 347 0
 590 0082 1037     		adds	r7, r7, #16
 591 0084 BD46     		mov	sp, r7
 592              		@ sp needed
 593 0086 80BD     		pop	{r7, pc}
 594              	.L45:
 595              		.align	2
 596              	.L44:
 597 0088 00000000 		.word	next_timeout
 598              		.cfi_endproc
 599              	.LFE266:
 600              		.size	sys_untimeout, .-sys_untimeout
 601 008c AFF30080 		.section	.text.sys_timeouts_mbox_fetch,"ax",%progbits
 602              		.align	2
 603              		.p2align 4,,15
 604              		.global	sys_timeouts_mbox_fetch
 605              		.thumb
 606              		.thumb_func
 607              		.type	sys_timeouts_mbox_fetch, %function
 608              	sys_timeouts_mbox_fetch:
 609              	.LFB267:
 610              		.loc 2 424 0
 611              		.cfi_startproc
 612              		@ args = 0, pretend = 0, frame = 24
ARM GAS  C:\Users\Luis\AppData\Local\Temp\ccEHI8EP.s 			page 12


 613              		@ frame_needed = 1, uses_anonymous_args = 0
 614 0000 80B5     		push	{r7, lr}
 615              		.cfi_def_cfa_offset 8
 616              		.cfi_offset 7, -8
 617              		.cfi_offset 14, -4
 618 0002 86B0     		sub	sp, sp, #24
 619              		.cfi_def_cfa_offset 32
 620 0004 00AF     		add	r7, sp, #0
 621              		.cfi_def_cfa_register 7
 622 0006 7860     		str	r0, [r7, #4]
 623 0008 3960     		str	r1, [r7]
 624              	.L47:
 625              		.loc 2 431 0
 626 000a 284B     		ldr	r3, .L55
 627 000c 1B68     		ldr	r3, [r3]
 628 000e 002B     		cmp	r3, #0
 629 0010 06D1     		bne	.L48
 630              		.loc 2 432 0
 631 0012 7868     		ldr	r0, [r7, #4]
 632 0014 3968     		ldr	r1, [r7]
 633 0016 0022     		movs	r2, #0
 634 0018 FFF7FEFF 		bl	sys_arch_mbox_fetch
 635 001c 7861     		str	r0, [r7, #20]
 636 001e 41E0     		b	.L46
 637              	.L48:
 638              		.loc 2 434 0
 639 0020 224B     		ldr	r3, .L55
 640 0022 1B68     		ldr	r3, [r3]
 641 0024 5B68     		ldr	r3, [r3, #4]
 642 0026 002B     		cmp	r3, #0
 643 0028 09D0     		beq	.L50
 644              		.loc 2 435 0
 645 002a 204B     		ldr	r3, .L55
 646 002c 1B68     		ldr	r3, [r3]
 647 002e 5B68     		ldr	r3, [r3, #4]
 648 0030 7868     		ldr	r0, [r7, #4]
 649 0032 3968     		ldr	r1, [r7]
 650 0034 1A46     		mov	r2, r3
 651 0036 FFF7FEFF 		bl	sys_arch_mbox_fetch
 652 003a 7861     		str	r0, [r7, #20]
 653 003c 02E0     		b	.L51
 654              	.L50:
 655              		.loc 2 437 0
 656 003e 4FF0FF33 		mov	r3, #-1
 657 0042 7B61     		str	r3, [r7, #20]
 658              	.L51:
 659              		.loc 2 440 0
 660 0044 7B69     		ldr	r3, [r7, #20]
 661 0046 B3F1FF3F 		cmp	r3, #-1
 662 004a 18D1     		bne	.L52
 663              		.loc 2 444 0
 664 004c 174B     		ldr	r3, .L55
 665 004e 1B68     		ldr	r3, [r3]
 666 0050 3B61     		str	r3, [r7, #16]
 667              		.loc 2 445 0
 668 0052 3B69     		ldr	r3, [r7, #16]
 669 0054 1A68     		ldr	r2, [r3]
ARM GAS  C:\Users\Luis\AppData\Local\Temp\ccEHI8EP.s 			page 13


 670 0056 154B     		ldr	r3, .L55
 671 0058 1A60     		str	r2, [r3]
 672              		.loc 2 446 0
 673 005a 3B69     		ldr	r3, [r7, #16]
 674 005c 9B68     		ldr	r3, [r3, #8]
 675 005e FB60     		str	r3, [r7, #12]
 676              		.loc 2 447 0
 677 0060 3B69     		ldr	r3, [r7, #16]
 678 0062 DB68     		ldr	r3, [r3, #12]
 679 0064 BB60     		str	r3, [r7, #8]
 680              		.loc 2 454 0
 681 0066 0B20     		movs	r0, #11
 682 0068 3969     		ldr	r1, [r7, #16]
 683 006a FFF7FEFF 		bl	memp_free
 684              		.loc 2 455 0
 685 006e FB68     		ldr	r3, [r7, #12]
 686 0070 002B     		cmp	r3, #0
 687 0072 03D0     		beq	.L53
 688              		.loc 2 459 0
 689 0074 FB68     		ldr	r3, [r7, #12]
 690 0076 B868     		ldr	r0, [r7, #8]
 691 0078 9847     		blx	r3
 692              		.loc 2 465 0
 693 007a C6E7     		b	.L47
 694              	.L53:
 695 007c C5E7     		b	.L47
 696              	.L52:
 697              		.loc 2 470 0
 698 007e 0B4B     		ldr	r3, .L55
 699 0080 1B68     		ldr	r3, [r3]
 700 0082 5A68     		ldr	r2, [r3, #4]
 701 0084 7B69     		ldr	r3, [r7, #20]
 702 0086 9A42     		cmp	r2, r3
 703 0088 08D9     		bls	.L54
 704              		.loc 2 471 0
 705 008a 084B     		ldr	r3, .L55
 706 008c 1B68     		ldr	r3, [r3]
 707 008e 074A     		ldr	r2, .L55
 708 0090 1268     		ldr	r2, [r2]
 709 0092 5168     		ldr	r1, [r2, #4]
 710 0094 7A69     		ldr	r2, [r7, #20]
 711 0096 8A1A     		subs	r2, r1, r2
 712 0098 5A60     		str	r2, [r3, #4]
 713 009a 03E0     		b	.L46
 714              	.L54:
 715              		.loc 2 473 0
 716 009c 034B     		ldr	r3, .L55
 717 009e 1B68     		ldr	r3, [r3]
 718 00a0 0022     		movs	r2, #0
 719 00a2 5A60     		str	r2, [r3, #4]
 720              	.L46:
 721              		.loc 2 477 0
 722 00a4 1837     		adds	r7, r7, #24
 723 00a6 BD46     		mov	sp, r7
 724              		@ sp needed
 725 00a8 80BD     		pop	{r7, pc}
 726              	.L56:
ARM GAS  C:\Users\Luis\AppData\Local\Temp\ccEHI8EP.s 			page 14


 727 00aa 00BF     		.align	2
 728              	.L55:
 729 00ac 00000000 		.word	next_timeout
 730              		.cfi_endproc
 731              	.LFE267:
 732              		.size	sys_timeouts_mbox_fetch, .-sys_timeouts_mbox_fetch
 733              		.text
 734              	.Letext0:
 735              		.file 3 "c:\\emtechesdk\\gcc\\lib\\gcc\\arm-none-eabi\\4.8.3\\include\\stddef.h"
 736              		.file 4 "c:\\emtechesdk\\gcc\\arm-none-eabi\\include\\stdint.h"
 737              		.file 5 "../../ChibiOS/os/rt/ports/ARMCMx/compilers/GCC/chtypes.h"
 738              		.file 6 "../../ChibiOS/os/rt/include/chsystypes.h"
 739              		.file 7 "../../ChibiOS/os/rt/include/chschd.h"
 740              		.file 8 "../../ChibiOS/os/rt/ports/ARMCMx/chcore.h"
 741              		.file 9 "../../ChibiOS/os/rt/ports/ARMCMx/chcore_v7m.h"
 742              		.file 10 "../../ChibiOS/os/rt/include/chdebug.h"
 743              		.file 11 "../../ChibiOS/os/rt/include/chtm.h"
 744              		.file 12 "../../ChibiOS/os/rt/include/chstats.h"
 745              		.file 13 "../../ChibiOS/os/rt/include/chsem.h"
 746              		.file 14 "../../ChibiOS/os/rt/include/chmtx.h"
 747              		.file 15 "../../ChibiOS/os/rt/include/chmboxes.h"
 748              		.file 16 "../../ChibiOS/os/various/lwip_bindings/arch/cc.h"
 749              		.file 17 "../../ChibiOS/ext/lwip/src/include/lwip/err.h"
 750              		.file 18 "../../ChibiOS/os/various/lwip_bindings/arch/sys_arch.h"
 751              		.file 19 "../../ChibiOS/ext/lwip/src/include/lwip/timers.h"
 752              		.file 20 "../../ChibiOS/ext/lwip/src/include/lwip/pbuf.h"
 753              		.file 21 "../../ChibiOS/ext/lwip/src/include/ipv4/lwip/ip_addr.h"
 754              		.file 22 "../../ChibiOS/ext/lwip/src/include/lwip/tcp.h"
 755              		.file 23 "../../ChibiOS/ext/lwip/src/include/lwip/tcp_impl.h"
 756              		.file 24 "../../ChibiOS/os/ext/CMSIS/include/core_cm4.h"
 757              		.file 25 "../../ChibiOS/ext/lwip/src/include/lwip/memp.h"
 758              		.section	.debug_info,"",%progbits
 759              	.Ldebug_info0:
 760 0000 99100000 		.4byte	0x1099
 761 0004 0400     		.2byte	0x4
 762 0006 00000000 		.4byte	.Ldebug_abbrev0
 763 000a 04       		.byte	0x4
 764 000b 01       		.uleb128 0x1
 765 000c 49010000 		.4byte	.LASF268
 766 0010 01       		.byte	0x1
 767 0011 B8040000 		.4byte	.LASF269
 768 0015 95070000 		.4byte	.LASF270
 769 0019 00000000 		.4byte	.Ldebug_ranges0+0
 770 001d 00000000 		.4byte	0
 771 0021 00000000 		.4byte	.Ldebug_line0
 772 0025 02       		.uleb128 0x2
 773 0026 04       		.byte	0x4
 774 0027 05       		.byte	0x5
 775 0028 696E7400 		.ascii	"int\000"
 776 002c 03       		.uleb128 0x3
 777 002d 2C040000 		.4byte	.LASF1
 778 0031 03       		.byte	0x3
 779 0032 D4       		.byte	0xd4
 780 0033 37000000 		.4byte	0x37
 781 0037 04       		.uleb128 0x4
 782 0038 04       		.byte	0x4
 783 0039 07       		.byte	0x7
ARM GAS  C:\Users\Luis\AppData\Local\Temp\ccEHI8EP.s 			page 15


 784 003a D4000000 		.4byte	.LASF0
 785 003e 03       		.uleb128 0x3
 786 003f F4040000 		.4byte	.LASF2
 787 0043 04       		.byte	0x4
 788 0044 29       		.byte	0x29
 789 0045 49000000 		.4byte	0x49
 790 0049 04       		.uleb128 0x4
 791 004a 01       		.byte	0x1
 792 004b 06       		.byte	0x6
 793 004c 1F0B0000 		.4byte	.LASF3
 794 0050 03       		.uleb128 0x3
 795 0051 AD050000 		.4byte	.LASF4
 796 0055 04       		.byte	0x4
 797 0056 2A       		.byte	0x2a
 798 0057 5B000000 		.4byte	0x5b
 799 005b 04       		.uleb128 0x4
 800 005c 01       		.byte	0x1
 801 005d 08       		.byte	0x8
 802 005e 150A0000 		.4byte	.LASF5
 803 0062 03       		.uleb128 0x3
 804 0063 57030000 		.4byte	.LASF6
 805 0067 04       		.byte	0x4
 806 0068 35       		.byte	0x35
 807 0069 6D000000 		.4byte	0x6d
 808 006d 04       		.uleb128 0x4
 809 006e 02       		.byte	0x2
 810 006f 05       		.byte	0x5
 811 0070 05080000 		.4byte	.LASF7
 812 0074 03       		.uleb128 0x3
 813 0075 5A070000 		.4byte	.LASF8
 814 0079 04       		.byte	0x4
 815 007a 36       		.byte	0x36
 816 007b 7F000000 		.4byte	0x7f
 817 007f 04       		.uleb128 0x4
 818 0080 02       		.byte	0x2
 819 0081 07       		.byte	0x7
 820 0082 330B0000 		.4byte	.LASF9
 821 0086 03       		.uleb128 0x3
 822 0087 B1090000 		.4byte	.LASF10
 823 008b 04       		.byte	0x4
 824 008c 4F       		.byte	0x4f
 825 008d 91000000 		.4byte	0x91
 826 0091 04       		.uleb128 0x4
 827 0092 04       		.byte	0x4
 828 0093 05       		.byte	0x5
 829 0094 35080000 		.4byte	.LASF11
 830 0098 03       		.uleb128 0x3
 831 0099 C2020000 		.4byte	.LASF12
 832 009d 04       		.byte	0x4
 833 009e 50       		.byte	0x50
 834 009f A3000000 		.4byte	0xa3
 835 00a3 04       		.uleb128 0x4
 836 00a4 04       		.byte	0x4
 837 00a5 07       		.byte	0x7
 838 00a6 85090000 		.4byte	.LASF13
 839 00aa 04       		.uleb128 0x4
 840 00ab 08       		.byte	0x8
ARM GAS  C:\Users\Luis\AppData\Local\Temp\ccEHI8EP.s 			page 16


 841 00ac 05       		.byte	0x5
 842 00ad 7D050000 		.4byte	.LASF14
 843 00b1 03       		.uleb128 0x3
 844 00b2 BE080000 		.4byte	.LASF15
 845 00b6 04       		.byte	0x4
 846 00b7 78       		.byte	0x78
 847 00b8 BC000000 		.4byte	0xbc
 848 00bc 04       		.uleb128 0x4
 849 00bd 08       		.byte	0x8
 850 00be 07       		.byte	0x7
 851 00bf 67030000 		.4byte	.LASF16
 852 00c3 05       		.uleb128 0x5
 853 00c4 86000000 		.4byte	0x86
 854 00c8 03       		.uleb128 0x3
 855 00c9 84070000 		.4byte	.LASF17
 856 00cd 05       		.byte	0x5
 857 00ce 45       		.byte	0x45
 858 00cf 98000000 		.4byte	0x98
 859 00d3 03       		.uleb128 0x3
 860 00d4 48050000 		.4byte	.LASF18
 861 00d8 05       		.byte	0x5
 862 00d9 46       		.byte	0x46
 863 00da B1000000 		.4byte	0xb1
 864 00de 03       		.uleb128 0x3
 865 00df 2F070000 		.4byte	.LASF19
 866 00e3 05       		.byte	0x5
 867 00e4 48       		.byte	0x48
 868 00e5 50000000 		.4byte	0x50
 869 00e9 03       		.uleb128 0x3
 870 00ea 6E050000 		.4byte	.LASF20
 871 00ee 05       		.byte	0x5
 872 00ef 49       		.byte	0x49
 873 00f0 50000000 		.4byte	0x50
 874 00f4 03       		.uleb128 0x3
 875 00f5 7D090000 		.4byte	.LASF21
 876 00f9 05       		.byte	0x5
 877 00fa 4A       		.byte	0x4a
 878 00fb 50000000 		.4byte	0x50
 879 00ff 03       		.uleb128 0x3
 880 0100 3E030000 		.4byte	.LASF22
 881 0104 05       		.byte	0x5
 882 0105 4C       		.byte	0x4c
 883 0106 98000000 		.4byte	0x98
 884 010a 03       		.uleb128 0x3
 885 010b 6E060000 		.4byte	.LASF23
 886 010f 05       		.byte	0x5
 887 0110 4D       		.byte	0x4d
 888 0111 86000000 		.4byte	0x86
 889 0115 03       		.uleb128 0x3
 890 0116 EC020000 		.4byte	.LASF24
 891 011a 05       		.byte	0x5
 892 011b 4F       		.byte	0x4f
 893 011c 98000000 		.4byte	0x98
 894 0120 03       		.uleb128 0x3
 895 0121 95030000 		.4byte	.LASF25
 896 0125 05       		.byte	0x5
 897 0126 51       		.byte	0x51
ARM GAS  C:\Users\Luis\AppData\Local\Temp\ccEHI8EP.s 			page 17


 898 0127 86000000 		.4byte	0x86
 899 012b 03       		.uleb128 0x3
 900 012c 37070000 		.4byte	.LASF26
 901 0130 05       		.byte	0x5
 902 0131 52       		.byte	0x52
 903 0132 98000000 		.4byte	0x98
 904 0136 03       		.uleb128 0x3
 905 0137 B0000000 		.4byte	.LASF27
 906 013b 06       		.byte	0x6
 907 013c 33       		.byte	0x33
 908 013d 98000000 		.4byte	0x98
 909 0141 03       		.uleb128 0x3
 910 0142 0C040000 		.4byte	.LASF28
 911 0146 06       		.byte	0x6
 912 0147 3F       		.byte	0x3f
 913 0148 4C010000 		.4byte	0x14c
 914 014c 06       		.uleb128 0x6
 915 014d FA050000 		.4byte	.LASF51
 916 0151 68       		.byte	0x68
 917 0152 07       		.byte	0x7
 918 0153 C2       		.byte	0xc2
 919 0154 5F020000 		.4byte	0x25f
 920 0158 07       		.uleb128 0x7
 921 0159 15040000 		.4byte	.LASF29
 922 015d 07       		.byte	0x7
 923 015e C3       		.byte	0xc3
 924 015f 6A020000 		.4byte	0x26a
 925 0163 00       		.byte	0
 926 0164 07       		.uleb128 0x7
 927 0165 6B090000 		.4byte	.LASF30
 928 0169 07       		.byte	0x7
 929 016a C5       		.byte	0xc5
 930 016b 6A020000 		.4byte	0x26a
 931 016f 04       		.byte	0x4
 932 0170 07       		.uleb128 0x7
 933 0171 6E000000 		.4byte	.LASF31
 934 0175 07       		.byte	0x7
 935 0176 C7       		.byte	0xc7
 936 0177 FF000000 		.4byte	0xff
 937 017b 08       		.byte	0x8
 938 017c 07       		.uleb128 0x7
 939 017d C7080000 		.4byte	.LASF32
 940 0181 07       		.byte	0x7
 941 0182 C8       		.byte	0xc8
 942 0183 D3040000 		.4byte	0x4d3
 943 0187 0C       		.byte	0xc
 944 0188 07       		.uleb128 0x7
 945 0189 C0030000 		.4byte	.LASF33
 946 018d 07       		.byte	0x7
 947 018e CA       		.byte	0xca
 948 018f 6A020000 		.4byte	0x26a
 949 0193 10       		.byte	0x10
 950 0194 07       		.uleb128 0x7
 951 0195 8B050000 		.4byte	.LASF34
 952 0199 07       		.byte	0x7
 953 019a CB       		.byte	0xcb
 954 019b 6A020000 		.4byte	0x26a
ARM GAS  C:\Users\Luis\AppData\Local\Temp\ccEHI8EP.s 			page 18


 955 019f 14       		.byte	0x14
 956 01a0 07       		.uleb128 0x7
 957 01a1 FB040000 		.4byte	.LASF35
 958 01a5 07       		.byte	0x7
 959 01a6 D2       		.byte	0xd2
 960 01a7 77070000 		.4byte	0x777
 961 01ab 18       		.byte	0x18
 962 01ac 07       		.uleb128 0x7
 963 01ad 9D050000 		.4byte	.LASF36
 964 01b1 07       		.byte	0x7
 965 01b2 D8       		.byte	0xd8
 966 01b3 89070000 		.4byte	0x789
 967 01b7 1C       		.byte	0x1c
 968 01b8 07       		.uleb128 0x7
 969 01b9 F2050000 		.4byte	.LASF37
 970 01bd 07       		.byte	0x7
 971 01be DD       		.byte	0xdd
 972 01bf E9000000 		.4byte	0xe9
 973 01c3 20       		.byte	0x20
 974 01c4 07       		.uleb128 0x7
 975 01c5 86060000 		.4byte	.LASF38
 976 01c9 07       		.byte	0x7
 977 01ca E1       		.byte	0xe1
 978 01cb DE000000 		.4byte	0xde
 979 01cf 21       		.byte	0x21
 980 01d0 07       		.uleb128 0x7
 981 01d1 4F0A0000 		.4byte	.LASF39
 982 01d5 07       		.byte	0x7
 983 01d6 E6       		.byte	0xe6
 984 01d7 F4000000 		.4byte	0xf4
 985 01db 22       		.byte	0x22
 986 01dc 08       		.uleb128 0x8
 987 01dd 705F7500 		.ascii	"p_u\000"
 988 01e1 07       		.byte	0x7
 989 01e2 3101     		.2byte	0x131
 990 01e4 B2060000 		.4byte	0x6b2
 991 01e8 24       		.byte	0x24
 992 01e9 09       		.uleb128 0x9
 993 01ea 30010000 		.4byte	.LASF40
 994 01ee 07       		.byte	0x7
 995 01ef 3601     		.2byte	0x136
 996 01f1 70020000 		.4byte	0x270
 997 01f5 28       		.byte	0x28
 998 01f6 09       		.uleb128 0x9
 999 01f7 530B0000 		.4byte	.LASF41
 1000 01fb 07       		.byte	0x7
 1001 01fc 3C01     		.2byte	0x13c
 1002 01fe 94020000 		.4byte	0x294
 1003 0202 2C       		.byte	0x2c
 1004 0203 09       		.uleb128 0x9
 1005 0204 18070000 		.4byte	.LASF42
 1006 0208 07       		.byte	0x7
 1007 0209 4001     		.2byte	0x140
 1008 020b 0A010000 		.4byte	0x10a
 1009 020f 34       		.byte	0x34
 1010 0210 09       		.uleb128 0x9
 1011 0211 22080000 		.4byte	.LASF43
ARM GAS  C:\Users\Luis\AppData\Local\Temp\ccEHI8EP.s 			page 19


 1012 0215 07       		.byte	0x7
 1013 0216 4601     		.2byte	0x146
 1014 0218 15010000 		.4byte	0x115
 1015 021c 38       		.byte	0x38
 1016 021d 09       		.uleb128 0x9
 1017 021e DD050000 		.4byte	.LASF44
 1018 0222 07       		.byte	0x7
 1019 0223 4D01     		.2byte	0x14d
 1020 0225 71070000 		.4byte	0x771
 1021 0229 3C       		.byte	0x3c
 1022 022a 09       		.uleb128 0x9
 1023 022b ED070000 		.4byte	.LASF45
 1024 022f 07       		.byte	0x7
 1025 0230 5101     		.2byte	0x151
 1026 0232 FF000000 		.4byte	0xff
 1027 0236 40       		.byte	0x40
 1028 0237 09       		.uleb128 0x9
 1029 0238 D5050000 		.4byte	.LASF46
 1030 023c 07       		.byte	0x7
 1031 023d 5801     		.2byte	0x158
 1032 023f 47030000 		.4byte	0x347
 1033 0243 44       		.byte	0x44
 1034 0244 09       		.uleb128 0x9
 1035 0245 CD050000 		.4byte	.LASF47
 1036 0249 07       		.byte	0x7
 1037 024a 5E01     		.2byte	0x15e
 1038 024c 63060000 		.4byte	0x663
 1039 0250 48       		.byte	0x48
 1040 0251 09       		.uleb128 0x9
 1041 0252 4C0B0000 		.4byte	.LASF48
 1042 0256 07       		.byte	0x7
 1043 0257 6201     		.2byte	0x162
 1044 0259 47030000 		.4byte	0x347
 1045 025d 60       		.byte	0x60
 1046 025e 00       		.byte	0
 1047 025f 03       		.uleb128 0x3
 1048 0260 42000000 		.4byte	.LASF49
 1049 0264 06       		.byte	0x6
 1050 0265 44       		.byte	0x44
 1051 0266 6A020000 		.4byte	0x26a
 1052 026a 0A       		.uleb128 0xa
 1053 026b 04       		.byte	0x4
 1054 026c 41010000 		.4byte	0x141
 1055 0270 03       		.uleb128 0x3
 1056 0271 10010000 		.4byte	.LASF50
 1057 0275 06       		.byte	0x6
 1058 0276 49       		.byte	0x49
 1059 0277 7B020000 		.4byte	0x27b
 1060 027b 06       		.uleb128 0x6
 1061 027c 07000000 		.4byte	.LASF52
 1062 0280 04       		.byte	0x4
 1063 0281 07       		.byte	0x7
 1064 0282 B0       		.byte	0xb0
 1065 0283 94020000 		.4byte	0x294
 1066 0287 07       		.uleb128 0x7
 1067 0288 15040000 		.4byte	.LASF29
 1068 028c 07       		.byte	0x7
ARM GAS  C:\Users\Luis\AppData\Local\Temp\ccEHI8EP.s 			page 20


 1069 028d B1       		.byte	0xb1
 1070 028e 6A020000 		.4byte	0x26a
 1071 0292 00       		.byte	0
 1072 0293 00       		.byte	0
 1073 0294 03       		.uleb128 0x3
 1074 0295 17000000 		.4byte	.LASF53
 1075 0299 06       		.byte	0x6
 1076 029a 50       		.byte	0x50
 1077 029b 9F020000 		.4byte	0x29f
 1078 029f 06       		.uleb128 0x6
 1079 02a0 2F060000 		.4byte	.LASF54
 1080 02a4 08       		.byte	0x8
 1081 02a5 07       		.byte	0x7
 1082 02a6 B7       		.byte	0xb7
 1083 02a7 C4020000 		.4byte	0x2c4
 1084 02ab 07       		.uleb128 0x7
 1085 02ac 15040000 		.4byte	.LASF29
 1086 02b0 07       		.byte	0x7
 1087 02b1 B8       		.byte	0xb8
 1088 02b2 6A020000 		.4byte	0x26a
 1089 02b6 00       		.byte	0
 1090 02b7 07       		.uleb128 0x7
 1091 02b8 6B090000 		.4byte	.LASF30
 1092 02bc 07       		.byte	0x7
 1093 02bd B9       		.byte	0xb9
 1094 02be 6A020000 		.4byte	0x26a
 1095 02c2 04       		.byte	0x4
 1096 02c3 00       		.byte	0
 1097 02c4 03       		.uleb128 0x3
 1098 02c5 97090000 		.4byte	.LASF55
 1099 02c9 06       		.byte	0x6
 1100 02ca 57       		.byte	0x57
 1101 02cb CF020000 		.4byte	0x2cf
 1102 02cf 0B       		.uleb128 0xb
 1103 02d0 49020000 		.4byte	.LASF56
 1104 02d4 1C       		.byte	0x1c
 1105 02d5 07       		.byte	0x7
 1106 02d6 9001     		.2byte	0x190
 1107 02d8 2B030000 		.4byte	0x32b
 1108 02dc 09       		.uleb128 0x9
 1109 02dd 46060000 		.4byte	.LASF57
 1110 02e1 07       		.byte	0x7
 1111 02e2 9101     		.2byte	0x191
 1112 02e4 94020000 		.4byte	0x294
 1113 02e8 00       		.byte	0
 1114 02e9 09       		.uleb128 0x9
 1115 02ea F8020000 		.4byte	.LASF58
 1116 02ee 07       		.byte	0x7
 1117 02ef 9201     		.2byte	0x192
 1118 02f1 FF000000 		.4byte	0xff
 1119 02f5 08       		.byte	0x8
 1120 02f6 09       		.uleb128 0x9
 1121 02f7 460B0000 		.4byte	.LASF59
 1122 02fb 07       		.byte	0x7
 1123 02fc 9401     		.2byte	0x194
 1124 02fe D3040000 		.4byte	0x4d3
 1125 0302 0C       		.byte	0xc
ARM GAS  C:\Users\Luis\AppData\Local\Temp\ccEHI8EP.s 			page 21


 1126 0303 09       		.uleb128 0x9
 1127 0304 66060000 		.4byte	.LASF60
 1128 0308 07       		.byte	0x7
 1129 0309 9701     		.2byte	0x197
 1130 030b 6A020000 		.4byte	0x26a
 1131 030f 10       		.byte	0x10
 1132 0310 09       		.uleb128 0x9
 1133 0311 DA060000 		.4byte	.LASF61
 1134 0315 07       		.byte	0x7
 1135 0316 9801     		.2byte	0x198
 1136 0318 6A020000 		.4byte	0x26a
 1137 031c 14       		.byte	0x14
 1138 031d 09       		.uleb128 0x9
 1139 031e 18080000 		.4byte	.LASF62
 1140 0322 07       		.byte	0x7
 1141 0323 9B01     		.2byte	0x19b
 1142 0325 6A020000 		.4byte	0x26a
 1143 0329 18       		.byte	0x18
 1144 032a 00       		.byte	0
 1145 032b 03       		.uleb128 0x3
 1146 032c 96020000 		.4byte	.LASF63
 1147 0330 06       		.byte	0x6
 1148 0331 5C       		.byte	0x5c
 1149 0332 36030000 		.4byte	0x336
 1150 0336 0A       		.uleb128 0xa
 1151 0337 04       		.byte	0x4
 1152 0338 3C030000 		.4byte	0x33c
 1153 033c 0C       		.uleb128 0xc
 1154 033d 47030000 		.4byte	0x347
 1155 0341 0D       		.uleb128 0xd
 1156 0342 47030000 		.4byte	0x347
 1157 0346 00       		.byte	0
 1158 0347 0E       		.uleb128 0xe
 1159 0348 04       		.byte	0x4
 1160 0349 03       		.uleb128 0x3
 1161 034a 8E060000 		.4byte	.LASF64
 1162 034e 06       		.byte	0x6
 1163 034f 61       		.byte	0x61
 1164 0350 54030000 		.4byte	0x354
 1165 0354 0B       		.uleb128 0xb
 1166 0355 46030000 		.4byte	.LASF65
 1167 0359 14       		.byte	0x14
 1168 035a 07       		.byte	0x7
 1169 035b 6B01     		.2byte	0x16b
 1170 035d A3030000 		.4byte	0x3a3
 1171 0361 09       		.uleb128 0x9
 1172 0362 B60A0000 		.4byte	.LASF66
 1173 0366 07       		.byte	0x7
 1174 0367 6C01     		.2byte	0x16c
 1175 0369 8F070000 		.4byte	0x78f
 1176 036d 00       		.byte	0
 1177 036e 09       		.uleb128 0x9
 1178 036f 880B0000 		.4byte	.LASF67
 1179 0373 07       		.byte	0x7
 1180 0374 6D01     		.2byte	0x16d
 1181 0376 8F070000 		.4byte	0x78f
 1182 037a 04       		.byte	0x4
ARM GAS  C:\Users\Luis\AppData\Local\Temp\ccEHI8EP.s 			page 22


 1183 037b 09       		.uleb128 0x9
 1184 037c 2B050000 		.4byte	.LASF68
 1185 0380 07       		.byte	0x7
 1186 0381 6E01     		.2byte	0x16e
 1187 0383 36010000 		.4byte	0x136
 1188 0387 08       		.byte	0x8
 1189 0388 09       		.uleb128 0x9
 1190 0389 740B0000 		.4byte	.LASF69
 1191 038d 07       		.byte	0x7
 1192 038e 6F01     		.2byte	0x16f
 1193 0390 2B030000 		.4byte	0x32b
 1194 0394 0C       		.byte	0xc
 1195 0395 09       		.uleb128 0x9
 1196 0396 090A0000 		.4byte	.LASF70
 1197 039a 07       		.byte	0x7
 1198 039b 7101     		.2byte	0x171
 1199 039d 47030000 		.4byte	0x347
 1200 03a1 10       		.byte	0x10
 1201 03a2 00       		.byte	0
 1202 03a3 03       		.uleb128 0x3
 1203 03a4 390A0000 		.4byte	.LASF71
 1204 03a8 06       		.byte	0x6
 1205 03a9 66       		.byte	0x66
 1206 03aa AE030000 		.4byte	0x3ae
 1207 03ae 0B       		.uleb128 0xb
 1208 03af C8030000 		.4byte	.LASF72
 1209 03b3 10       		.byte	0x10
 1210 03b4 07       		.byte	0x7
 1211 03b5 7B01     		.2byte	0x17b
 1212 03b7 F0030000 		.4byte	0x3f0
 1213 03bb 09       		.uleb128 0x9
 1214 03bc B60A0000 		.4byte	.LASF66
 1215 03c0 07       		.byte	0x7
 1216 03c1 7C01     		.2byte	0x17c
 1217 03c3 8F070000 		.4byte	0x78f
 1218 03c7 00       		.byte	0
 1219 03c8 09       		.uleb128 0x9
 1220 03c9 880B0000 		.4byte	.LASF67
 1221 03cd 07       		.byte	0x7
 1222 03ce 7E01     		.2byte	0x17e
 1223 03d0 8F070000 		.4byte	0x78f
 1224 03d4 04       		.byte	0x4
 1225 03d5 09       		.uleb128 0x9
 1226 03d6 2B050000 		.4byte	.LASF68
 1227 03da 07       		.byte	0x7
 1228 03db 8001     		.2byte	0x180
 1229 03dd 36010000 		.4byte	0x136
 1230 03e1 08       		.byte	0x8
 1231 03e2 09       		.uleb128 0x9
 1232 03e3 51050000 		.4byte	.LASF73
 1233 03e7 07       		.byte	0x7
 1234 03e8 8801     		.2byte	0x188
 1235 03ea 36010000 		.4byte	0x136
 1236 03ee 0C       		.byte	0xc
 1237 03ef 00       		.byte	0
 1238 03f0 03       		.uleb128 0x3
 1239 03f1 14060000 		.4byte	.LASF74
ARM GAS  C:\Users\Luis\AppData\Local\Temp\ccEHI8EP.s 			page 23


 1240 03f5 06       		.byte	0x6
 1241 03f6 6B       		.byte	0x6b
 1242 03f7 FB030000 		.4byte	0x3fb
 1243 03fb 0F       		.uleb128 0xf
 1244 03fc AC020000 		.4byte	.LASF75
 1245 0400 1404     		.2byte	0x414
 1246 0402 07       		.byte	0x7
 1247 0403 A201     		.2byte	0x1a2
 1248 0405 3E040000 		.4byte	0x43e
 1249 0409 09       		.uleb128 0x9
 1250 040a 06070000 		.4byte	.LASF76
 1251 040e 07       		.byte	0x7
 1252 040f AA01     		.2byte	0x1aa
 1253 0411 95070000 		.4byte	0x795
 1254 0415 00       		.byte	0
 1255 0416 09       		.uleb128 0x9
 1256 0417 A6030000 		.4byte	.LASF77
 1257 041b 07       		.byte	0x7
 1258 041c AF01     		.2byte	0x1af
 1259 041e 20010000 		.4byte	0x120
 1260 0422 04       		.byte	0x4
 1261 0423 09       		.uleb128 0x9
 1262 0424 8C070000 		.4byte	.LASF78
 1263 0428 07       		.byte	0x7
 1264 0429 B301     		.2byte	0x1b3
 1265 042b 20010000 		.4byte	0x120
 1266 042f 08       		.byte	0x8
 1267 0430 09       		.uleb128 0x9
 1268 0431 D6090000 		.4byte	.LASF79
 1269 0435 07       		.byte	0x7
 1270 0436 B901     		.2byte	0x1b9
 1271 0438 F5050000 		.4byte	0x5f5
 1272 043c 0C       		.byte	0xc
 1273 043d 00       		.byte	0
 1274 043e 03       		.uleb128 0x3
 1275 043f EF0A0000 		.4byte	.LASF80
 1276 0443 06       		.byte	0x6
 1277 0444 70       		.byte	0x70
 1278 0445 49040000 		.4byte	0x449
 1279 0449 0F       		.uleb128 0xf
 1280 044a 77080000 		.4byte	.LASF81
 1281 044e E805     		.2byte	0x5e8
 1282 0450 07       		.byte	0x7
 1283 0451 C201     		.2byte	0x1c2
 1284 0453 B6040000 		.4byte	0x4b6
 1285 0457 09       		.uleb128 0x9
 1286 0458 D2080000 		.4byte	.LASF82
 1287 045c 07       		.byte	0x7
 1288 045d C601     		.2byte	0x1c6
 1289 045f C4020000 		.4byte	0x2c4
 1290 0463 00       		.byte	0
 1291 0464 09       		.uleb128 0x9
 1292 0465 2F020000 		.4byte	.LASF83
 1293 0469 07       		.byte	0x7
 1294 046a CA01     		.2byte	0x1ca
 1295 046c A3030000 		.4byte	0x3a3
 1296 0470 1C       		.byte	0x1c
ARM GAS  C:\Users\Luis\AppData\Local\Temp\ccEHI8EP.s 			page 24


 1297 0471 08       		.uleb128 0x8
 1298 0472 64626700 		.ascii	"dbg\000"
 1299 0476 07       		.byte	0x7
 1300 0477 CE01     		.2byte	0x1ce
 1301 0479 F0030000 		.4byte	0x3f0
 1302 047d 2C       		.byte	0x2c
 1303 047e 10       		.uleb128 0x10
 1304 047f 3E070000 		.4byte	.LASF84
 1305 0483 07       		.byte	0x7
 1306 0484 D201     		.2byte	0x1d2
 1307 0486 41010000 		.4byte	0x141
 1308 048a 4004     		.2byte	0x440
 1309 048c 11       		.uleb128 0x11
 1310 048d 746D00   		.ascii	"tm\000"
 1311 0490 07       		.byte	0x7
 1312 0491 D701     		.2byte	0x1d7
 1313 0493 15060000 		.4byte	0x615
 1314 0497 A804     		.2byte	0x4a8
 1315 0499 10       		.uleb128 0x10
 1316 049a 06030000 		.4byte	.LASF85
 1317 049e 07       		.byte	0x7
 1318 049f DD01     		.2byte	0x1dd
 1319 04a1 A7060000 		.4byte	0x6a7
 1320 04a5 B004     		.2byte	0x4b0
 1321 04a7 10       		.uleb128 0x10
 1322 04a8 57020000 		.4byte	.LASF86
 1323 04ac 07       		.byte	0x7
 1324 04ad E301     		.2byte	0x1e3
 1325 04af 9A070000 		.4byte	0x79a
 1326 04b3 E804     		.2byte	0x4e8
 1327 04b5 00       		.byte	0
 1328 04b6 04       		.uleb128 0x4
 1329 04b7 04       		.byte	0x4
 1330 04b8 07       		.byte	0x7
 1331 04b9 E4070000 		.4byte	.LASF87
 1332 04bd 03       		.uleb128 0x3
 1333 04be 65000000 		.4byte	.LASF88
 1334 04c2 08       		.byte	0x8
 1335 04c3 65       		.byte	0x65
 1336 04c4 47030000 		.4byte	0x347
 1337 04c8 03       		.uleb128 0x3
 1338 04c9 860A0000 		.4byte	.LASF89
 1339 04cd 08       		.byte	0x8
 1340 04ce 6D       		.byte	0x6d
 1341 04cf B1000000 		.4byte	0xb1
 1342 04d3 06       		.uleb128 0x6
 1343 04d4 10070000 		.4byte	.LASF90
 1344 04d8 04       		.byte	0x4
 1345 04d9 08       		.byte	0x8
 1346 04da 89       		.byte	0x89
 1347 04db EC040000 		.4byte	0x4ec
 1348 04df 12       		.uleb128 0x12
 1349 04e0 72313300 		.ascii	"r13\000"
 1350 04e4 08       		.byte	0x8
 1351 04e5 8A       		.byte	0x8a
 1352 04e6 67050000 		.4byte	0x567
 1353 04ea 00       		.byte	0
ARM GAS  C:\Users\Luis\AppData\Local\Temp\ccEHI8EP.s 			page 25


 1354 04eb 00       		.byte	0
 1355 04ec 06       		.uleb128 0x6
 1356 04ed 3E080000 		.4byte	.LASF91
 1357 04f1 24       		.byte	0x24
 1358 04f2 09       		.byte	0x9
 1359 04f3 F4       		.byte	0xf4
 1360 04f4 67050000 		.4byte	0x567
 1361 04f8 08       		.uleb128 0x8
 1362 04f9 723400   		.ascii	"r4\000"
 1363 04fc 09       		.byte	0x9
 1364 04fd 0701     		.2byte	0x107
 1365 04ff BD040000 		.4byte	0x4bd
 1366 0503 00       		.byte	0
 1367 0504 08       		.uleb128 0x8
 1368 0505 723500   		.ascii	"r5\000"
 1369 0508 09       		.byte	0x9
 1370 0509 0801     		.2byte	0x108
 1371 050b BD040000 		.4byte	0x4bd
 1372 050f 04       		.byte	0x4
 1373 0510 08       		.uleb128 0x8
 1374 0511 723600   		.ascii	"r6\000"
 1375 0514 09       		.byte	0x9
 1376 0515 0901     		.2byte	0x109
 1377 0517 BD040000 		.4byte	0x4bd
 1378 051b 08       		.byte	0x8
 1379 051c 08       		.uleb128 0x8
 1380 051d 723700   		.ascii	"r7\000"
 1381 0520 09       		.byte	0x9
 1382 0521 0A01     		.2byte	0x10a
 1383 0523 BD040000 		.4byte	0x4bd
 1384 0527 0C       		.byte	0xc
 1385 0528 08       		.uleb128 0x8
 1386 0529 723800   		.ascii	"r8\000"
 1387 052c 09       		.byte	0x9
 1388 052d 0B01     		.2byte	0x10b
 1389 052f BD040000 		.4byte	0x4bd
 1390 0533 10       		.byte	0x10
 1391 0534 08       		.uleb128 0x8
 1392 0535 723900   		.ascii	"r9\000"
 1393 0538 09       		.byte	0x9
 1394 0539 0C01     		.2byte	0x10c
 1395 053b BD040000 		.4byte	0x4bd
 1396 053f 14       		.byte	0x14
 1397 0540 08       		.uleb128 0x8
 1398 0541 72313000 		.ascii	"r10\000"
 1399 0545 09       		.byte	0x9
 1400 0546 0D01     		.2byte	0x10d
 1401 0548 BD040000 		.4byte	0x4bd
 1402 054c 18       		.byte	0x18
 1403 054d 08       		.uleb128 0x8
 1404 054e 72313100 		.ascii	"r11\000"
 1405 0552 09       		.byte	0x9
 1406 0553 0E01     		.2byte	0x10e
 1407 0555 BD040000 		.4byte	0x4bd
 1408 0559 1C       		.byte	0x1c
 1409 055a 08       		.uleb128 0x8
 1410 055b 6C7200   		.ascii	"lr\000"
ARM GAS  C:\Users\Luis\AppData\Local\Temp\ccEHI8EP.s 			page 26


 1411 055e 09       		.byte	0x9
 1412 055f 0F01     		.2byte	0x10f
 1413 0561 BD040000 		.4byte	0x4bd
 1414 0565 20       		.byte	0x20
 1415 0566 00       		.byte	0
 1416 0567 0A       		.uleb128 0xa
 1417 0568 04       		.byte	0x4
 1418 0569 EC040000 		.4byte	0x4ec
 1419 056d 13       		.uleb128 0x13
 1420 056e 10       		.byte	0x10
 1421 056f 0A       		.byte	0xa
 1422 0570 51       		.byte	0x51
 1423 0571 A6050000 		.4byte	0x5a6
 1424 0575 07       		.uleb128 0x7
 1425 0576 04040000 		.4byte	.LASF92
 1426 057a 0A       		.byte	0xa
 1427 057b 55       		.byte	0x55
 1428 057c 36010000 		.4byte	0x136
 1429 0580 00       		.byte	0
 1430 0581 07       		.uleb128 0x7
 1431 0582 77050000 		.4byte	.LASF93
 1432 0586 0A       		.byte	0xa
 1433 0587 59       		.byte	0x59
 1434 0588 6A020000 		.4byte	0x26a
 1435 058c 04       		.byte	0x4
 1436 058d 07       		.uleb128 0x7
 1437 058e 7E030000 		.4byte	.LASF94
 1438 0592 0A       		.byte	0xa
 1439 0593 5D       		.byte	0x5d
 1440 0594 47030000 		.4byte	0x347
 1441 0598 08       		.byte	0x8
 1442 0599 07       		.uleb128 0x7
 1443 059a 3A010000 		.4byte	.LASF95
 1444 059e 0A       		.byte	0xa
 1445 059f 61       		.byte	0x61
 1446 05a0 50000000 		.4byte	0x50
 1447 05a4 0C       		.byte	0xc
 1448 05a5 00       		.byte	0
 1449 05a6 03       		.uleb128 0x3
 1450 05a7 EA090000 		.4byte	.LASF96
 1451 05ab 0A       		.byte	0xa
 1452 05ac 62       		.byte	0x62
 1453 05ad 6D050000 		.4byte	0x56d
 1454 05b1 14       		.uleb128 0x14
 1455 05b2 0804     		.2byte	0x408
 1456 05b4 0A       		.byte	0xa
 1457 05b5 67       		.byte	0x67
 1458 05b6 DF050000 		.4byte	0x5df
 1459 05ba 07       		.uleb128 0x7
 1460 05bb 04060000 		.4byte	.LASF97
 1461 05bf 0A       		.byte	0xa
 1462 05c0 6B       		.byte	0x6b
 1463 05c1 37000000 		.4byte	0x37
 1464 05c5 00       		.byte	0
 1465 05c6 07       		.uleb128 0x7
 1466 05c7 C7060000 		.4byte	.LASF98
 1467 05cb 0A       		.byte	0xa
ARM GAS  C:\Users\Luis\AppData\Local\Temp\ccEHI8EP.s 			page 27


 1468 05cc 6F       		.byte	0x6f
 1469 05cd DF050000 		.4byte	0x5df
 1470 05d1 04       		.byte	0x4
 1471 05d2 07       		.uleb128 0x7
 1472 05d3 B6060000 		.4byte	.LASF99
 1473 05d7 0A       		.byte	0xa
 1474 05d8 73       		.byte	0x73
 1475 05d9 E5050000 		.4byte	0x5e5
 1476 05dd 08       		.byte	0x8
 1477 05de 00       		.byte	0
 1478 05df 0A       		.uleb128 0xa
 1479 05e0 04       		.byte	0x4
 1480 05e1 A6050000 		.4byte	0x5a6
 1481 05e5 15       		.uleb128 0x15
 1482 05e6 A6050000 		.4byte	0x5a6
 1483 05ea F5050000 		.4byte	0x5f5
 1484 05ee 16       		.uleb128 0x16
 1485 05ef B6040000 		.4byte	0x4b6
 1486 05f3 3F       		.byte	0x3f
 1487 05f4 00       		.byte	0
 1488 05f5 03       		.uleb128 0x3
 1489 05f6 060B0000 		.4byte	.LASF100
 1490 05fa 0A       		.byte	0xa
 1491 05fb 74       		.byte	0x74
 1492 05fc B1050000 		.4byte	0x5b1
 1493 0600 13       		.uleb128 0x13
 1494 0601 04       		.byte	0x4
 1495 0602 0B       		.byte	0xb
 1496 0603 38       		.byte	0x38
 1497 0604 15060000 		.4byte	0x615
 1498 0608 07       		.uleb128 0x7
 1499 0609 4C040000 		.4byte	.LASF101
 1500 060d 0B       		.byte	0xb
 1501 060e 3C       		.byte	0x3c
 1502 060f C8000000 		.4byte	0xc8
 1503 0613 00       		.byte	0
 1504 0614 00       		.byte	0
 1505 0615 03       		.uleb128 0x3
 1506 0616 1E070000 		.4byte	.LASF102
 1507 061a 0B       		.byte	0xb
 1508 061b 3D       		.byte	0x3d
 1509 061c 00060000 		.4byte	0x600
 1510 0620 13       		.uleb128 0x13
 1511 0621 18       		.byte	0x18
 1512 0622 0B       		.byte	0xb
 1513 0623 48       		.byte	0x48
 1514 0624 63060000 		.4byte	0x663
 1515 0628 07       		.uleb128 0x7
 1516 0629 100A0000 		.4byte	.LASF103
 1517 062d 0B       		.byte	0xb
 1518 062e 49       		.byte	0x49
 1519 062f C8000000 		.4byte	0xc8
 1520 0633 00       		.byte	0
 1521 0634 07       		.uleb128 0x7
 1522 0635 AE030000 		.4byte	.LASF104
 1523 0639 0B       		.byte	0xb
 1524 063a 4A       		.byte	0x4a
ARM GAS  C:\Users\Luis\AppData\Local\Temp\ccEHI8EP.s 			page 28


 1525 063b C8000000 		.4byte	0xc8
 1526 063f 04       		.byte	0x4
 1527 0640 07       		.uleb128 0x7
 1528 0641 A7040000 		.4byte	.LASF105
 1529 0645 0B       		.byte	0xb
 1530 0646 4B       		.byte	0x4b
 1531 0647 C8000000 		.4byte	0xc8
 1532 064b 08       		.byte	0x8
 1533 064c 12       		.uleb128 0x12
 1534 064d 6E00     		.ascii	"n\000"
 1535 064f 0B       		.byte	0xb
 1536 0650 4C       		.byte	0x4c
 1537 0651 2B010000 		.4byte	0x12b
 1538 0655 0C       		.byte	0xc
 1539 0656 07       		.uleb128 0x7
 1540 0657 25010000 		.4byte	.LASF106
 1541 065b 0B       		.byte	0xb
 1542 065c 4D       		.byte	0x4d
 1543 065d D3000000 		.4byte	0xd3
 1544 0661 10       		.byte	0x10
 1545 0662 00       		.byte	0
 1546 0663 03       		.uleb128 0x3
 1547 0664 E1040000 		.4byte	.LASF107
 1548 0668 0B       		.byte	0xb
 1549 0669 4E       		.byte	0x4e
 1550 066a 20060000 		.4byte	0x620
 1551 066e 13       		.uleb128 0x13
 1552 066f 38       		.byte	0x38
 1553 0670 0C       		.byte	0xc
 1554 0671 38       		.byte	0x38
 1555 0672 A7060000 		.4byte	0x6a7
 1556 0676 07       		.uleb128 0x7
 1557 0677 DE070000 		.4byte	.LASF108
 1558 067b 0C       		.byte	0xc
 1559 067c 39       		.byte	0x39
 1560 067d 2B010000 		.4byte	0x12b
 1561 0681 00       		.byte	0
 1562 0682 07       		.uleb128 0x7
 1563 0683 F1060000 		.4byte	.LASF109
 1564 0687 0C       		.byte	0xc
 1565 0688 3A       		.byte	0x3a
 1566 0689 2B010000 		.4byte	0x12b
 1567 068d 04       		.byte	0x4
 1568 068e 07       		.uleb128 0x7
 1569 068f 81080000 		.4byte	.LASF110
 1570 0693 0C       		.byte	0xc
 1571 0694 3B       		.byte	0x3b
 1572 0695 63060000 		.4byte	0x663
 1573 0699 08       		.byte	0x8
 1574 069a 07       		.uleb128 0x7
 1575 069b F7000000 		.4byte	.LASF111
 1576 069f 0C       		.byte	0xc
 1577 06a0 3D       		.byte	0x3d
 1578 06a1 63060000 		.4byte	0x663
 1579 06a5 20       		.byte	0x20
 1580 06a6 00       		.byte	0
 1581 06a7 03       		.uleb128 0x3
ARM GAS  C:\Users\Luis\AppData\Local\Temp\ccEHI8EP.s 			page 29


 1582 06a8 DD020000 		.4byte	.LASF112
 1583 06ac 0C       		.byte	0xc
 1584 06ad 3F       		.byte	0x3f
 1585 06ae 6E060000 		.4byte	0x66e
 1586 06b2 17       		.uleb128 0x17
 1587 06b3 04       		.byte	0x4
 1588 06b4 07       		.byte	0x7
 1589 06b5 FA       		.byte	0xfa
 1590 06b6 0F070000 		.4byte	0x70f
 1591 06ba 18       		.uleb128 0x18
 1592 06bb 33040000 		.4byte	.LASF113
 1593 06bf 07       		.byte	0x7
 1594 06c0 0101     		.2byte	0x101
 1595 06c2 0A010000 		.4byte	0x10a
 1596 06c6 18       		.uleb128 0x18
 1597 06c7 BA0B0000 		.4byte	.LASF114
 1598 06cb 07       		.byte	0x7
 1599 06cc 0801     		.2byte	0x108
 1600 06ce 0A010000 		.4byte	0x10a
 1601 06d2 18       		.uleb128 0x18
 1602 06d3 9F020000 		.4byte	.LASF115
 1603 06d7 07       		.byte	0x7
 1604 06d8 0F01     		.2byte	0x10f
 1605 06da 47030000 		.4byte	0x347
 1606 06de 18       		.uleb128 0x18
 1607 06df FB0A0000 		.4byte	.LASF116
 1608 06e3 07       		.byte	0x7
 1609 06e4 1601     		.2byte	0x116
 1610 06e6 0F070000 		.4byte	0x70f
 1611 06ea 18       		.uleb128 0x18
 1612 06eb E3090000 		.4byte	.LASF117
 1613 06ef 07       		.byte	0x7
 1614 06f0 1E01     		.2byte	0x11e
 1615 06f2 3A070000 		.4byte	0x73a
 1616 06f6 18       		.uleb128 0x18
 1617 06f7 27000000 		.4byte	.LASF118
 1618 06fb 07       		.byte	0x7
 1619 06fc 2701     		.2byte	0x127
 1620 06fe 71070000 		.4byte	0x771
 1621 0702 18       		.uleb128 0x18
 1622 0703 66020000 		.4byte	.LASF119
 1623 0707 07       		.byte	0x7
 1624 0708 2F01     		.2byte	0x12f
 1625 070a 15010000 		.4byte	0x115
 1626 070e 00       		.byte	0
 1627 070f 0A       		.uleb128 0xa
 1628 0710 04       		.byte	0x4
 1629 0711 5F020000 		.4byte	0x25f
 1630 0715 06       		.uleb128 0x6
 1631 0716 31030000 		.4byte	.LASF120
 1632 071a 0C       		.byte	0xc
 1633 071b 0D       		.byte	0xd
 1634 071c 34       		.byte	0x34
 1635 071d 3A070000 		.4byte	0x73a
 1636 0721 07       		.uleb128 0x7
 1637 0722 C2000000 		.4byte	.LASF121
 1638 0726 0D       		.byte	0xd
ARM GAS  C:\Users\Luis\AppData\Local\Temp\ccEHI8EP.s 			page 30


 1639 0727 35       		.byte	0x35
 1640 0728 94020000 		.4byte	0x294
 1641 072c 00       		.byte	0
 1642 072d 07       		.uleb128 0x7
 1643 072e A6020000 		.4byte	.LASF122
 1644 0732 0D       		.byte	0xd
 1645 0733 37       		.byte	0x37
 1646 0734 20010000 		.4byte	0x120
 1647 0738 08       		.byte	0x8
 1648 0739 00       		.byte	0
 1649 073a 0A       		.uleb128 0xa
 1650 073b 04       		.byte	0x4
 1651 073c 15070000 		.4byte	0x715
 1652 0740 06       		.uleb128 0x6
 1653 0741 88040000 		.4byte	.LASF123
 1654 0745 10       		.byte	0x10
 1655 0746 0E       		.byte	0xe
 1656 0747 39       		.byte	0x39
 1657 0748 71070000 		.4byte	0x771
 1658 074c 07       		.uleb128 0x7
 1659 074d 2D080000 		.4byte	.LASF124
 1660 0751 0E       		.byte	0xe
 1661 0752 3A       		.byte	0x3a
 1662 0753 94020000 		.4byte	0x294
 1663 0757 00       		.byte	0
 1664 0758 07       		.uleb128 0x7
 1665 0759 BA000000 		.4byte	.LASF125
 1666 075d 0E       		.byte	0xe
 1667 075e 3C       		.byte	0x3c
 1668 075f 6A020000 		.4byte	0x26a
 1669 0763 08       		.byte	0x8
 1670 0764 07       		.uleb128 0x7
 1671 0765 180B0000 		.4byte	.LASF126
 1672 0769 0E       		.byte	0xe
 1673 076a 3E       		.byte	0x3e
 1674 076b C0070000 		.4byte	0x7c0
 1675 076f 0C       		.byte	0xc
 1676 0770 00       		.byte	0
 1677 0771 0A       		.uleb128 0xa
 1678 0772 04       		.byte	0x4
 1679 0773 40070000 		.4byte	0x740
 1680 0777 0A       		.uleb128 0xa
 1681 0778 04       		.byte	0x4
 1682 0779 7D070000 		.4byte	0x77d
 1683 077d 19       		.uleb128 0x19
 1684 077e 82070000 		.4byte	0x782
 1685 0782 04       		.uleb128 0x4
 1686 0783 01       		.byte	0x1
 1687 0784 08       		.byte	0x8
 1688 0785 60000000 		.4byte	.LASF127
 1689 0789 0A       		.uleb128 0xa
 1690 078a 04       		.byte	0x4
 1691 078b C8040000 		.4byte	0x4c8
 1692 078f 0A       		.uleb128 0xa
 1693 0790 04       		.byte	0x4
 1694 0791 49030000 		.4byte	0x349
 1695 0795 05       		.uleb128 0x5
ARM GAS  C:\Users\Luis\AppData\Local\Temp\ccEHI8EP.s 			page 31


 1696 0796 77070000 		.4byte	0x777
 1697 079a 15       		.uleb128 0x15
 1698 079b C8040000 		.4byte	0x4c8
 1699 079f AA070000 		.4byte	0x7aa
 1700 07a3 16       		.uleb128 0x16
 1701 07a4 B6040000 		.4byte	0x4b6
 1702 07a8 1F       		.byte	0x1f
 1703 07a9 00       		.byte	0
 1704 07aa 03       		.uleb128 0x3
 1705 07ab B4030000 		.4byte	.LASF128
 1706 07af 0D       		.byte	0xd
 1707 07b0 38       		.byte	0x38
 1708 07b1 15070000 		.4byte	0x715
 1709 07b5 03       		.uleb128 0x3
 1710 07b6 F9090000 		.4byte	.LASF129
 1711 07ba 0E       		.byte	0xe
 1712 07bb 34       		.byte	0x34
 1713 07bc 40070000 		.4byte	0x740
 1714 07c0 0A       		.uleb128 0xa
 1715 07c1 04       		.byte	0x4
 1716 07c2 B5070000 		.4byte	0x7b5
 1717 07c6 13       		.uleb128 0x13
 1718 07c7 28       		.byte	0x28
 1719 07c8 0F       		.byte	0xf
 1720 07c9 38       		.byte	0x38
 1721 07ca 17080000 		.4byte	0x817
 1722 07ce 07       		.uleb128 0x7
 1723 07cf 93050000 		.4byte	.LASF130
 1724 07d3 0F       		.byte	0xf
 1725 07d4 39       		.byte	0x39
 1726 07d5 17080000 		.4byte	0x817
 1727 07d9 00       		.byte	0
 1728 07da 07       		.uleb128 0x7
 1729 07db C0060000 		.4byte	.LASF131
 1730 07df 0F       		.byte	0xf
 1731 07e0 3B       		.byte	0x3b
 1732 07e1 17080000 		.4byte	0x817
 1733 07e5 04       		.byte	0x4
 1734 07e6 07       		.uleb128 0x7
 1735 07e7 0F080000 		.4byte	.LASF132
 1736 07eb 0F       		.byte	0xf
 1737 07ec 3D       		.byte	0x3d
 1738 07ed 17080000 		.4byte	0x817
 1739 07f1 08       		.byte	0x8
 1740 07f2 07       		.uleb128 0x7
 1741 07f3 6D040000 		.4byte	.LASF133
 1742 07f7 0F       		.byte	0xf
 1743 07f8 3E       		.byte	0x3e
 1744 07f9 17080000 		.4byte	0x817
 1745 07fd 0C       		.byte	0xc
 1746 07fe 07       		.uleb128 0x7
 1747 07ff B5050000 		.4byte	.LASF134
 1748 0803 0F       		.byte	0xf
 1749 0804 3F       		.byte	0x3f
 1750 0805 AA070000 		.4byte	0x7aa
 1751 0809 10       		.byte	0x10
 1752 080a 07       		.uleb128 0x7
ARM GAS  C:\Users\Luis\AppData\Local\Temp\ccEHI8EP.s 			page 32


 1753 080b AC040000 		.4byte	.LASF135
 1754 080f 0F       		.byte	0xf
 1755 0810 41       		.byte	0x41
 1756 0811 AA070000 		.4byte	0x7aa
 1757 0815 1C       		.byte	0x1c
 1758 0816 00       		.byte	0
 1759 0817 0A       		.uleb128 0xa
 1760 0818 04       		.byte	0x4
 1761 0819 0A010000 		.4byte	0x10a
 1762 081d 03       		.uleb128 0x3
 1763 081e 76040000 		.4byte	.LASF136
 1764 0822 0F       		.byte	0xf
 1765 0823 43       		.byte	0x43
 1766 0824 C6070000 		.4byte	0x7c6
 1767 0828 04       		.uleb128 0x4
 1768 0829 01       		.byte	0x1
 1769 082a 02       		.byte	0x2
 1770 082b 67040000 		.4byte	.LASF137
 1771 082f 03       		.uleb128 0x3
 1772 0830 81060000 		.4byte	.LASF138
 1773 0834 10       		.byte	0x10
 1774 0835 38       		.byte	0x38
 1775 0836 50000000 		.4byte	0x50
 1776 083a 03       		.uleb128 0x3
 1777 083b A2040000 		.4byte	.LASF139
 1778 083f 10       		.byte	0x10
 1779 0840 39       		.byte	0x39
 1780 0841 3E000000 		.4byte	0x3e
 1781 0845 03       		.uleb128 0x3
 1782 0846 43010000 		.4byte	.LASF140
 1783 084a 10       		.byte	0x10
 1784 084b 3A       		.byte	0x3a
 1785 084c 74000000 		.4byte	0x74
 1786 0850 03       		.uleb128 0x3
 1787 0851 AB090000 		.4byte	.LASF141
 1788 0855 10       		.byte	0x10
 1789 0856 3B       		.byte	0x3b
 1790 0857 62000000 		.4byte	0x62
 1791 085b 03       		.uleb128 0x3
 1792 085c FF070000 		.4byte	.LASF142
 1793 0860 10       		.byte	0x10
 1794 0861 3C       		.byte	0x3c
 1795 0862 98000000 		.4byte	0x98
 1796 0866 03       		.uleb128 0x3
 1797 0867 1F010000 		.4byte	.LASF143
 1798 086b 11       		.byte	0x11
 1799 086c 2F       		.byte	0x2f
 1800 086d 3A080000 		.4byte	0x83a
 1801 0871 03       		.uleb128 0x3
 1802 0872 72090000 		.4byte	.LASF144
 1803 0876 12       		.byte	0x12
 1804 0877 39       		.byte	0x39
 1805 0878 7C080000 		.4byte	0x87c
 1806 087c 0A       		.uleb128 0xa
 1807 087d 04       		.byte	0x4
 1808 087e 1D080000 		.4byte	0x81d
 1809 0882 03       		.uleb128 0x3
ARM GAS  C:\Users\Luis\AppData\Local\Temp\ccEHI8EP.s 			page 33


 1810 0883 7B000000 		.4byte	.LASF145
 1811 0887 13       		.byte	0x13
 1812 0888 41       		.byte	0x41
 1813 0889 36030000 		.4byte	0x336
 1814 088d 06       		.uleb128 0x6
 1815 088e 6D080000 		.4byte	.LASF146
 1816 0892 10       		.byte	0x10
 1817 0893 13       		.byte	0x13
 1818 0894 43       		.byte	0x43
 1819 0895 C8080000 		.4byte	0x8c8
 1820 0899 07       		.uleb128 0x7
 1821 089a F2000000 		.4byte	.LASF147
 1822 089e 13       		.byte	0x13
 1823 089f 44       		.byte	0x44
 1824 08a0 C8080000 		.4byte	0x8c8
 1825 08a4 00       		.byte	0
 1826 08a5 07       		.uleb128 0x7
 1827 08a6 A1030000 		.4byte	.LASF148
 1828 08aa 13       		.byte	0x13
 1829 08ab 45       		.byte	0x45
 1830 08ac 5B080000 		.4byte	0x85b
 1831 08b0 04       		.byte	0x4
 1832 08b1 12       		.uleb128 0x12
 1833 08b2 6800     		.ascii	"h\000"
 1834 08b4 13       		.byte	0x13
 1835 08b5 46       		.byte	0x46
 1836 08b6 82080000 		.4byte	0x882
 1837 08ba 08       		.byte	0x8
 1838 08bb 12       		.uleb128 0x12
 1839 08bc 61726700 		.ascii	"arg\000"
 1840 08c0 13       		.byte	0x13
 1841 08c1 47       		.byte	0x47
 1842 08c2 47030000 		.4byte	0x347
 1843 08c6 0C       		.byte	0xc
 1844 08c7 00       		.byte	0
 1845 08c8 0A       		.uleb128 0xa
 1846 08c9 04       		.byte	0x4
 1847 08ca 8D080000 		.4byte	0x88d
 1848 08ce 06       		.uleb128 0x6
 1849 08cf 630A0000 		.4byte	.LASF149
 1850 08d3 10       		.byte	0x10
 1851 08d4 14       		.byte	0x14
 1852 08d5 4F       		.byte	0x4f
 1853 08d6 2F090000 		.4byte	0x92f
 1854 08da 07       		.uleb128 0x7
 1855 08db F2000000 		.4byte	.LASF147
 1856 08df 14       		.byte	0x14
 1857 08e0 51       		.byte	0x51
 1858 08e1 2F090000 		.4byte	0x92f
 1859 08e5 00       		.byte	0
 1860 08e6 07       		.uleb128 0x7
 1861 08e7 3A040000 		.4byte	.LASF150
 1862 08eb 14       		.byte	0x14
 1863 08ec 54       		.byte	0x54
 1864 08ed 47030000 		.4byte	0x347
 1865 08f1 04       		.byte	0x4
 1866 08f2 07       		.uleb128 0x7
ARM GAS  C:\Users\Luis\AppData\Local\Temp\ccEHI8EP.s 			page 34


 1867 08f3 AE0A0000 		.4byte	.LASF151
 1868 08f7 14       		.byte	0x14
 1869 08f8 5D       		.byte	0x5d
 1870 08f9 45080000 		.4byte	0x845
 1871 08fd 08       		.byte	0x8
 1872 08fe 12       		.uleb128 0x12
 1873 08ff 6C656E00 		.ascii	"len\000"
 1874 0903 14       		.byte	0x14
 1875 0904 60       		.byte	0x60
 1876 0905 45080000 		.4byte	0x845
 1877 0909 0A       		.byte	0xa
 1878 090a 07       		.uleb128 0x7
 1879 090b C0050000 		.4byte	.LASF152
 1880 090f 14       		.byte	0x14
 1881 0910 63       		.byte	0x63
 1882 0911 2F080000 		.4byte	0x82f
 1883 0915 0C       		.byte	0xc
 1884 0916 07       		.uleb128 0x7
 1885 0917 AA000000 		.4byte	.LASF153
 1886 091b 14       		.byte	0x14
 1887 091c 66       		.byte	0x66
 1888 091d 2F080000 		.4byte	0x82f
 1889 0921 0D       		.byte	0xd
 1890 0922 12       		.uleb128 0x12
 1891 0923 72656600 		.ascii	"ref\000"
 1892 0927 14       		.byte	0x14
 1893 0928 6D       		.byte	0x6d
 1894 0929 45080000 		.4byte	0x845
 1895 092d 0E       		.byte	0xe
 1896 092e 00       		.byte	0
 1897 092f 0A       		.uleb128 0xa
 1898 0930 04       		.byte	0x4
 1899 0931 CE080000 		.4byte	0x8ce
 1900 0935 06       		.uleb128 0x6
 1901 0936 CC0B0000 		.4byte	.LASF154
 1902 093a 04       		.byte	0x4
 1903 093b 15       		.byte	0x15
 1904 093c 2C       		.byte	0x2c
 1905 093d 4E090000 		.4byte	0x94e
 1906 0941 07       		.uleb128 0x7
 1907 0942 910A0000 		.4byte	.LASF155
 1908 0946 15       		.byte	0x15
 1909 0947 2D       		.byte	0x2d
 1910 0948 5B080000 		.4byte	0x85b
 1911 094c 00       		.byte	0
 1912 094d 00       		.byte	0
 1913 094e 03       		.uleb128 0x3
 1914 094f 900B0000 		.4byte	.LASF156
 1915 0953 15       		.byte	0x15
 1916 0954 40       		.byte	0x40
 1917 0955 35090000 		.4byte	0x935
 1918 0959 03       		.uleb128 0x3
 1919 095a 9C000000 		.4byte	.LASF157
 1920 095e 16       		.byte	0x16
 1921 095f 3C       		.byte	0x3c
 1922 0960 64090000 		.4byte	0x964
 1923 0964 0A       		.uleb128 0xa
ARM GAS  C:\Users\Luis\AppData\Local\Temp\ccEHI8EP.s 			page 35


 1924 0965 04       		.byte	0x4
 1925 0966 6A090000 		.4byte	0x96a
 1926 096a 1A       		.uleb128 0x1a
 1927 096b 66080000 		.4byte	0x866
 1928 096f 83090000 		.4byte	0x983
 1929 0973 0D       		.uleb128 0xd
 1930 0974 47030000 		.4byte	0x347
 1931 0978 0D       		.uleb128 0xd
 1932 0979 83090000 		.4byte	0x983
 1933 097d 0D       		.uleb128 0xd
 1934 097e 66080000 		.4byte	0x866
 1935 0982 00       		.byte	0
 1936 0983 0A       		.uleb128 0xa
 1937 0984 04       		.byte	0x4
 1938 0985 89090000 		.4byte	0x989
 1939 0989 06       		.uleb128 0x6
 1940 098a 2B0B0000 		.4byte	.LASF158
 1941 098e 98       		.byte	0x98
 1942 098f 16       		.byte	0x16
 1943 0990 A8       		.byte	0xa8
 1944 0991 3B0C0000 		.4byte	0xc3b
 1945 0995 07       		.uleb128 0x7
 1946 0996 B5080000 		.4byte	.LASF159
 1947 099a 16       		.byte	0x16
 1948 099b AA       		.byte	0xaa
 1949 099c 4E090000 		.4byte	0x94e
 1950 09a0 00       		.byte	0
 1951 09a1 07       		.uleb128 0x7
 1952 09a2 6A0B0000 		.4byte	.LASF160
 1953 09a6 16       		.byte	0x16
 1954 09a7 AA       		.byte	0xaa
 1955 09a8 4E090000 		.4byte	0x94e
 1956 09ac 04       		.byte	0x4
 1957 09ad 07       		.uleb128 0x7
 1958 09ae 55000000 		.4byte	.LASF161
 1959 09b2 16       		.byte	0x16
 1960 09b3 AA       		.byte	0xaa
 1961 09b4 2F080000 		.4byte	0x82f
 1962 09b8 08       		.byte	0x8
 1963 09b9 12       		.uleb128 0x12
 1964 09ba 746F7300 		.ascii	"tos\000"
 1965 09be 16       		.byte	0x16
 1966 09bf AA       		.byte	0xaa
 1967 09c0 2F080000 		.4byte	0x82f
 1968 09c4 09       		.byte	0x9
 1969 09c5 12       		.uleb128 0x12
 1970 09c6 74746C00 		.ascii	"ttl\000"
 1971 09ca 16       		.byte	0x16
 1972 09cb AA       		.byte	0xaa
 1973 09cc 2F080000 		.4byte	0x82f
 1974 09d0 0A       		.byte	0xa
 1975 09d1 07       		.uleb128 0x7
 1976 09d2 F2000000 		.4byte	.LASF147
 1977 09d6 16       		.byte	0x16
 1978 09d7 AC       		.byte	0xac
 1979 09d8 83090000 		.4byte	0x983
 1980 09dc 0C       		.byte	0xc
ARM GAS  C:\Users\Luis\AppData\Local\Temp\ccEHI8EP.s 			page 36


 1981 09dd 07       		.uleb128 0x7
 1982 09de 720A0000 		.4byte	.LASF162
 1983 09e2 16       		.byte	0x16
 1984 09e3 AC       		.byte	0xac
 1985 09e4 47030000 		.4byte	0x347
 1986 09e8 10       		.byte	0x10
 1987 09e9 07       		.uleb128 0x7
 1988 09ea FF020000 		.4byte	.LASF163
 1989 09ee 16       		.byte	0x16
 1990 09ef AC       		.byte	0xac
 1991 09f0 59090000 		.4byte	0x959
 1992 09f4 14       		.byte	0x14
 1993 09f5 07       		.uleb128 0x7
 1994 09f6 A80A0000 		.4byte	.LASF164
 1995 09fa 16       		.byte	0x16
 1996 09fb AC       		.byte	0xac
 1997 09fc E50C0000 		.4byte	0xce5
 1998 0a00 18       		.byte	0x18
 1999 0a01 07       		.uleb128 0x7
 2000 0a02 0A050000 		.4byte	.LASF165
 2001 0a06 16       		.byte	0x16
 2002 0a07 AC       		.byte	0xac
 2003 0a08 2F080000 		.4byte	0x82f
 2004 0a0c 19       		.byte	0x19
 2005 0a0d 07       		.uleb128 0x7
 2006 0a0e 26030000 		.4byte	.LASF166
 2007 0a12 16       		.byte	0x16
 2008 0a13 AC       		.byte	0xac
 2009 0a14 45080000 		.4byte	0x845
 2010 0a18 1A       		.byte	0x1a
 2011 0a19 07       		.uleb128 0x7
 2012 0a1a AA060000 		.4byte	.LASF167
 2013 0a1e 16       		.byte	0x16
 2014 0a1f AF       		.byte	0xaf
 2015 0a20 45080000 		.4byte	0x845
 2016 0a24 1C       		.byte	0x1c
 2017 0a25 07       		.uleb128 0x7
 2018 0a26 AA000000 		.4byte	.LASF153
 2019 0a2a 16       		.byte	0x16
 2020 0a2b B1       		.byte	0xb1
 2021 0a2c 2F080000 		.4byte	0x82f
 2022 0a30 1E       		.byte	0x1e
 2023 0a31 07       		.uleb128 0x7
 2024 0a32 94000000 		.4byte	.LASF168
 2025 0a36 16       		.byte	0x16
 2026 0a37 BF       		.byte	0xbf
 2027 0a38 2F080000 		.4byte	0x82f
 2028 0a3c 1F       		.byte	0x1f
 2029 0a3d 07       		.uleb128 0x7
 2030 0a3e 0F050000 		.4byte	.LASF169
 2031 0a42 16       		.byte	0x16
 2032 0a43 BF       		.byte	0xbf
 2033 0a44 2F080000 		.4byte	0x82f
 2034 0a48 20       		.byte	0x20
 2035 0a49 07       		.uleb128 0x7
 2036 0a4a 9D080000 		.4byte	.LASF170
 2037 0a4e 16       		.byte	0x16
ARM GAS  C:\Users\Luis\AppData\Local\Temp\ccEHI8EP.s 			page 37


 2038 0a4f C0       		.byte	0xc0
 2039 0a50 2F080000 		.4byte	0x82f
 2040 0a54 21       		.byte	0x21
 2041 0a55 12       		.uleb128 0x12
 2042 0a56 746D7200 		.ascii	"tmr\000"
 2043 0a5a 16       		.byte	0x16
 2044 0a5b C1       		.byte	0xc1
 2045 0a5c 5B080000 		.4byte	0x85b
 2046 0a60 24       		.byte	0x24
 2047 0a61 07       		.uleb128 0x7
 2048 0a62 DF030000 		.4byte	.LASF171
 2049 0a66 16       		.byte	0x16
 2050 0a67 C4       		.byte	0xc4
 2051 0a68 5B080000 		.4byte	0x85b
 2052 0a6c 28       		.byte	0x28
 2053 0a6d 07       		.uleb128 0x7
 2054 0a6e 5E080000 		.4byte	.LASF172
 2055 0a72 16       		.byte	0x16
 2056 0a73 C5       		.byte	0xc5
 2057 0a74 45080000 		.4byte	0x845
 2058 0a78 2C       		.byte	0x2c
 2059 0a79 07       		.uleb128 0x7
 2060 0a7a CE060000 		.4byte	.LASF173
 2061 0a7e 16       		.byte	0x16
 2062 0a7f C6       		.byte	0xc6
 2063 0a80 45080000 		.4byte	0x845
 2064 0a84 2E       		.byte	0x2e
 2065 0a85 07       		.uleb128 0x7
 2066 0a86 36020000 		.4byte	.LASF174
 2067 0a8a 16       		.byte	0x16
 2068 0a8b C7       		.byte	0xc7
 2069 0a8c 5B080000 		.4byte	0x85b
 2070 0a90 30       		.byte	0x30
 2071 0a91 07       		.uleb128 0x7
 2072 0a92 9B030000 		.4byte	.LASF175
 2073 0a96 16       		.byte	0x16
 2074 0a97 CA       		.byte	0xca
 2075 0a98 50080000 		.4byte	0x850
 2076 0a9c 34       		.byte	0x34
 2077 0a9d 12       		.uleb128 0x12
 2078 0a9e 6D737300 		.ascii	"mss\000"
 2079 0aa2 16       		.byte	0x16
 2080 0aa3 CC       		.byte	0xcc
 2081 0aa4 45080000 		.4byte	0x845
 2082 0aa8 36       		.byte	0x36
 2083 0aa9 07       		.uleb128 0x7
 2084 0aaa 66080000 		.4byte	.LASF176
 2085 0aae 16       		.byte	0x16
 2086 0aaf CF       		.byte	0xcf
 2087 0ab0 5B080000 		.4byte	0x85b
 2088 0ab4 38       		.byte	0x38
 2089 0ab5 07       		.uleb128 0x7
 2090 0ab6 8F030000 		.4byte	.LASF177
 2091 0aba 16       		.byte	0x16
 2092 0abb D0       		.byte	0xd0
 2093 0abc 5B080000 		.4byte	0x85b
 2094 0ac0 3C       		.byte	0x3c
ARM GAS  C:\Users\Luis\AppData\Local\Temp\ccEHI8EP.s 			page 38


 2095 0ac1 12       		.uleb128 0x12
 2096 0ac2 736100   		.ascii	"sa\000"
 2097 0ac5 16       		.byte	0x16
 2098 0ac6 D1       		.byte	0xd1
 2099 0ac7 50080000 		.4byte	0x850
 2100 0acb 40       		.byte	0x40
 2101 0acc 12       		.uleb128 0x12
 2102 0acd 737600   		.ascii	"sv\000"
 2103 0ad0 16       		.byte	0x16
 2104 0ad1 D1       		.byte	0xd1
 2105 0ad2 50080000 		.4byte	0x850
 2106 0ad6 42       		.byte	0x42
 2107 0ad7 12       		.uleb128 0x12
 2108 0ad8 72746F00 		.ascii	"rto\000"
 2109 0adc 16       		.byte	0x16
 2110 0add D3       		.byte	0xd3
 2111 0ade 50080000 		.4byte	0x850
 2112 0ae2 44       		.byte	0x44
 2113 0ae3 07       		.uleb128 0x7
 2114 0ae4 AA0B0000 		.4byte	.LASF178
 2115 0ae8 16       		.byte	0x16
 2116 0ae9 D4       		.byte	0xd4
 2117 0aea 2F080000 		.4byte	0x82f
 2118 0aee 46       		.byte	0x46
 2119 0aef 07       		.uleb128 0x7
 2120 0af0 02050000 		.4byte	.LASF179
 2121 0af4 16       		.byte	0x16
 2122 0af5 D7       		.byte	0xd7
 2123 0af6 2F080000 		.4byte	0x82f
 2124 0afa 47       		.byte	0x47
 2125 0afb 07       		.uleb128 0x7
 2126 0afc 91040000 		.4byte	.LASF180
 2127 0b00 16       		.byte	0x16
 2128 0b01 D8       		.byte	0xd8
 2129 0b02 5B080000 		.4byte	0x85b
 2130 0b06 48       		.byte	0x48
 2131 0b07 07       		.uleb128 0x7
 2132 0b08 D8020000 		.4byte	.LASF181
 2133 0b0c 16       		.byte	0x16
 2134 0b0d DB       		.byte	0xdb
 2135 0b0e 45080000 		.4byte	0x845
 2136 0b12 4C       		.byte	0x4c
 2137 0b13 07       		.uleb128 0x7
 2138 0b14 3A090000 		.4byte	.LASF182
 2139 0b18 16       		.byte	0x16
 2140 0b19 DC       		.byte	0xdc
 2141 0b1a 45080000 		.4byte	0x845
 2142 0b1e 4E       		.byte	0x4e
 2143 0b1f 07       		.uleb128 0x7
 2144 0b20 00090000 		.4byte	.LASF183
 2145 0b24 16       		.byte	0x16
 2146 0b25 DF       		.byte	0xdf
 2147 0b26 5B080000 		.4byte	0x85b
 2148 0b2a 50       		.byte	0x50
 2149 0b2b 07       		.uleb128 0x7
 2150 0b2c 40050000 		.4byte	.LASF184
 2151 0b30 16       		.byte	0x16
ARM GAS  C:\Users\Luis\AppData\Local\Temp\ccEHI8EP.s 			page 39


 2152 0b31 E0       		.byte	0xe0
 2153 0b32 5B080000 		.4byte	0x85b
 2154 0b36 54       		.byte	0x54
 2155 0b37 07       		.uleb128 0x7
 2156 0b38 C5050000 		.4byte	.LASF185
 2157 0b3c 16       		.byte	0x16
 2158 0b3d E0       		.byte	0xe0
 2159 0b3e 5B080000 		.4byte	0x85b
 2160 0b42 58       		.byte	0x58
 2161 0b43 07       		.uleb128 0x7
 2162 0b44 0C060000 		.4byte	.LASF186
 2163 0b48 16       		.byte	0x16
 2164 0b49 E2       		.byte	0xe2
 2165 0b4a 5B080000 		.4byte	0x85b
 2166 0b4e 5C       		.byte	0x5c
 2167 0b4f 07       		.uleb128 0x7
 2168 0b50 74070000 		.4byte	.LASF187
 2169 0b54 16       		.byte	0x16
 2170 0b55 E3       		.byte	0xe3
 2171 0b56 45080000 		.4byte	0x845
 2172 0b5a 60       		.byte	0x60
 2173 0b5b 07       		.uleb128 0x7
 2174 0b5c 1F090000 		.4byte	.LASF188
 2175 0b60 16       		.byte	0x16
 2176 0b61 E4       		.byte	0xe4
 2177 0b62 45080000 		.4byte	0x845
 2178 0b66 62       		.byte	0x62
 2179 0b67 07       		.uleb128 0x7
 2180 0b68 5D050000 		.4byte	.LASF189
 2181 0b6c 16       		.byte	0x16
 2182 0b6d E6       		.byte	0xe6
 2183 0b6e 45080000 		.4byte	0x845
 2184 0b72 64       		.byte	0x64
 2185 0b73 07       		.uleb128 0x7
 2186 0b74 43090000 		.4byte	.LASF190
 2187 0b78 16       		.byte	0x16
 2188 0b79 E8       		.byte	0xe8
 2189 0b7a 45080000 		.4byte	0x845
 2190 0b7e 66       		.byte	0x66
 2191 0b7f 07       		.uleb128 0x7
 2192 0b80 E20A0000 		.4byte	.LASF191
 2193 0b84 16       		.byte	0x16
 2194 0b85 EA       		.byte	0xea
 2195 0b86 45080000 		.4byte	0x845
 2196 0b8a 68       		.byte	0x68
 2197 0b8b 07       		.uleb128 0x7
 2198 0b8c D8080000 		.4byte	.LASF192
 2199 0b90 16       		.byte	0x16
 2200 0b91 EE       		.byte	0xee
 2201 0b92 45080000 		.4byte	0x845
 2202 0b96 6A       		.byte	0x6a
 2203 0b97 07       		.uleb128 0x7
 2204 0b98 57080000 		.4byte	.LASF193
 2205 0b9c 16       		.byte	0x16
 2206 0b9d F2       		.byte	0xf2
 2207 0b9e 810D0000 		.4byte	0xd81
 2208 0ba2 6C       		.byte	0x6c
ARM GAS  C:\Users\Luis\AppData\Local\Temp\ccEHI8EP.s 			page 40


 2209 0ba3 07       		.uleb128 0x7
 2210 0ba4 FC030000 		.4byte	.LASF194
 2211 0ba8 16       		.byte	0x16
 2212 0ba9 F3       		.byte	0xf3
 2213 0baa 810D0000 		.4byte	0xd81
 2214 0bae 70       		.byte	0x70
 2215 0baf 07       		.uleb128 0x7
 2216 0bb0 D8070000 		.4byte	.LASF195
 2217 0bb4 16       		.byte	0x16
 2218 0bb5 F5       		.byte	0xf5
 2219 0bb6 810D0000 		.4byte	0xd81
 2220 0bba 74       		.byte	0x74
 2221 0bbb 07       		.uleb128 0x7
 2222 0bbc C9090000 		.4byte	.LASF196
 2223 0bc0 16       		.byte	0x16
 2224 0bc1 F8       		.byte	0xf8
 2225 0bc2 2F090000 		.4byte	0x92f
 2226 0bc6 78       		.byte	0x78
 2227 0bc7 07       		.uleb128 0x7
 2228 0bc8 A8050000 		.4byte	.LASF197
 2229 0bcc 16       		.byte	0x16
 2230 0bcd FC       		.byte	0xfc
 2231 0bce 6A0C0000 		.4byte	0xc6a
 2232 0bd2 7C       		.byte	0x7c
 2233 0bd3 07       		.uleb128 0x7
 2234 0bd4 010B0000 		.4byte	.LASF198
 2235 0bd8 16       		.byte	0x16
 2236 0bd9 FE       		.byte	0xfe
 2237 0bda 3B0C0000 		.4byte	0xc3b
 2238 0bde 80       		.byte	0x80
 2239 0bdf 09       		.uleb128 0x9
 2240 0be0 5D040000 		.4byte	.LASF199
 2241 0be4 16       		.byte	0x16
 2242 0be5 0001     		.2byte	0x100
 2243 0be7 DA0C0000 		.4byte	0xcda
 2244 0beb 84       		.byte	0x84
 2245 0bec 09       		.uleb128 0x9
 2246 0bed 26050000 		.4byte	.LASF200
 2247 0bf1 16       		.byte	0x16
 2248 0bf2 0201     		.2byte	0x102
 2249 0bf4 940C0000 		.4byte	0xc94
 2250 0bf8 88       		.byte	0x88
 2251 0bf9 09       		.uleb128 0x9
 2252 0bfa 63070000 		.4byte	.LASF201
 2253 0bfe 16       		.byte	0x16
 2254 0bff 0401     		.2byte	0x104
 2255 0c01 B90C0000 		.4byte	0xcb9
 2256 0c05 8C       		.byte	0x8c
 2257 0c06 09       		.uleb128 0x9
 2258 0c07 680A0000 		.4byte	.LASF202
 2259 0c0b 16       		.byte	0x16
 2260 0c0c 0D01     		.2byte	0x10d
 2261 0c0e 5B080000 		.4byte	0x85b
 2262 0c12 90       		.byte	0x90
 2263 0c13 09       		.uleb128 0x9
 2264 0c14 5E0B0000 		.4byte	.LASF203
 2265 0c18 16       		.byte	0x16
ARM GAS  C:\Users\Luis\AppData\Local\Temp\ccEHI8EP.s 			page 41


 2266 0c19 1401     		.2byte	0x114
 2267 0c1b 2F080000 		.4byte	0x82f
 2268 0c1f 94       		.byte	0x94
 2269 0c20 09       		.uleb128 0x9
 2270 0c21 B9090000 		.4byte	.LASF204
 2271 0c25 16       		.byte	0x16
 2272 0c26 1601     		.2byte	0x116
 2273 0c28 2F080000 		.4byte	0x82f
 2274 0c2c 95       		.byte	0x95
 2275 0c2d 09       		.uleb128 0x9
 2276 0c2e 6D020000 		.4byte	.LASF205
 2277 0c32 16       		.byte	0x16
 2278 0c33 1901     		.2byte	0x119
 2279 0c35 2F080000 		.4byte	0x82f
 2280 0c39 96       		.byte	0x96
 2281 0c3a 00       		.byte	0
 2282 0c3b 03       		.uleb128 0x3
 2283 0c3c FA060000 		.4byte	.LASF206
 2284 0c40 16       		.byte	0x16
 2285 0c41 48       		.byte	0x48
 2286 0c42 460C0000 		.4byte	0xc46
 2287 0c46 0A       		.uleb128 0xa
 2288 0c47 04       		.byte	0x4
 2289 0c48 4C0C0000 		.4byte	0xc4c
 2290 0c4c 1A       		.uleb128 0x1a
 2291 0c4d 66080000 		.4byte	0x866
 2292 0c51 6A0C0000 		.4byte	0xc6a
 2293 0c55 0D       		.uleb128 0xd
 2294 0c56 47030000 		.4byte	0x347
 2295 0c5a 0D       		.uleb128 0xd
 2296 0c5b 83090000 		.4byte	0x983
 2297 0c5f 0D       		.uleb128 0xd
 2298 0c60 2F090000 		.4byte	0x92f
 2299 0c64 0D       		.uleb128 0xd
 2300 0c65 66080000 		.4byte	0x866
 2301 0c69 00       		.byte	0
 2302 0c6a 03       		.uleb128 0x3
 2303 0c6b 8A020000 		.4byte	.LASF207
 2304 0c6f 16       		.byte	0x16
 2305 0c70 56       		.byte	0x56
 2306 0c71 750C0000 		.4byte	0xc75
 2307 0c75 0A       		.uleb128 0xa
 2308 0c76 04       		.byte	0x4
 2309 0c77 7B0C0000 		.4byte	0xc7b
 2310 0c7b 1A       		.uleb128 0x1a
 2311 0c7c 66080000 		.4byte	0x866
 2312 0c80 940C0000 		.4byte	0xc94
 2313 0c84 0D       		.uleb128 0xd
 2314 0c85 47030000 		.4byte	0x347
 2315 0c89 0D       		.uleb128 0xd
 2316 0c8a 83090000 		.4byte	0x983
 2317 0c8e 0D       		.uleb128 0xd
 2318 0c8f 45080000 		.4byte	0x845
 2319 0c93 00       		.byte	0
 2320 0c94 03       		.uleb128 0x3
 2321 0c95 68070000 		.4byte	.LASF208
 2322 0c99 16       		.byte	0x16
ARM GAS  C:\Users\Luis\AppData\Local\Temp\ccEHI8EP.s 			page 42


 2323 0c9a 62       		.byte	0x62
 2324 0c9b 9F0C0000 		.4byte	0xc9f
 2325 0c9f 0A       		.uleb128 0xa
 2326 0ca0 04       		.byte	0x4
 2327 0ca1 A50C0000 		.4byte	0xca5
 2328 0ca5 1A       		.uleb128 0x1a
 2329 0ca6 66080000 		.4byte	0x866
 2330 0caa B90C0000 		.4byte	0xcb9
 2331 0cae 0D       		.uleb128 0xd
 2332 0caf 47030000 		.4byte	0x347
 2333 0cb3 0D       		.uleb128 0xd
 2334 0cb4 83090000 		.4byte	0x983
 2335 0cb8 00       		.byte	0
 2336 0cb9 03       		.uleb128 0x3
 2337 0cba E7050000 		.4byte	.LASF209
 2338 0cbe 16       		.byte	0x16
 2339 0cbf 6E       		.byte	0x6e
 2340 0cc0 C40C0000 		.4byte	0xcc4
 2341 0cc4 0A       		.uleb128 0xa
 2342 0cc5 04       		.byte	0x4
 2343 0cc6 CA0C0000 		.4byte	0xcca
 2344 0cca 0C       		.uleb128 0xc
 2345 0ccb DA0C0000 		.4byte	0xcda
 2346 0ccf 0D       		.uleb128 0xd
 2347 0cd0 47030000 		.4byte	0x347
 2348 0cd4 0D       		.uleb128 0xd
 2349 0cd5 66080000 		.4byte	0x866
 2350 0cd9 00       		.byte	0
 2351 0cda 03       		.uleb128 0x3
 2352 0cdb E1000000 		.4byte	.LASF210
 2353 0cdf 16       		.byte	0x16
 2354 0ce0 7C       		.byte	0x7c
 2355 0ce1 64090000 		.4byte	0x964
 2356 0ce5 1B       		.uleb128 0x1b
 2357 0ce6 53040000 		.4byte	.LASF271
 2358 0cea 01       		.byte	0x1
 2359 0ceb 16       		.byte	0x16
 2360 0cec 7E       		.byte	0x7e
 2361 0ced 340D0000 		.4byte	0xd34
 2362 0cf1 1C       		.uleb128 0x1c
 2363 0cf2 F8070000 		.4byte	.LASF211
 2364 0cf6 00       		.sleb128 0
 2365 0cf7 1C       		.uleb128 0x1c
 2366 0cf8 7F0A0000 		.4byte	.LASF212
 2367 0cfc 01       		.sleb128 1
 2368 0cfd 1C       		.uleb128 0x1c
 2369 0cfe E8080000 		.4byte	.LASF213
 2370 0d02 02       		.sleb128 2
 2371 0d03 1C       		.uleb128 0x1c
 2372 0d04 C30B0000 		.4byte	.LASF214
 2373 0d08 03       		.sleb128 3
 2374 0d09 1C       		.uleb128 0x1c
 2375 0d0a 08090000 		.4byte	.LASF215
 2376 0d0e 04       		.sleb128 4
 2377 0d0f 1C       		.uleb128 0x1c
 2378 0d10 230A0000 		.4byte	.LASF216
 2379 0d14 05       		.sleb128 5
ARM GAS  C:\Users\Luis\AppData\Local\Temp\ccEHI8EP.s 			page 43


 2380 0d15 1C       		.uleb128 0x1c
 2381 0d16 2E0A0000 		.4byte	.LASF217
 2382 0d1a 06       		.sleb128 6
 2383 0d1b 1C       		.uleb128 0x1c
 2384 0d1c 63050000 		.4byte	.LASF218
 2385 0d20 07       		.sleb128 7
 2386 0d21 1C       		.uleb128 0x1c
 2387 0d22 80040000 		.4byte	.LASF219
 2388 0d26 08       		.sleb128 8
 2389 0d27 1C       		.uleb128 0x1c
 2390 0d28 1C040000 		.4byte	.LASF220
 2391 0d2c 09       		.sleb128 9
 2392 0d2d 1C       		.uleb128 0x1c
 2393 0d2e CA000000 		.4byte	.LASF221
 2394 0d32 0A       		.sleb128 10
 2395 0d33 00       		.byte	0
 2396 0d34 0B       		.uleb128 0xb
 2397 0d35 5F030000 		.4byte	.LASF222
 2398 0d39 10       		.byte	0x10
 2399 0d3a 17       		.byte	0x17
 2400 0d3b 1501     		.2byte	0x115
 2401 0d3d 810D0000 		.4byte	0xd81
 2402 0d41 09       		.uleb128 0x9
 2403 0d42 F2000000 		.4byte	.LASF147
 2404 0d46 17       		.byte	0x17
 2405 0d47 1601     		.2byte	0x116
 2406 0d49 810D0000 		.4byte	0xd81
 2407 0d4d 00       		.byte	0
 2408 0d4e 08       		.uleb128 0x8
 2409 0d4f 7000     		.ascii	"p\000"
 2410 0d51 17       		.byte	0x17
 2411 0d52 1701     		.2byte	0x117
 2412 0d54 2F090000 		.4byte	0x92f
 2413 0d58 04       		.byte	0x4
 2414 0d59 08       		.uleb128 0x8
 2415 0d5a 6C656E00 		.ascii	"len\000"
 2416 0d5e 17       		.byte	0x17
 2417 0d5f 1801     		.2byte	0x118
 2418 0d61 45080000 		.4byte	0x845
 2419 0d65 08       		.byte	0x8
 2420 0d66 09       		.uleb128 0x9
 2421 0d67 AA000000 		.4byte	.LASF153
 2422 0d6b 17       		.byte	0x17
 2423 0d6c 2201     		.2byte	0x122
 2424 0d6e 2F080000 		.4byte	0x82f
 2425 0d72 0A       		.byte	0xa
 2426 0d73 09       		.uleb128 0x9
 2427 0d74 A4090000 		.4byte	.LASF223
 2428 0d78 17       		.byte	0x17
 2429 0d79 2701     		.2byte	0x127
 2430 0d7b F40D0000 		.4byte	0xdf4
 2431 0d7f 0C       		.byte	0xc
 2432 0d80 00       		.byte	0
 2433 0d81 0A       		.uleb128 0xa
 2434 0d82 04       		.byte	0x4
 2435 0d83 340D0000 		.4byte	0xd34
 2436 0d87 06       		.uleb128 0x6
ARM GAS  C:\Users\Luis\AppData\Local\Temp\ccEHI8EP.s 			page 44


 2437 0d88 010A0000 		.4byte	.LASF224
 2438 0d8c 14       		.byte	0x14
 2439 0d8d 17       		.byte	0x17
 2440 0d8e 9F       		.byte	0x9f
 2441 0d8f F40D0000 		.4byte	0xdf4
 2442 0d93 12       		.uleb128 0x12
 2443 0d94 73726300 		.ascii	"src\000"
 2444 0d98 17       		.byte	0x17
 2445 0d99 A0       		.byte	0xa0
 2446 0d9a 45080000 		.4byte	0x845
 2447 0d9e 00       		.byte	0
 2448 0d9f 07       		.uleb128 0x7
 2449 0da0 B50B0000 		.4byte	.LASF225
 2450 0da4 17       		.byte	0x17
 2451 0da5 A1       		.byte	0xa1
 2452 0da6 45080000 		.4byte	0x845
 2453 0daa 02       		.byte	0x2
 2454 0dab 07       		.uleb128 0x7
 2455 0dac BC020000 		.4byte	.LASF226
 2456 0db0 17       		.byte	0x17
 2457 0db1 A2       		.byte	0xa2
 2458 0db2 5B080000 		.4byte	0x85b
 2459 0db6 04       		.byte	0x4
 2460 0db7 07       		.uleb128 0x7
 2461 0db8 40060000 		.4byte	.LASF227
 2462 0dbc 17       		.byte	0x17
 2463 0dbd A3       		.byte	0xa3
 2464 0dbe 5B080000 		.4byte	0x85b
 2465 0dc2 08       		.byte	0x8
 2466 0dc3 07       		.uleb128 0x7
 2467 0dc4 58090000 		.4byte	.LASF228
 2468 0dc8 17       		.byte	0x17
 2469 0dc9 A4       		.byte	0xa4
 2470 0dca 45080000 		.4byte	0x845
 2471 0dce 0C       		.byte	0xc
 2472 0dcf 12       		.uleb128 0x12
 2473 0dd0 776E6400 		.ascii	"wnd\000"
 2474 0dd4 17       		.byte	0x17
 2475 0dd5 A5       		.byte	0xa5
 2476 0dd6 45080000 		.4byte	0x845
 2477 0dda 0E       		.byte	0xe
 2478 0ddb 07       		.uleb128 0x7
 2479 0ddc 25040000 		.4byte	.LASF229
 2480 0de0 17       		.byte	0x17
 2481 0de1 A6       		.byte	0xa6
 2482 0de2 45080000 		.4byte	0x845
 2483 0de6 10       		.byte	0x10
 2484 0de7 07       		.uleb128 0x7
 2485 0de8 8F000000 		.4byte	.LASF230
 2486 0dec 17       		.byte	0x17
 2487 0ded A7       		.byte	0xa7
 2488 0dee 45080000 		.4byte	0x845
 2489 0df2 12       		.byte	0x12
 2490 0df3 00       		.byte	0
 2491 0df4 0A       		.uleb128 0xa
 2492 0df5 04       		.byte	0x4
 2493 0df6 870D0000 		.4byte	0xd87
ARM GAS  C:\Users\Luis\AppData\Local\Temp\ccEHI8EP.s 			page 45


 2494 0dfa 1D       		.uleb128 0x1d
 2495 0dfb 01       		.byte	0x1
 2496 0dfc 19       		.byte	0x19
 2497 0dfd 2B       		.byte	0x2b
 2498 0dfe 5D0E0000 		.4byte	0xe5d
 2499 0e02 1C       		.uleb128 0x1c
 2500 0e03 4B090000 		.4byte	.LASF231
 2501 0e07 00       		.sleb128 0
 2502 0e08 1C       		.uleb128 0x1c
 2503 0e09 A8080000 		.4byte	.LASF232
 2504 0e0d 01       		.sleb128 1
 2505 0e0e 1C       		.uleb128 0x1c
 2506 0e0f 74060000 		.4byte	.LASF233
 2507 0e13 02       		.sleb128 2
 2508 0e14 1C       		.uleb128 0x1c
 2509 0e15 2E000000 		.4byte	.LASF234
 2510 0e19 03       		.sleb128 3
 2511 0e1a 1C       		.uleb128 0x1c
 2512 0e1b 560A0000 		.4byte	.LASF235
 2513 0e1f 04       		.sleb128 4
 2514 0e20 1C       		.uleb128 0x1c
 2515 0e21 E2060000 		.4byte	.LASF236
 2516 0e25 05       		.sleb128 5
 2517 0e26 1C       		.uleb128 0x1c
 2518 0e27 2B090000 		.4byte	.LASF237
 2519 0e2b 06       		.sleb128 6
 2520 0e2c 1C       		.uleb128 0x1c
 2521 0e2d 23060000 		.4byte	.LASF238
 2522 0e31 07       		.sleb128 7
 2523 0e32 1C       		.uleb128 0x1c
 2524 0e33 CB020000 		.4byte	.LASF239
 2525 0e37 08       		.sleb128 8
 2526 0e38 1C       		.uleb128 0x1c
 2527 0e39 13030000 		.4byte	.LASF240
 2528 0e3d 09       		.sleb128 9
 2529 0e3e 1C       		.uleb128 0x1c
 2530 0e3f E7030000 		.4byte	.LASF241
 2531 0e43 0A       		.sleb128 10
 2532 0e44 1C       		.uleb128 0x1c
 2533 0e45 8C080000 		.4byte	.LASF242
 2534 0e49 0B       		.sleb128 11
 2535 0e4a 1C       		.uleb128 0x1c
 2536 0e4b 1C050000 		.4byte	.LASF243
 2537 0e4f 0C       		.sleb128 12
 2538 0e50 1C       		.uleb128 0x1c
 2539 0e51 7B020000 		.4byte	.LASF244
 2540 0e55 0D       		.sleb128 13
 2541 0e56 1C       		.uleb128 0x1c
 2542 0e57 99040000 		.4byte	.LASF245
 2543 0e5b 0E       		.sleb128 14
 2544 0e5c 00       		.byte	0
 2545 0e5d 1E       		.uleb128 0x1e
 2546 0e5e 9E060000 		.4byte	.LASF246
 2547 0e62 01       		.byte	0x1
 2548 0e63 CC01     		.2byte	0x1cc
 2549 0e65 00000000 		.4byte	.LFB230
 2550 0e69 14000000 		.4byte	.LFE230-.LFB230
ARM GAS  C:\Users\Luis\AppData\Local\Temp\ccEHI8EP.s 			page 46


 2551 0e6d 01       		.uleb128 0x1
 2552 0e6e 9C       		.byte	0x9c
 2553 0e6f 830E0000 		.4byte	0xe83
 2554 0e73 1F       		.uleb128 0x1f
 2555 0e74 88030000 		.4byte	.LASF248
 2556 0e78 01       		.byte	0x1
 2557 0e79 CC01     		.2byte	0x1cc
 2558 0e7b 77070000 		.4byte	0x777
 2559 0e7f 02       		.uleb128 0x2
 2560 0e80 91       		.byte	0x91
 2561 0e81 74       		.sleb128 -12
 2562 0e82 00       		.byte	0
 2563 0e83 20       		.uleb128 0x20
 2564 0e84 D40B0000 		.4byte	.LASF247
 2565 0e88 02       		.byte	0x2
 2566 0e89 4F       		.byte	0x4f
 2567 0e8a 00000000 		.4byte	.LFB260
 2568 0e8e 44000000 		.4byte	.LFE260-.LFB260
 2569 0e92 01       		.uleb128 0x1
 2570 0e93 9C       		.byte	0x9c
 2571 0e94 A70E0000 		.4byte	0xea7
 2572 0e98 21       		.uleb128 0x21
 2573 0e99 61726700 		.ascii	"arg\000"
 2574 0e9d 02       		.byte	0x2
 2575 0e9e 4F       		.byte	0x4f
 2576 0e9f 47030000 		.4byte	0x347
 2577 0ea3 02       		.uleb128 0x2
 2578 0ea4 91       		.byte	0x91
 2579 0ea5 74       		.sleb128 -12
 2580 0ea6 00       		.byte	0
 2581 0ea7 22       		.uleb128 0x22
 2582 0ea8 49070000 		.4byte	.LASF251
 2583 0eac 02       		.byte	0x2
 2584 0ead 65       		.byte	0x65
 2585 0eae 00000000 		.4byte	.LFB261
 2586 0eb2 40000000 		.4byte	.LFE261-.LFB261
 2587 0eb6 01       		.uleb128 0x1
 2588 0eb7 9C       		.byte	0x9c
 2589 0eb8 20       		.uleb128 0x20
 2590 0eb9 F1080000 		.4byte	.LASF249
 2591 0ebd 02       		.byte	0x2
 2592 0ebe 77       		.byte	0x77
 2593 0ebf 00000000 		.4byte	.LFB262
 2594 0ec3 24000000 		.4byte	.LFE262-.LFB262
 2595 0ec7 01       		.uleb128 0x1
 2596 0ec8 9C       		.byte	0x9c
 2597 0ec9 DC0E0000 		.4byte	0xedc
 2598 0ecd 21       		.uleb128 0x21
 2599 0ece 61726700 		.ascii	"arg\000"
 2600 0ed2 02       		.byte	0x2
 2601 0ed3 77       		.byte	0x77
 2602 0ed4 47030000 		.4byte	0x347
 2603 0ed8 02       		.uleb128 0x2
 2604 0ed9 91       		.byte	0x91
 2605 0eda 74       		.sleb128 -12
 2606 0edb 00       		.byte	0
 2607 0edc 20       		.uleb128 0x20
ARM GAS  C:\Users\Luis\AppData\Local\Temp\ccEHI8EP.s 			page 47


 2608 0edd 42040000 		.4byte	.LASF250
 2609 0ee1 02       		.byte	0x2
 2610 0ee2 87       		.byte	0x87
 2611 0ee3 00000000 		.4byte	.LFB263
 2612 0ee7 24000000 		.4byte	.LFE263-.LFB263
 2613 0eeb 01       		.uleb128 0x1
 2614 0eec 9C       		.byte	0x9c
 2615 0eed 000F0000 		.4byte	0xf00
 2616 0ef1 21       		.uleb128 0x21
 2617 0ef2 61726700 		.ascii	"arg\000"
 2618 0ef6 02       		.byte	0x2
 2619 0ef7 87       		.byte	0x87
 2620 0ef8 47030000 		.4byte	0x347
 2621 0efc 02       		.uleb128 0x2
 2622 0efd 91       		.byte	0x91
 2623 0efe 74       		.sleb128 -12
 2624 0eff 00       		.byte	0
 2625 0f00 22       		.uleb128 0x22
 2626 0f01 960A0000 		.4byte	.LASF252
 2627 0f05 02       		.byte	0x2
 2628 0f06 DF       		.byte	0xdf
 2629 0f07 00000000 		.4byte	.LFB264
 2630 0f0b 28000000 		.4byte	.LFE264-.LFB264
 2631 0f0f 01       		.uleb128 0x1
 2632 0f10 9C       		.byte	0x9c
 2633 0f11 23       		.uleb128 0x23
 2634 0f12 34050000 		.4byte	.LASF256
 2635 0f16 02       		.byte	0x2
 2636 0f17 0A01     		.2byte	0x10a
 2637 0f19 00000000 		.4byte	.LFB265
 2638 0f1d F0000000 		.4byte	.LFE265-.LFB265
 2639 0f21 01       		.uleb128 0x1
 2640 0f22 9C       		.byte	0x9c
 2641 0f23 710F0000 		.4byte	0xf71
 2642 0f27 1F       		.uleb128 0x1f
 2643 0f28 AF0B0000 		.4byte	.LASF253
 2644 0f2c 02       		.byte	0x2
 2645 0f2d 0A01     		.2byte	0x10a
 2646 0f2f 5B080000 		.4byte	0x85b
 2647 0f33 02       		.uleb128 0x2
 2648 0f34 91       		.byte	0x91
 2649 0f35 6C       		.sleb128 -20
 2650 0f36 1F       		.uleb128 0x1f
 2651 0f37 27020000 		.4byte	.LASF254
 2652 0f3b 02       		.byte	0x2
 2653 0f3c 0A01     		.2byte	0x10a
 2654 0f3e 82080000 		.4byte	0x882
 2655 0f42 02       		.uleb128 0x2
 2656 0f43 91       		.byte	0x91
 2657 0f44 68       		.sleb128 -24
 2658 0f45 24       		.uleb128 0x24
 2659 0f46 61726700 		.ascii	"arg\000"
 2660 0f4a 02       		.byte	0x2
 2661 0f4b 0A01     		.2byte	0x10a
 2662 0f4d 47030000 		.4byte	0x347
 2663 0f51 02       		.uleb128 0x2
 2664 0f52 91       		.byte	0x91
ARM GAS  C:\Users\Luis\AppData\Local\Temp\ccEHI8EP.s 			page 48


 2665 0f53 64       		.sleb128 -28
 2666 0f54 25       		.uleb128 0x25
 2667 0f55 7C070000 		.4byte	.LASF255
 2668 0f59 02       		.byte	0x2
 2669 0f5a 0D01     		.2byte	0x10d
 2670 0f5c C8080000 		.4byte	0x8c8
 2671 0f60 02       		.uleb128 0x2
 2672 0f61 91       		.byte	0x91
 2673 0f62 70       		.sleb128 -16
 2674 0f63 26       		.uleb128 0x26
 2675 0f64 7400     		.ascii	"t\000"
 2676 0f66 02       		.byte	0x2
 2677 0f67 0D01     		.2byte	0x10d
 2678 0f69 C8080000 		.4byte	0x8c8
 2679 0f6d 02       		.uleb128 0x2
 2680 0f6e 91       		.byte	0x91
 2681 0f6f 74       		.sleb128 -12
 2682 0f70 00       		.byte	0
 2683 0f71 23       		.uleb128 0x23
 2684 0f72 02010000 		.4byte	.LASF257
 2685 0f76 02       		.byte	0x2
 2686 0f77 4101     		.2byte	0x141
 2687 0f79 00000000 		.4byte	.LFB266
 2688 0f7d 8C000000 		.4byte	.LFE266-.LFB266
 2689 0f81 01       		.uleb128 0x1
 2690 0f82 9C       		.byte	0x9c
 2691 0f83 C20F0000 		.4byte	0xfc2
 2692 0f87 1F       		.uleb128 0x1f
 2693 0f88 27020000 		.4byte	.LASF254
 2694 0f8c 02       		.byte	0x2
 2695 0f8d 4101     		.2byte	0x141
 2696 0f8f 82080000 		.4byte	0x882
 2697 0f93 02       		.uleb128 0x2
 2698 0f94 91       		.byte	0x91
 2699 0f95 6C       		.sleb128 -20
 2700 0f96 24       		.uleb128 0x24
 2701 0f97 61726700 		.ascii	"arg\000"
 2702 0f9b 02       		.byte	0x2
 2703 0f9c 4101     		.2byte	0x141
 2704 0f9e 47030000 		.4byte	0x347
 2705 0fa2 02       		.uleb128 0x2
 2706 0fa3 91       		.byte	0x91
 2707 0fa4 68       		.sleb128 -24
 2708 0fa5 25       		.uleb128 0x25
 2709 0fa6 00000000 		.4byte	.LASF258
 2710 0faa 02       		.byte	0x2
 2711 0fab 4301     		.2byte	0x143
 2712 0fad C8080000 		.4byte	0x8c8
 2713 0fb1 02       		.uleb128 0x2
 2714 0fb2 91       		.byte	0x91
 2715 0fb3 74       		.sleb128 -12
 2716 0fb4 26       		.uleb128 0x26
 2717 0fb5 7400     		.ascii	"t\000"
 2718 0fb7 02       		.byte	0x2
 2719 0fb8 4301     		.2byte	0x143
 2720 0fba C8080000 		.4byte	0x8c8
 2721 0fbe 02       		.uleb128 0x2
ARM GAS  C:\Users\Luis\AppData\Local\Temp\ccEHI8EP.s 			page 49


 2722 0fbf 91       		.byte	0x91
 2723 0fc0 70       		.sleb128 -16
 2724 0fc1 00       		.byte	0
 2725 0fc2 23       		.uleb128 0x23
 2726 0fc3 4E060000 		.4byte	.LASF259
 2727 0fc7 02       		.byte	0x2
 2728 0fc8 A701     		.2byte	0x1a7
 2729 0fca 00000000 		.4byte	.LFB267
 2730 0fce B0000000 		.4byte	.LFE267-.LFB267
 2731 0fd2 01       		.uleb128 0x1
 2732 0fd3 9C       		.byte	0x9c
 2733 0fd4 3F100000 		.4byte	0x103f
 2734 0fd8 1F       		.uleb128 0x1f
 2735 0fd9 CD080000 		.4byte	.LASF260
 2736 0fdd 02       		.byte	0x2
 2737 0fde A701     		.2byte	0x1a7
 2738 0fe0 3F100000 		.4byte	0x103f
 2739 0fe4 02       		.uleb128 0x2
 2740 0fe5 91       		.byte	0x91
 2741 0fe6 64       		.sleb128 -28
 2742 0fe7 24       		.uleb128 0x24
 2743 0fe8 6D736700 		.ascii	"msg\000"
 2744 0fec 02       		.byte	0x2
 2745 0fed A701     		.2byte	0x1a7
 2746 0fef 45100000 		.4byte	0x1045
 2747 0ff3 02       		.uleb128 0x2
 2748 0ff4 91       		.byte	0x91
 2749 0ff5 60       		.sleb128 -32
 2750 0ff6 25       		.uleb128 0x25
 2751 0ff7 1B020000 		.4byte	.LASF261
 2752 0ffb 02       		.byte	0x2
 2753 0ffc A901     		.2byte	0x1a9
 2754 0ffe 5B080000 		.4byte	0x85b
 2755 1002 02       		.uleb128 0x2
 2756 1003 91       		.byte	0x91
 2757 1004 74       		.sleb128 -12
 2758 1005 25       		.uleb128 0x25
 2759 1006 14090000 		.4byte	.LASF262
 2760 100a 02       		.byte	0x2
 2761 100b AA01     		.2byte	0x1aa
 2762 100d C8080000 		.4byte	0x8c8
 2763 1011 02       		.uleb128 0x2
 2764 1012 91       		.byte	0x91
 2765 1013 70       		.sleb128 -16
 2766 1014 25       		.uleb128 0x25
 2767 1015 27020000 		.4byte	.LASF254
 2768 1019 02       		.byte	0x2
 2769 101a AB01     		.2byte	0x1ab
 2770 101c 82080000 		.4byte	0x882
 2771 1020 02       		.uleb128 0x2
 2772 1021 91       		.byte	0x91
 2773 1022 6C       		.sleb128 -20
 2774 1023 26       		.uleb128 0x26
 2775 1024 61726700 		.ascii	"arg\000"
 2776 1028 02       		.byte	0x2
 2777 1029 AC01     		.2byte	0x1ac
 2778 102b 47030000 		.4byte	0x347
ARM GAS  C:\Users\Luis\AppData\Local\Temp\ccEHI8EP.s 			page 50


 2779 102f 02       		.uleb128 0x2
 2780 1030 91       		.byte	0x91
 2781 1031 68       		.sleb128 -24
 2782 1032 27       		.uleb128 0x27
 2783 1033 75000000 		.4byte	.LASF272
 2784 1037 02       		.byte	0x2
 2785 1038 AE01     		.2byte	0x1ae
 2786 103a 0A000000 		.4byte	.L47
 2787 103e 00       		.byte	0
 2788 103f 0A       		.uleb128 0xa
 2789 1040 04       		.byte	0x4
 2790 1041 71080000 		.4byte	0x871
 2791 1045 0A       		.uleb128 0xa
 2792 1046 04       		.byte	0x4
 2793 1047 47030000 		.4byte	0x347
 2794 104b 28       		.uleb128 0x28
 2795 104c D50A0000 		.4byte	.LASF263
 2796 1050 02       		.byte	0x2
 2797 1051 40       		.byte	0x40
 2798 1052 C8080000 		.4byte	0x8c8
 2799 1056 05       		.uleb128 0x5
 2800 1057 03       		.byte	0x3
 2801 1058 00000000 		.4byte	next_timeout
 2802 105c 28       		.uleb128 0x28
 2803 105d BE0A0000 		.4byte	.LASF264
 2804 1061 02       		.byte	0x2
 2805 1062 47       		.byte	0x47
 2806 1063 25000000 		.4byte	0x25
 2807 1067 05       		.uleb128 0x5
 2808 1068 03       		.byte	0x3
 2809 1069 00000000 		.4byte	tcpip_tcp_timer_active
 2810 106d 29       		.uleb128 0x29
 2811 106e 4A080000 		.4byte	.LASF265
 2812 1072 18       		.byte	0x18
 2813 1073 A706     		.2byte	0x6a7
 2814 1075 C3000000 		.4byte	0xc3
 2815 1079 2A       		.uleb128 0x2a
 2816 107a 636800   		.ascii	"ch\000"
 2817 107d 07       		.byte	0x7
 2818 107e 0902     		.2byte	0x209
 2819 1080 3E040000 		.4byte	0x43e
 2820 1084 29       		.uleb128 0x29
 2821 1085 9A0B0000 		.4byte	.LASF266
 2822 1089 17       		.byte	0x17
 2823 108a 3D01     		.2byte	0x13d
 2824 108c 83090000 		.4byte	0x983
 2825 1090 29       		.uleb128 0x29
 2826 1091 7C0B0000 		.4byte	.LASF267
 2827 1095 17       		.byte	0x17
 2828 1096 4001     		.2byte	0x140
 2829 1098 83090000 		.4byte	0x983
 2830 109c 00       		.byte	0
 2831              		.section	.debug_abbrev,"",%progbits
 2832              	.Ldebug_abbrev0:
 2833 0000 01       		.uleb128 0x1
 2834 0001 11       		.uleb128 0x11
 2835 0002 01       		.byte	0x1
ARM GAS  C:\Users\Luis\AppData\Local\Temp\ccEHI8EP.s 			page 51


 2836 0003 25       		.uleb128 0x25
 2837 0004 0E       		.uleb128 0xe
 2838 0005 13       		.uleb128 0x13
 2839 0006 0B       		.uleb128 0xb
 2840 0007 03       		.uleb128 0x3
 2841 0008 0E       		.uleb128 0xe
 2842 0009 1B       		.uleb128 0x1b
 2843 000a 0E       		.uleb128 0xe
 2844 000b 55       		.uleb128 0x55
 2845 000c 17       		.uleb128 0x17
 2846 000d 11       		.uleb128 0x11
 2847 000e 01       		.uleb128 0x1
 2848 000f 10       		.uleb128 0x10
 2849 0010 17       		.uleb128 0x17
 2850 0011 00       		.byte	0
 2851 0012 00       		.byte	0
 2852 0013 02       		.uleb128 0x2
 2853 0014 24       		.uleb128 0x24
 2854 0015 00       		.byte	0
 2855 0016 0B       		.uleb128 0xb
 2856 0017 0B       		.uleb128 0xb
 2857 0018 3E       		.uleb128 0x3e
 2858 0019 0B       		.uleb128 0xb
 2859 001a 03       		.uleb128 0x3
 2860 001b 08       		.uleb128 0x8
 2861 001c 00       		.byte	0
 2862 001d 00       		.byte	0
 2863 001e 03       		.uleb128 0x3
 2864 001f 16       		.uleb128 0x16
 2865 0020 00       		.byte	0
 2866 0021 03       		.uleb128 0x3
 2867 0022 0E       		.uleb128 0xe
 2868 0023 3A       		.uleb128 0x3a
 2869 0024 0B       		.uleb128 0xb
 2870 0025 3B       		.uleb128 0x3b
 2871 0026 0B       		.uleb128 0xb
 2872 0027 49       		.uleb128 0x49
 2873 0028 13       		.uleb128 0x13
 2874 0029 00       		.byte	0
 2875 002a 00       		.byte	0
 2876 002b 04       		.uleb128 0x4
 2877 002c 24       		.uleb128 0x24
 2878 002d 00       		.byte	0
 2879 002e 0B       		.uleb128 0xb
 2880 002f 0B       		.uleb128 0xb
 2881 0030 3E       		.uleb128 0x3e
 2882 0031 0B       		.uleb128 0xb
 2883 0032 03       		.uleb128 0x3
 2884 0033 0E       		.uleb128 0xe
 2885 0034 00       		.byte	0
 2886 0035 00       		.byte	0
 2887 0036 05       		.uleb128 0x5
 2888 0037 35       		.uleb128 0x35
 2889 0038 00       		.byte	0
 2890 0039 49       		.uleb128 0x49
 2891 003a 13       		.uleb128 0x13
 2892 003b 00       		.byte	0
ARM GAS  C:\Users\Luis\AppData\Local\Temp\ccEHI8EP.s 			page 52


 2893 003c 00       		.byte	0
 2894 003d 06       		.uleb128 0x6
 2895 003e 13       		.uleb128 0x13
 2896 003f 01       		.byte	0x1
 2897 0040 03       		.uleb128 0x3
 2898 0041 0E       		.uleb128 0xe
 2899 0042 0B       		.uleb128 0xb
 2900 0043 0B       		.uleb128 0xb
 2901 0044 3A       		.uleb128 0x3a
 2902 0045 0B       		.uleb128 0xb
 2903 0046 3B       		.uleb128 0x3b
 2904 0047 0B       		.uleb128 0xb
 2905 0048 01       		.uleb128 0x1
 2906 0049 13       		.uleb128 0x13
 2907 004a 00       		.byte	0
 2908 004b 00       		.byte	0
 2909 004c 07       		.uleb128 0x7
 2910 004d 0D       		.uleb128 0xd
 2911 004e 00       		.byte	0
 2912 004f 03       		.uleb128 0x3
 2913 0050 0E       		.uleb128 0xe
 2914 0051 3A       		.uleb128 0x3a
 2915 0052 0B       		.uleb128 0xb
 2916 0053 3B       		.uleb128 0x3b
 2917 0054 0B       		.uleb128 0xb
 2918 0055 49       		.uleb128 0x49
 2919 0056 13       		.uleb128 0x13
 2920 0057 38       		.uleb128 0x38
 2921 0058 0B       		.uleb128 0xb
 2922 0059 00       		.byte	0
 2923 005a 00       		.byte	0
 2924 005b 08       		.uleb128 0x8
 2925 005c 0D       		.uleb128 0xd
 2926 005d 00       		.byte	0
 2927 005e 03       		.uleb128 0x3
 2928 005f 08       		.uleb128 0x8
 2929 0060 3A       		.uleb128 0x3a
 2930 0061 0B       		.uleb128 0xb
 2931 0062 3B       		.uleb128 0x3b
 2932 0063 05       		.uleb128 0x5
 2933 0064 49       		.uleb128 0x49
 2934 0065 13       		.uleb128 0x13
 2935 0066 38       		.uleb128 0x38
 2936 0067 0B       		.uleb128 0xb
 2937 0068 00       		.byte	0
 2938 0069 00       		.byte	0
 2939 006a 09       		.uleb128 0x9
 2940 006b 0D       		.uleb128 0xd
 2941 006c 00       		.byte	0
 2942 006d 03       		.uleb128 0x3
 2943 006e 0E       		.uleb128 0xe
 2944 006f 3A       		.uleb128 0x3a
 2945 0070 0B       		.uleb128 0xb
 2946 0071 3B       		.uleb128 0x3b
 2947 0072 05       		.uleb128 0x5
 2948 0073 49       		.uleb128 0x49
 2949 0074 13       		.uleb128 0x13
ARM GAS  C:\Users\Luis\AppData\Local\Temp\ccEHI8EP.s 			page 53


 2950 0075 38       		.uleb128 0x38
 2951 0076 0B       		.uleb128 0xb
 2952 0077 00       		.byte	0
 2953 0078 00       		.byte	0
 2954 0079 0A       		.uleb128 0xa
 2955 007a 0F       		.uleb128 0xf
 2956 007b 00       		.byte	0
 2957 007c 0B       		.uleb128 0xb
 2958 007d 0B       		.uleb128 0xb
 2959 007e 49       		.uleb128 0x49
 2960 007f 13       		.uleb128 0x13
 2961 0080 00       		.byte	0
 2962 0081 00       		.byte	0
 2963 0082 0B       		.uleb128 0xb
 2964 0083 13       		.uleb128 0x13
 2965 0084 01       		.byte	0x1
 2966 0085 03       		.uleb128 0x3
 2967 0086 0E       		.uleb128 0xe
 2968 0087 0B       		.uleb128 0xb
 2969 0088 0B       		.uleb128 0xb
 2970 0089 3A       		.uleb128 0x3a
 2971 008a 0B       		.uleb128 0xb
 2972 008b 3B       		.uleb128 0x3b
 2973 008c 05       		.uleb128 0x5
 2974 008d 01       		.uleb128 0x1
 2975 008e 13       		.uleb128 0x13
 2976 008f 00       		.byte	0
 2977 0090 00       		.byte	0
 2978 0091 0C       		.uleb128 0xc
 2979 0092 15       		.uleb128 0x15
 2980 0093 01       		.byte	0x1
 2981 0094 27       		.uleb128 0x27
 2982 0095 19       		.uleb128 0x19
 2983 0096 01       		.uleb128 0x1
 2984 0097 13       		.uleb128 0x13
 2985 0098 00       		.byte	0
 2986 0099 00       		.byte	0
 2987 009a 0D       		.uleb128 0xd
 2988 009b 05       		.uleb128 0x5
 2989 009c 00       		.byte	0
 2990 009d 49       		.uleb128 0x49
 2991 009e 13       		.uleb128 0x13
 2992 009f 00       		.byte	0
 2993 00a0 00       		.byte	0
 2994 00a1 0E       		.uleb128 0xe
 2995 00a2 0F       		.uleb128 0xf
 2996 00a3 00       		.byte	0
 2997 00a4 0B       		.uleb128 0xb
 2998 00a5 0B       		.uleb128 0xb
 2999 00a6 00       		.byte	0
 3000 00a7 00       		.byte	0
 3001 00a8 0F       		.uleb128 0xf
 3002 00a9 13       		.uleb128 0x13
 3003 00aa 01       		.byte	0x1
 3004 00ab 03       		.uleb128 0x3
 3005 00ac 0E       		.uleb128 0xe
 3006 00ad 0B       		.uleb128 0xb
ARM GAS  C:\Users\Luis\AppData\Local\Temp\ccEHI8EP.s 			page 54


 3007 00ae 05       		.uleb128 0x5
 3008 00af 3A       		.uleb128 0x3a
 3009 00b0 0B       		.uleb128 0xb
 3010 00b1 3B       		.uleb128 0x3b
 3011 00b2 05       		.uleb128 0x5
 3012 00b3 01       		.uleb128 0x1
 3013 00b4 13       		.uleb128 0x13
 3014 00b5 00       		.byte	0
 3015 00b6 00       		.byte	0
 3016 00b7 10       		.uleb128 0x10
 3017 00b8 0D       		.uleb128 0xd
 3018 00b9 00       		.byte	0
 3019 00ba 03       		.uleb128 0x3
 3020 00bb 0E       		.uleb128 0xe
 3021 00bc 3A       		.uleb128 0x3a
 3022 00bd 0B       		.uleb128 0xb
 3023 00be 3B       		.uleb128 0x3b
 3024 00bf 05       		.uleb128 0x5
 3025 00c0 49       		.uleb128 0x49
 3026 00c1 13       		.uleb128 0x13
 3027 00c2 38       		.uleb128 0x38
 3028 00c3 05       		.uleb128 0x5
 3029 00c4 00       		.byte	0
 3030 00c5 00       		.byte	0
 3031 00c6 11       		.uleb128 0x11
 3032 00c7 0D       		.uleb128 0xd
 3033 00c8 00       		.byte	0
 3034 00c9 03       		.uleb128 0x3
 3035 00ca 08       		.uleb128 0x8
 3036 00cb 3A       		.uleb128 0x3a
 3037 00cc 0B       		.uleb128 0xb
 3038 00cd 3B       		.uleb128 0x3b
 3039 00ce 05       		.uleb128 0x5
 3040 00cf 49       		.uleb128 0x49
 3041 00d0 13       		.uleb128 0x13
 3042 00d1 38       		.uleb128 0x38
 3043 00d2 05       		.uleb128 0x5
 3044 00d3 00       		.byte	0
 3045 00d4 00       		.byte	0
 3046 00d5 12       		.uleb128 0x12
 3047 00d6 0D       		.uleb128 0xd
 3048 00d7 00       		.byte	0
 3049 00d8 03       		.uleb128 0x3
 3050 00d9 08       		.uleb128 0x8
 3051 00da 3A       		.uleb128 0x3a
 3052 00db 0B       		.uleb128 0xb
 3053 00dc 3B       		.uleb128 0x3b
 3054 00dd 0B       		.uleb128 0xb
 3055 00de 49       		.uleb128 0x49
 3056 00df 13       		.uleb128 0x13
 3057 00e0 38       		.uleb128 0x38
 3058 00e1 0B       		.uleb128 0xb
 3059 00e2 00       		.byte	0
 3060 00e3 00       		.byte	0
 3061 00e4 13       		.uleb128 0x13
 3062 00e5 13       		.uleb128 0x13
 3063 00e6 01       		.byte	0x1
ARM GAS  C:\Users\Luis\AppData\Local\Temp\ccEHI8EP.s 			page 55


 3064 00e7 0B       		.uleb128 0xb
 3065 00e8 0B       		.uleb128 0xb
 3066 00e9 3A       		.uleb128 0x3a
 3067 00ea 0B       		.uleb128 0xb
 3068 00eb 3B       		.uleb128 0x3b
 3069 00ec 0B       		.uleb128 0xb
 3070 00ed 01       		.uleb128 0x1
 3071 00ee 13       		.uleb128 0x13
 3072 00ef 00       		.byte	0
 3073 00f0 00       		.byte	0
 3074 00f1 14       		.uleb128 0x14
 3075 00f2 13       		.uleb128 0x13
 3076 00f3 01       		.byte	0x1
 3077 00f4 0B       		.uleb128 0xb
 3078 00f5 05       		.uleb128 0x5
 3079 00f6 3A       		.uleb128 0x3a
 3080 00f7 0B       		.uleb128 0xb
 3081 00f8 3B       		.uleb128 0x3b
 3082 00f9 0B       		.uleb128 0xb
 3083 00fa 01       		.uleb128 0x1
 3084 00fb 13       		.uleb128 0x13
 3085 00fc 00       		.byte	0
 3086 00fd 00       		.byte	0
 3087 00fe 15       		.uleb128 0x15
 3088 00ff 01       		.uleb128 0x1
 3089 0100 01       		.byte	0x1
 3090 0101 49       		.uleb128 0x49
 3091 0102 13       		.uleb128 0x13
 3092 0103 01       		.uleb128 0x1
 3093 0104 13       		.uleb128 0x13
 3094 0105 00       		.byte	0
 3095 0106 00       		.byte	0
 3096 0107 16       		.uleb128 0x16
 3097 0108 21       		.uleb128 0x21
 3098 0109 00       		.byte	0
 3099 010a 49       		.uleb128 0x49
 3100 010b 13       		.uleb128 0x13
 3101 010c 2F       		.uleb128 0x2f
 3102 010d 0B       		.uleb128 0xb
 3103 010e 00       		.byte	0
 3104 010f 00       		.byte	0
 3105 0110 17       		.uleb128 0x17
 3106 0111 17       		.uleb128 0x17
 3107 0112 01       		.byte	0x1
 3108 0113 0B       		.uleb128 0xb
 3109 0114 0B       		.uleb128 0xb
 3110 0115 3A       		.uleb128 0x3a
 3111 0116 0B       		.uleb128 0xb
 3112 0117 3B       		.uleb128 0x3b
 3113 0118 0B       		.uleb128 0xb
 3114 0119 01       		.uleb128 0x1
 3115 011a 13       		.uleb128 0x13
 3116 011b 00       		.byte	0
 3117 011c 00       		.byte	0
 3118 011d 18       		.uleb128 0x18
 3119 011e 0D       		.uleb128 0xd
 3120 011f 00       		.byte	0
ARM GAS  C:\Users\Luis\AppData\Local\Temp\ccEHI8EP.s 			page 56


 3121 0120 03       		.uleb128 0x3
 3122 0121 0E       		.uleb128 0xe
 3123 0122 3A       		.uleb128 0x3a
 3124 0123 0B       		.uleb128 0xb
 3125 0124 3B       		.uleb128 0x3b
 3126 0125 05       		.uleb128 0x5
 3127 0126 49       		.uleb128 0x49
 3128 0127 13       		.uleb128 0x13
 3129 0128 00       		.byte	0
 3130 0129 00       		.byte	0
 3131 012a 19       		.uleb128 0x19
 3132 012b 26       		.uleb128 0x26
 3133 012c 00       		.byte	0
 3134 012d 49       		.uleb128 0x49
 3135 012e 13       		.uleb128 0x13
 3136 012f 00       		.byte	0
 3137 0130 00       		.byte	0
 3138 0131 1A       		.uleb128 0x1a
 3139 0132 15       		.uleb128 0x15
 3140 0133 01       		.byte	0x1
 3141 0134 27       		.uleb128 0x27
 3142 0135 19       		.uleb128 0x19
 3143 0136 49       		.uleb128 0x49
 3144 0137 13       		.uleb128 0x13
 3145 0138 01       		.uleb128 0x1
 3146 0139 13       		.uleb128 0x13
 3147 013a 00       		.byte	0
 3148 013b 00       		.byte	0
 3149 013c 1B       		.uleb128 0x1b
 3150 013d 04       		.uleb128 0x4
 3151 013e 01       		.byte	0x1
 3152 013f 03       		.uleb128 0x3
 3153 0140 0E       		.uleb128 0xe
 3154 0141 0B       		.uleb128 0xb
 3155 0142 0B       		.uleb128 0xb
 3156 0143 3A       		.uleb128 0x3a
 3157 0144 0B       		.uleb128 0xb
 3158 0145 3B       		.uleb128 0x3b
 3159 0146 0B       		.uleb128 0xb
 3160 0147 01       		.uleb128 0x1
 3161 0148 13       		.uleb128 0x13
 3162 0149 00       		.byte	0
 3163 014a 00       		.byte	0
 3164 014b 1C       		.uleb128 0x1c
 3165 014c 28       		.uleb128 0x28
 3166 014d 00       		.byte	0
 3167 014e 03       		.uleb128 0x3
 3168 014f 0E       		.uleb128 0xe
 3169 0150 1C       		.uleb128 0x1c
 3170 0151 0D       		.uleb128 0xd
 3171 0152 00       		.byte	0
 3172 0153 00       		.byte	0
 3173 0154 1D       		.uleb128 0x1d
 3174 0155 04       		.uleb128 0x4
 3175 0156 01       		.byte	0x1
 3176 0157 0B       		.uleb128 0xb
 3177 0158 0B       		.uleb128 0xb
ARM GAS  C:\Users\Luis\AppData\Local\Temp\ccEHI8EP.s 			page 57


 3178 0159 3A       		.uleb128 0x3a
 3179 015a 0B       		.uleb128 0xb
 3180 015b 3B       		.uleb128 0x3b
 3181 015c 0B       		.uleb128 0xb
 3182 015d 01       		.uleb128 0x1
 3183 015e 13       		.uleb128 0x13
 3184 015f 00       		.byte	0
 3185 0160 00       		.byte	0
 3186 0161 1E       		.uleb128 0x1e
 3187 0162 2E       		.uleb128 0x2e
 3188 0163 01       		.byte	0x1
 3189 0164 03       		.uleb128 0x3
 3190 0165 0E       		.uleb128 0xe
 3191 0166 3A       		.uleb128 0x3a
 3192 0167 0B       		.uleb128 0xb
 3193 0168 3B       		.uleb128 0x3b
 3194 0169 05       		.uleb128 0x5
 3195 016a 27       		.uleb128 0x27
 3196 016b 19       		.uleb128 0x19
 3197 016c 11       		.uleb128 0x11
 3198 016d 01       		.uleb128 0x1
 3199 016e 12       		.uleb128 0x12
 3200 016f 06       		.uleb128 0x6
 3201 0170 40       		.uleb128 0x40
 3202 0171 18       		.uleb128 0x18
 3203 0172 9642     		.uleb128 0x2116
 3204 0174 19       		.uleb128 0x19
 3205 0175 01       		.uleb128 0x1
 3206 0176 13       		.uleb128 0x13
 3207 0177 00       		.byte	0
 3208 0178 00       		.byte	0
 3209 0179 1F       		.uleb128 0x1f
 3210 017a 05       		.uleb128 0x5
 3211 017b 00       		.byte	0
 3212 017c 03       		.uleb128 0x3
 3213 017d 0E       		.uleb128 0xe
 3214 017e 3A       		.uleb128 0x3a
 3215 017f 0B       		.uleb128 0xb
 3216 0180 3B       		.uleb128 0x3b
 3217 0181 05       		.uleb128 0x5
 3218 0182 49       		.uleb128 0x49
 3219 0183 13       		.uleb128 0x13
 3220 0184 02       		.uleb128 0x2
 3221 0185 18       		.uleb128 0x18
 3222 0186 00       		.byte	0
 3223 0187 00       		.byte	0
 3224 0188 20       		.uleb128 0x20
 3225 0189 2E       		.uleb128 0x2e
 3226 018a 01       		.byte	0x1
 3227 018b 03       		.uleb128 0x3
 3228 018c 0E       		.uleb128 0xe
 3229 018d 3A       		.uleb128 0x3a
 3230 018e 0B       		.uleb128 0xb
 3231 018f 3B       		.uleb128 0x3b
 3232 0190 0B       		.uleb128 0xb
 3233 0191 27       		.uleb128 0x27
 3234 0192 19       		.uleb128 0x19
ARM GAS  C:\Users\Luis\AppData\Local\Temp\ccEHI8EP.s 			page 58


 3235 0193 11       		.uleb128 0x11
 3236 0194 01       		.uleb128 0x1
 3237 0195 12       		.uleb128 0x12
 3238 0196 06       		.uleb128 0x6
 3239 0197 40       		.uleb128 0x40
 3240 0198 18       		.uleb128 0x18
 3241 0199 9642     		.uleb128 0x2116
 3242 019b 19       		.uleb128 0x19
 3243 019c 01       		.uleb128 0x1
 3244 019d 13       		.uleb128 0x13
 3245 019e 00       		.byte	0
 3246 019f 00       		.byte	0
 3247 01a0 21       		.uleb128 0x21
 3248 01a1 05       		.uleb128 0x5
 3249 01a2 00       		.byte	0
 3250 01a3 03       		.uleb128 0x3
 3251 01a4 08       		.uleb128 0x8
 3252 01a5 3A       		.uleb128 0x3a
 3253 01a6 0B       		.uleb128 0xb
 3254 01a7 3B       		.uleb128 0x3b
 3255 01a8 0B       		.uleb128 0xb
 3256 01a9 49       		.uleb128 0x49
 3257 01aa 13       		.uleb128 0x13
 3258 01ab 02       		.uleb128 0x2
 3259 01ac 18       		.uleb128 0x18
 3260 01ad 00       		.byte	0
 3261 01ae 00       		.byte	0
 3262 01af 22       		.uleb128 0x22
 3263 01b0 2E       		.uleb128 0x2e
 3264 01b1 00       		.byte	0
 3265 01b2 3F       		.uleb128 0x3f
 3266 01b3 19       		.uleb128 0x19
 3267 01b4 03       		.uleb128 0x3
 3268 01b5 0E       		.uleb128 0xe
 3269 01b6 3A       		.uleb128 0x3a
 3270 01b7 0B       		.uleb128 0xb
 3271 01b8 3B       		.uleb128 0x3b
 3272 01b9 0B       		.uleb128 0xb
 3273 01ba 27       		.uleb128 0x27
 3274 01bb 19       		.uleb128 0x19
 3275 01bc 11       		.uleb128 0x11
 3276 01bd 01       		.uleb128 0x1
 3277 01be 12       		.uleb128 0x12
 3278 01bf 06       		.uleb128 0x6
 3279 01c0 40       		.uleb128 0x40
 3280 01c1 18       		.uleb128 0x18
 3281 01c2 9642     		.uleb128 0x2116
 3282 01c4 19       		.uleb128 0x19
 3283 01c5 00       		.byte	0
 3284 01c6 00       		.byte	0
 3285 01c7 23       		.uleb128 0x23
 3286 01c8 2E       		.uleb128 0x2e
 3287 01c9 01       		.byte	0x1
 3288 01ca 3F       		.uleb128 0x3f
 3289 01cb 19       		.uleb128 0x19
 3290 01cc 03       		.uleb128 0x3
 3291 01cd 0E       		.uleb128 0xe
ARM GAS  C:\Users\Luis\AppData\Local\Temp\ccEHI8EP.s 			page 59


 3292 01ce 3A       		.uleb128 0x3a
 3293 01cf 0B       		.uleb128 0xb
 3294 01d0 3B       		.uleb128 0x3b
 3295 01d1 05       		.uleb128 0x5
 3296 01d2 27       		.uleb128 0x27
 3297 01d3 19       		.uleb128 0x19
 3298 01d4 11       		.uleb128 0x11
 3299 01d5 01       		.uleb128 0x1
 3300 01d6 12       		.uleb128 0x12
 3301 01d7 06       		.uleb128 0x6
 3302 01d8 40       		.uleb128 0x40
 3303 01d9 18       		.uleb128 0x18
 3304 01da 9642     		.uleb128 0x2116
 3305 01dc 19       		.uleb128 0x19
 3306 01dd 01       		.uleb128 0x1
 3307 01de 13       		.uleb128 0x13
 3308 01df 00       		.byte	0
 3309 01e0 00       		.byte	0
 3310 01e1 24       		.uleb128 0x24
 3311 01e2 05       		.uleb128 0x5
 3312 01e3 00       		.byte	0
 3313 01e4 03       		.uleb128 0x3
 3314 01e5 08       		.uleb128 0x8
 3315 01e6 3A       		.uleb128 0x3a
 3316 01e7 0B       		.uleb128 0xb
 3317 01e8 3B       		.uleb128 0x3b
 3318 01e9 05       		.uleb128 0x5
 3319 01ea 49       		.uleb128 0x49
 3320 01eb 13       		.uleb128 0x13
 3321 01ec 02       		.uleb128 0x2
 3322 01ed 18       		.uleb128 0x18
 3323 01ee 00       		.byte	0
 3324 01ef 00       		.byte	0
 3325 01f0 25       		.uleb128 0x25
 3326 01f1 34       		.uleb128 0x34
 3327 01f2 00       		.byte	0
 3328 01f3 03       		.uleb128 0x3
 3329 01f4 0E       		.uleb128 0xe
 3330 01f5 3A       		.uleb128 0x3a
 3331 01f6 0B       		.uleb128 0xb
 3332 01f7 3B       		.uleb128 0x3b
 3333 01f8 05       		.uleb128 0x5
 3334 01f9 49       		.uleb128 0x49
 3335 01fa 13       		.uleb128 0x13
 3336 01fb 02       		.uleb128 0x2
 3337 01fc 18       		.uleb128 0x18
 3338 01fd 00       		.byte	0
 3339 01fe 00       		.byte	0
 3340 01ff 26       		.uleb128 0x26
 3341 0200 34       		.uleb128 0x34
 3342 0201 00       		.byte	0
 3343 0202 03       		.uleb128 0x3
 3344 0203 08       		.uleb128 0x8
 3345 0204 3A       		.uleb128 0x3a
 3346 0205 0B       		.uleb128 0xb
 3347 0206 3B       		.uleb128 0x3b
 3348 0207 05       		.uleb128 0x5
ARM GAS  C:\Users\Luis\AppData\Local\Temp\ccEHI8EP.s 			page 60


 3349 0208 49       		.uleb128 0x49
 3350 0209 13       		.uleb128 0x13
 3351 020a 02       		.uleb128 0x2
 3352 020b 18       		.uleb128 0x18
 3353 020c 00       		.byte	0
 3354 020d 00       		.byte	0
 3355 020e 27       		.uleb128 0x27
 3356 020f 0A       		.uleb128 0xa
 3357 0210 00       		.byte	0
 3358 0211 03       		.uleb128 0x3
 3359 0212 0E       		.uleb128 0xe
 3360 0213 3A       		.uleb128 0x3a
 3361 0214 0B       		.uleb128 0xb
 3362 0215 3B       		.uleb128 0x3b
 3363 0216 05       		.uleb128 0x5
 3364 0217 11       		.uleb128 0x11
 3365 0218 01       		.uleb128 0x1
 3366 0219 00       		.byte	0
 3367 021a 00       		.byte	0
 3368 021b 28       		.uleb128 0x28
 3369 021c 34       		.uleb128 0x34
 3370 021d 00       		.byte	0
 3371 021e 03       		.uleb128 0x3
 3372 021f 0E       		.uleb128 0xe
 3373 0220 3A       		.uleb128 0x3a
 3374 0221 0B       		.uleb128 0xb
 3375 0222 3B       		.uleb128 0x3b
 3376 0223 0B       		.uleb128 0xb
 3377 0224 49       		.uleb128 0x49
 3378 0225 13       		.uleb128 0x13
 3379 0226 02       		.uleb128 0x2
 3380 0227 18       		.uleb128 0x18
 3381 0228 00       		.byte	0
 3382 0229 00       		.byte	0
 3383 022a 29       		.uleb128 0x29
 3384 022b 34       		.uleb128 0x34
 3385 022c 00       		.byte	0
 3386 022d 03       		.uleb128 0x3
 3387 022e 0E       		.uleb128 0xe
 3388 022f 3A       		.uleb128 0x3a
 3389 0230 0B       		.uleb128 0xb
 3390 0231 3B       		.uleb128 0x3b
 3391 0232 05       		.uleb128 0x5
 3392 0233 49       		.uleb128 0x49
 3393 0234 13       		.uleb128 0x13
 3394 0235 3F       		.uleb128 0x3f
 3395 0236 19       		.uleb128 0x19
 3396 0237 3C       		.uleb128 0x3c
 3397 0238 19       		.uleb128 0x19
 3398 0239 00       		.byte	0
 3399 023a 00       		.byte	0
 3400 023b 2A       		.uleb128 0x2a
 3401 023c 34       		.uleb128 0x34
 3402 023d 00       		.byte	0
 3403 023e 03       		.uleb128 0x3
 3404 023f 08       		.uleb128 0x8
 3405 0240 3A       		.uleb128 0x3a
ARM GAS  C:\Users\Luis\AppData\Local\Temp\ccEHI8EP.s 			page 61


 3406 0241 0B       		.uleb128 0xb
 3407 0242 3B       		.uleb128 0x3b
 3408 0243 05       		.uleb128 0x5
 3409 0244 49       		.uleb128 0x49
 3410 0245 13       		.uleb128 0x13
 3411 0246 3F       		.uleb128 0x3f
 3412 0247 19       		.uleb128 0x19
 3413 0248 3C       		.uleb128 0x3c
 3414 0249 19       		.uleb128 0x19
 3415 024a 00       		.byte	0
 3416 024b 00       		.byte	0
 3417 024c 00       		.byte	0
 3418              		.section	.debug_aranges,"",%progbits
 3419 0000 5C000000 		.4byte	0x5c
 3420 0004 0200     		.2byte	0x2
 3421 0006 00000000 		.4byte	.Ldebug_info0
 3422 000a 04       		.byte	0x4
 3423 000b 00       		.byte	0
 3424 000c 0000     		.2byte	0
 3425 000e 0000     		.2byte	0
 3426 0010 00000000 		.4byte	.LFB230
 3427 0014 14000000 		.4byte	.LFE230-.LFB230
 3428 0018 00000000 		.4byte	.LFB260
 3429 001c 44000000 		.4byte	.LFE260-.LFB260
 3430 0020 00000000 		.4byte	.LFB261
 3431 0024 40000000 		.4byte	.LFE261-.LFB261
 3432 0028 00000000 		.4byte	.LFB262
 3433 002c 24000000 		.4byte	.LFE262-.LFB262
 3434 0030 00000000 		.4byte	.LFB263
 3435 0034 24000000 		.4byte	.LFE263-.LFB263
 3436 0038 00000000 		.4byte	.LFB264
 3437 003c 28000000 		.4byte	.LFE264-.LFB264
 3438 0040 00000000 		.4byte	.LFB265
 3439 0044 F0000000 		.4byte	.LFE265-.LFB265
 3440 0048 00000000 		.4byte	.LFB266
 3441 004c 8C000000 		.4byte	.LFE266-.LFB266
 3442 0050 00000000 		.4byte	.LFB267
 3443 0054 B0000000 		.4byte	.LFE267-.LFB267
 3444 0058 00000000 		.4byte	0
 3445 005c 00000000 		.4byte	0
 3446              		.section	.debug_ranges,"",%progbits
 3447              	.Ldebug_ranges0:
 3448 0000 00000000 		.4byte	.LFB230
 3449 0004 14000000 		.4byte	.LFE230
 3450 0008 00000000 		.4byte	.LFB260
 3451 000c 44000000 		.4byte	.LFE260
 3452 0010 00000000 		.4byte	.LFB261
 3453 0014 40000000 		.4byte	.LFE261
 3454 0018 00000000 		.4byte	.LFB262
 3455 001c 24000000 		.4byte	.LFE262
 3456 0020 00000000 		.4byte	.LFB263
 3457 0024 24000000 		.4byte	.LFE263
 3458 0028 00000000 		.4byte	.LFB264
 3459 002c 28000000 		.4byte	.LFE264
 3460 0030 00000000 		.4byte	.LFB265
 3461 0034 F0000000 		.4byte	.LFE265
 3462 0038 00000000 		.4byte	.LFB266
ARM GAS  C:\Users\Luis\AppData\Local\Temp\ccEHI8EP.s 			page 62


 3463 003c 8C000000 		.4byte	.LFE266
 3464 0040 00000000 		.4byte	.LFB267
 3465 0044 B0000000 		.4byte	.LFE267
 3466 0048 00000000 		.4byte	0
 3467 004c 00000000 		.4byte	0
 3468              		.section	.debug_line,"",%progbits
 3469              	.Ldebug_line0:
 3470 0000 1F040000 		.section	.debug_str,"MS",%progbits,1
 3470      0200EA02 
 3470      00000201 
 3470      FB0E0D00 
 3470      01010101 
 3471              	.LASF258:
 3472 0000 70726576 		.ascii	"prev_t\000"
 3472      5F7400
 3473              	.LASF52:
 3474 0007 63685F74 		.ascii	"ch_threads_list\000"
 3474      68726561 
 3474      64735F6C 
 3474      69737400 
 3475              	.LASF53:
 3476 0017 74687265 		.ascii	"threads_queue_t\000"
 3476      6164735F 
 3476      71756575 
 3476      655F7400 
 3477              	.LASF118:
 3478 0027 77746D74 		.ascii	"wtmtxp\000"
 3478      787000
 3479              	.LASF234:
 3480 002e 4D454D50 		.ascii	"MEMP_TCP_PCB_LISTEN\000"
 3480      5F544350 
 3480      5F504342 
 3480      5F4C4953 
 3480      54454E00 
 3481              	.LASF49:
 3482 0042 74687265 		.ascii	"thread_reference_t\000"
 3482      61645F72 
 3482      65666572 
 3482      656E6365 
 3482      5F7400
 3483              	.LASF161:
 3484 0055 736F5F6F 		.ascii	"so_options\000"
 3484      7074696F 
 3484      6E7300
 3485              	.LASF127:
 3486 0060 63686172 		.ascii	"char\000"
 3486      00
 3487              	.LASF88:
 3488 0065 72656761 		.ascii	"regarm_t\000"
 3488      726D5F74 
 3488      00
 3489              	.LASF31:
 3490 006e 705F7072 		.ascii	"p_prio\000"
 3490      696F00
 3491              	.LASF272:
 3492 0075 61676169 		.ascii	"again\000"
 3492      6E00
ARM GAS  C:\Users\Luis\AppData\Local\Temp\ccEHI8EP.s 			page 63


 3493              	.LASF145:
 3494 007b 7379735F 		.ascii	"sys_timeout_handler\000"
 3494      74696D65 
 3494      6F75745F 
 3494      68616E64 
 3494      6C657200 
 3495              	.LASF230:
 3496 008f 75726770 		.ascii	"urgp\000"
 3496      00
 3497              	.LASF168:
 3498 0094 706F6C6C 		.ascii	"polltmr\000"
 3498      746D7200 
 3499              	.LASF157:
 3500 009c 7463705F 		.ascii	"tcp_accept_fn\000"
 3500      61636365 
 3500      70745F66 
 3500      6E00
 3501              	.LASF153:
 3502 00aa 666C6167 		.ascii	"flags\000"
 3502      7300
 3503              	.LASF27:
 3504 00b0 73797374 		.ascii	"systime_t\000"
 3504      696D655F 
 3504      7400
 3505              	.LASF125:
 3506 00ba 6D5F6F77 		.ascii	"m_owner\000"
 3506      6E657200 
 3507              	.LASF121:
 3508 00c2 735F7175 		.ascii	"s_queue\000"
 3508      65756500 
 3509              	.LASF221:
 3510 00ca 54494D45 		.ascii	"TIME_WAIT\000"
 3510      5F574149 
 3510      5400
 3511              	.LASF0:
 3512 00d4 756E7369 		.ascii	"unsigned int\000"
 3512      676E6564 
 3512      20696E74 
 3512      00
 3513              	.LASF210:
 3514 00e1 7463705F 		.ascii	"tcp_connected_fn\000"
 3514      636F6E6E 
 3514      65637465 
 3514      645F666E 
 3514      00
 3515              	.LASF147:
 3516 00f2 6E657874 		.ascii	"next\000"
 3516      00
 3517              	.LASF111:
 3518 00f7 6D5F6372 		.ascii	"m_crit_isr\000"
 3518      69745F69 
 3518      737200
 3519              	.LASF257:
 3520 0102 7379735F 		.ascii	"sys_untimeout\000"
 3520      756E7469 
 3520      6D656F75 
 3520      7400
ARM GAS  C:\Users\Luis\AppData\Local\Temp\ccEHI8EP.s 			page 64


 3521              	.LASF50:
 3522 0110 74687265 		.ascii	"threads_list_t\000"
 3522      6164735F 
 3522      6C697374 
 3522      5F7400
 3523              	.LASF143:
 3524 011f 6572725F 		.ascii	"err_t\000"
 3524      7400
 3525              	.LASF106:
 3526 0125 63756D75 		.ascii	"cumulative\000"
 3526      6C617469 
 3526      766500
 3527              	.LASF40:
 3528 0130 705F7761 		.ascii	"p_waiting\000"
 3528      6974696E 
 3528      6700
 3529              	.LASF95:
 3530 013a 73655F73 		.ascii	"se_state\000"
 3530      74617465 
 3530      00
 3531              	.LASF140:
 3532 0143 7531365F 		.ascii	"u16_t\000"
 3532      7400
 3533              	.LASF268:
 3534 0149 474E5520 		.ascii	"GNU C 4.8.3 20131129 (release) [ARM/embedded-4_8-br"
 3534      4320342E 
 3534      382E3320 
 3534      32303133 
 3534      31313239 
 3535 017c 616E6368 		.ascii	"anch revision 205641] -mcpu=cortex-m4 -mapcs-frame "
 3535      20726576 
 3535      6973696F 
 3535      6E203230 
 3535      35363431 
 3536 01af 2D6D6E6F 		.ascii	"-mno-thumb-interwork -mthumb -ggdb -O0 -falign-func"
 3536      2D746875 
 3536      6D622D69 
 3536      6E746572 
 3536      776F726B 
 3537 01e2 74696F6E 		.ascii	"tions=16 -ffunction-sections -fdata-sections -fno-c"
 3537      733D3136 
 3537      202D6666 
 3537      756E6374 
 3537      696F6E2D 
 3538 0215 6F6D6D6F 		.ascii	"ommon\000"
 3538      6E00
 3539              	.LASF261:
 3540 021b 74696D65 		.ascii	"time_needed\000"
 3540      5F6E6565 
 3540      64656400 
 3541              	.LASF254:
 3542 0227 68616E64 		.ascii	"handler\000"
 3542      6C657200 
 3543              	.LASF83:
 3544 022f 76746C69 		.ascii	"vtlist\000"
 3544      737400
 3545              	.LASF174:
ARM GAS  C:\Users\Luis\AppData\Local\Temp\ccEHI8EP.s 			page 65


 3546 0236 7263765F 		.ascii	"rcv_ann_right_edge\000"
 3546      616E6E5F 
 3546      72696768 
 3546      745F6564 
 3546      676500
 3547              	.LASF56:
 3548 0249 63685F72 		.ascii	"ch_ready_list\000"
 3548      65616479 
 3548      5F6C6973 
 3548      7400
 3549              	.LASF86:
 3550 0257 69646C65 		.ascii	"idle_thread_wa\000"
 3550      5F746872 
 3550      6561645F 
 3550      776100
 3551              	.LASF119:
 3552 0266 65776D61 		.ascii	"ewmask\000"
 3552      736B00
 3553              	.LASF205:
 3554 026d 6B656570 		.ascii	"keep_cnt_sent\000"
 3554      5F636E74 
 3554      5F73656E 
 3554      7400
 3555              	.LASF244:
 3556 027b 4D454D50 		.ascii	"MEMP_PBUF_POOL\000"
 3556      5F504255 
 3556      465F504F 
 3556      4F4C00
 3557              	.LASF207:
 3558 028a 7463705F 		.ascii	"tcp_sent_fn\000"
 3558      73656E74 
 3558      5F666E00 
 3559              	.LASF63:
 3560 0296 76746675 		.ascii	"vtfunc_t\000"
 3560      6E635F74 
 3560      00
 3561              	.LASF115:
 3562 029f 77746F62 		.ascii	"wtobjp\000"
 3562      6A7000
 3563              	.LASF122:
 3564 02a6 735F636E 		.ascii	"s_cnt\000"
 3564      7400
 3565              	.LASF75:
 3566 02ac 63685F73 		.ascii	"ch_system_debug\000"
 3566      79737465 
 3566      6D5F6465 
 3566      62756700 
 3567              	.LASF226:
 3568 02bc 7365716E 		.ascii	"seqno\000"
 3568      6F00
 3569              	.LASF12:
 3570 02c2 75696E74 		.ascii	"uint32_t\000"
 3570      33325F74 
 3570      00
 3571              	.LASF239:
 3572 02cb 4D454D50 		.ascii	"MEMP_NETCONN\000"
 3572      5F4E4554 
ARM GAS  C:\Users\Luis\AppData\Local\Temp\ccEHI8EP.s 			page 66


 3572      434F4E4E 
 3572      00
 3573              	.LASF181:
 3574 02d8 63776E64 		.ascii	"cwnd\000"
 3574      00
 3575              	.LASF112:
 3576 02dd 6B65726E 		.ascii	"kernel_stats_t\000"
 3576      656C5F73 
 3576      74617473 
 3576      5F7400
 3577              	.LASF24:
 3578 02ec 6576656E 		.ascii	"eventmask_t\000"
 3578      746D6173 
 3578      6B5F7400 
 3579              	.LASF58:
 3580 02f8 725F7072 		.ascii	"r_prio\000"
 3580      696F00
 3581              	.LASF163:
 3582 02ff 61636365 		.ascii	"accept\000"
 3582      707400
 3583              	.LASF85:
 3584 0306 6B65726E 		.ascii	"kernel_stats\000"
 3584      656C5F73 
 3584      74617473 
 3584      00
 3585              	.LASF240:
 3586 0313 4D454D50 		.ascii	"MEMP_TCPIP_MSG_API\000"
 3586      5F544350 
 3586      49505F4D 
 3586      53475F41 
 3586      504900
 3587              	.LASF166:
 3588 0326 6C6F6361 		.ascii	"local_port\000"
 3588      6C5F706F 
 3588      727400
 3589              	.LASF120:
 3590 0331 63685F73 		.ascii	"ch_semaphore\000"
 3590      656D6170 
 3590      686F7265 
 3590      00
 3591              	.LASF22:
 3592 033e 74707269 		.ascii	"tprio_t\000"
 3592      6F5F7400 
 3593              	.LASF65:
 3594 0346 63685F76 		.ascii	"ch_virtual_timer\000"
 3594      69727475 
 3594      616C5F74 
 3594      696D6572 
 3594      00
 3595              	.LASF6:
 3596 0357 696E7431 		.ascii	"int16_t\000"
 3596      365F7400 
 3597              	.LASF222:
 3598 035f 7463705F 		.ascii	"tcp_seg\000"
 3598      73656700 
 3599              	.LASF16:
 3600 0367 6C6F6E67 		.ascii	"long long unsigned int\000"
ARM GAS  C:\Users\Luis\AppData\Local\Temp\ccEHI8EP.s 			page 67


 3600      206C6F6E 
 3600      6720756E 
 3600      7369676E 
 3600      65642069 
 3601              	.LASF94:
 3602 037e 73655F77 		.ascii	"se_wtobjp\000"
 3602      746F626A 
 3602      7000
 3603              	.LASF248:
 3604 0388 72656173 		.ascii	"reason\000"
 3604      6F6E00
 3605              	.LASF177:
 3606 038f 72747365 		.ascii	"rtseq\000"
 3606      7100
 3607              	.LASF25:
 3608 0395 636E745F 		.ascii	"cnt_t\000"
 3608      7400
 3609              	.LASF175:
 3610 039b 7274696D 		.ascii	"rtime\000"
 3610      6500
 3611              	.LASF148:
 3612 03a1 74696D65 		.ascii	"time\000"
 3612      00
 3613              	.LASF77:
 3614 03a6 6973725F 		.ascii	"isr_cnt\000"
 3614      636E7400 
 3615              	.LASF104:
 3616 03ae 776F7273 		.ascii	"worst\000"
 3616      7400
 3617              	.LASF128:
 3618 03b4 73656D61 		.ascii	"semaphore_t\000"
 3618      70686F72 
 3618      655F7400 
 3619              	.LASF33:
 3620 03c0 705F6E65 		.ascii	"p_newer\000"
 3620      77657200 
 3621              	.LASF72:
 3622 03c8 63685F76 		.ascii	"ch_virtual_timers_list\000"
 3622      69727475 
 3622      616C5F74 
 3622      696D6572 
 3622      735F6C69 
 3623              	.LASF171:
 3624 03df 7263765F 		.ascii	"rcv_nxt\000"
 3624      6E787400 
 3625              	.LASF241:
 3626 03e7 4D454D50 		.ascii	"MEMP_TCPIP_MSG_INPKT\000"
 3626      5F544350 
 3626      49505F4D 
 3626      53475F49 
 3626      4E504B54 
 3627              	.LASF194:
 3628 03fc 756E6163 		.ascii	"unacked\000"
 3628      6B656400 
 3629              	.LASF92:
 3630 0404 73655F74 		.ascii	"se_time\000"
 3630      696D6500 
ARM GAS  C:\Users\Luis\AppData\Local\Temp\ccEHI8EP.s 			page 68


 3631              	.LASF28:
 3632 040c 74687265 		.ascii	"thread_t\000"
 3632      61645F74 
 3632      00
 3633              	.LASF29:
 3634 0415 705F6E65 		.ascii	"p_next\000"
 3634      787400
 3635              	.LASF220:
 3636 041c 4C415354 		.ascii	"LAST_ACK\000"
 3636      5F41434B 
 3636      00
 3637              	.LASF229:
 3638 0425 63686B73 		.ascii	"chksum\000"
 3638      756D00
 3639              	.LASF1:
 3640 042c 73697A65 		.ascii	"size_t\000"
 3640      5F7400
 3641              	.LASF113:
 3642 0433 7264796D 		.ascii	"rdymsg\000"
 3642      736700
 3643              	.LASF150:
 3644 043a 7061796C 		.ascii	"payload\000"
 3644      6F616400 
 3645              	.LASF250:
 3646 0442 6172705F 		.ascii	"arp_timer\000"
 3646      74696D65 
 3646      7200
 3647              	.LASF101:
 3648 044c 6F666673 		.ascii	"offset\000"
 3648      657400
 3649              	.LASF271:
 3650 0453 7463705F 		.ascii	"tcp_state\000"
 3650      73746174 
 3650      6500
 3651              	.LASF199:
 3652 045d 636F6E6E 		.ascii	"connected\000"
 3652      65637465 
 3652      6400
 3653              	.LASF137:
 3654 0467 5F426F6F 		.ascii	"_Bool\000"
 3654      6C00
 3655              	.LASF133:
 3656 046d 6D625F72 		.ascii	"mb_rdptr\000"
 3656      64707472 
 3656      00
 3657              	.LASF136:
 3658 0476 6D61696C 		.ascii	"mailbox_t\000"
 3658      626F785F 
 3658      7400
 3659              	.LASF219:
 3660 0480 434C4F53 		.ascii	"CLOSING\000"
 3660      494E4700 
 3661              	.LASF123:
 3662 0488 63685F6D 		.ascii	"ch_mutex\000"
 3662      75746578 
 3662      00
 3663              	.LASF180:
ARM GAS  C:\Users\Luis\AppData\Local\Temp\ccEHI8EP.s 			page 69


 3664 0491 6C617374 		.ascii	"lastack\000"
 3664      61636B00 
 3665              	.LASF245:
 3666 0499 4D454D50 		.ascii	"MEMP_MAX\000"
 3666      5F4D4158 
 3666      00
 3667              	.LASF139:
 3668 04a2 73385F74 		.ascii	"s8_t\000"
 3668      00
 3669              	.LASF105:
 3670 04a7 6C617374 		.ascii	"last\000"
 3670      00
 3671              	.LASF135:
 3672 04ac 6D625F65 		.ascii	"mb_emptysem\000"
 3672      6D707479 
 3672      73656D00 
 3673              	.LASF269:
 3674 04b8 2E2E2F2E 		.ascii	"../../ChibiOS/ext/lwip/src/core/timers.c\000"
 3674      2E2F4368 
 3674      6962694F 
 3674      532F6578 
 3674      742F6C77 
 3675              	.LASF107:
 3676 04e1 74696D65 		.ascii	"time_measurement_t\000"
 3676      5F6D6561 
 3676      73757265 
 3676      6D656E74 
 3676      5F7400
 3677              	.LASF2:
 3678 04f4 696E7438 		.ascii	"int8_t\000"
 3678      5F7400
 3679              	.LASF35:
 3680 04fb 705F6E61 		.ascii	"p_name\000"
 3680      6D6500
 3681              	.LASF179:
 3682 0502 64757061 		.ascii	"dupacks\000"
 3682      636B7300 
 3683              	.LASF165:
 3684 050a 7072696F 		.ascii	"prio\000"
 3684      00
 3685              	.LASF169:
 3686 050f 706F6C6C 		.ascii	"pollinterval\000"
 3686      696E7465 
 3686      7276616C 
 3686      00
 3687              	.LASF243:
 3688 051c 4D454D50 		.ascii	"MEMP_PBUF\000"
 3688      5F504255 
 3688      4600
 3689              	.LASF200:
 3690 0526 706F6C6C 		.ascii	"poll\000"
 3690      00
 3691              	.LASF68:
 3692 052b 76745F64 		.ascii	"vt_delta\000"
 3692      656C7461 
 3692      00
 3693              	.LASF256:
ARM GAS  C:\Users\Luis\AppData\Local\Temp\ccEHI8EP.s 			page 70


 3694 0534 7379735F 		.ascii	"sys_timeout\000"
 3694      74696D65 
 3694      6F757400 
 3695              	.LASF184:
 3696 0540 736E645F 		.ascii	"snd_wl1\000"
 3696      776C3100 
 3697              	.LASF18:
 3698 0548 72747469 		.ascii	"rttime_t\000"
 3698      6D655F74 
 3698      00
 3699              	.LASF73:
 3700 0551 76745F6C 		.ascii	"vt_lasttime\000"
 3700      61737474 
 3700      696D6500 
 3701              	.LASF189:
 3702 055d 61636B65 		.ascii	"acked\000"
 3702      6400
 3703              	.LASF218:
 3704 0563 434C4F53 		.ascii	"CLOSE_WAIT\000"
 3704      455F5741 
 3704      495400
 3705              	.LASF20:
 3706 056e 74737461 		.ascii	"tstate_t\000"
 3706      74655F74 
 3706      00
 3707              	.LASF93:
 3708 0577 73655F74 		.ascii	"se_tp\000"
 3708      7000
 3709              	.LASF14:
 3710 057d 6C6F6E67 		.ascii	"long long int\000"
 3710      206C6F6E 
 3710      6720696E 
 3710      7400
 3711              	.LASF34:
 3712 058b 705F6F6C 		.ascii	"p_older\000"
 3712      64657200 
 3713              	.LASF130:
 3714 0593 6D625F62 		.ascii	"mb_buffer\000"
 3714      75666665 
 3714      7200
 3715              	.LASF36:
 3716 059d 705F7374 		.ascii	"p_stklimit\000"
 3716      6B6C696D 
 3716      697400
 3717              	.LASF197:
 3718 05a8 73656E74 		.ascii	"sent\000"
 3718      00
 3719              	.LASF4:
 3720 05ad 75696E74 		.ascii	"uint8_t\000"
 3720      385F7400 
 3721              	.LASF134:
 3722 05b5 6D625F66 		.ascii	"mb_fullsem\000"
 3722      756C6C73 
 3722      656D00
 3723              	.LASF152:
 3724 05c0 74797065 		.ascii	"type\000"
 3724      00
ARM GAS  C:\Users\Luis\AppData\Local\Temp\ccEHI8EP.s 			page 71


 3725              	.LASF185:
 3726 05c5 736E645F 		.ascii	"snd_wl2\000"
 3726      776C3200 
 3727              	.LASF47:
 3728 05cd 705F7374 		.ascii	"p_stats\000"
 3728      61747300 
 3729              	.LASF46:
 3730 05d5 705F6D70 		.ascii	"p_mpool\000"
 3730      6F6F6C00 
 3731              	.LASF44:
 3732 05dd 705F6D74 		.ascii	"p_mtxlist\000"
 3732      786C6973 
 3732      7400
 3733              	.LASF209:
 3734 05e7 7463705F 		.ascii	"tcp_err_fn\000"
 3734      6572725F 
 3734      666E00
 3735              	.LASF37:
 3736 05f2 705F7374 		.ascii	"p_state\000"
 3736      61746500 
 3737              	.LASF51:
 3738 05fa 63685F74 		.ascii	"ch_thread\000"
 3738      68726561 
 3738      6400
 3739              	.LASF97:
 3740 0604 74625F73 		.ascii	"tb_size\000"
 3740      697A6500 
 3741              	.LASF186:
 3742 060c 736E645F 		.ascii	"snd_lbb\000"
 3742      6C626200 
 3743              	.LASF74:
 3744 0614 73797374 		.ascii	"system_debug_t\000"
 3744      656D5F64 
 3744      65627567 
 3744      5F7400
 3745              	.LASF238:
 3746 0623 4D454D50 		.ascii	"MEMP_NETBUF\000"
 3746      5F4E4554 
 3746      42554600 
 3747              	.LASF54:
 3748 062f 63685F74 		.ascii	"ch_threads_queue\000"
 3748      68726561 
 3748      64735F71 
 3748      75657565 
 3748      00
 3749              	.LASF227:
 3750 0640 61636B6E 		.ascii	"ackno\000"
 3750      6F00
 3751              	.LASF57:
 3752 0646 725F7175 		.ascii	"r_queue\000"
 3752      65756500 
 3753              	.LASF259:
 3754 064e 7379735F 		.ascii	"sys_timeouts_mbox_fetch\000"
 3754      74696D65 
 3754      6F757473 
 3754      5F6D626F 
 3754      785F6665 
ARM GAS  C:\Users\Luis\AppData\Local\Temp\ccEHI8EP.s 			page 72


 3755              	.LASF60:
 3756 0666 725F6E65 		.ascii	"r_newer\000"
 3756      77657200 
 3757              	.LASF23:
 3758 066e 6D73675F 		.ascii	"msg_t\000"
 3758      7400
 3759              	.LASF233:
 3760 0674 4D454D50 		.ascii	"MEMP_TCP_PCB\000"
 3760      5F544350 
 3760      5F504342 
 3760      00
 3761              	.LASF138:
 3762 0681 75385F74 		.ascii	"u8_t\000"
 3762      00
 3763              	.LASF38:
 3764 0686 705F666C 		.ascii	"p_flags\000"
 3764      61677300 
 3765              	.LASF64:
 3766 068e 76697274 		.ascii	"virtual_timer_t\000"
 3766      75616C5F 
 3766      74696D65 
 3766      725F7400 
 3767              	.LASF246:
 3768 069e 6F73616C 		.ascii	"osalSysHalt\000"
 3768      53797348 
 3768      616C7400 
 3769              	.LASF167:
 3770 06aa 72656D6F 		.ascii	"remote_port\000"
 3770      74655F70 
 3770      6F727400 
 3771              	.LASF99:
 3772 06b6 74625F62 		.ascii	"tb_buffer\000"
 3772      75666665 
 3772      7200
 3773              	.LASF131:
 3774 06c0 6D625F74 		.ascii	"mb_top\000"
 3774      6F7000
 3775              	.LASF98:
 3776 06c7 74625F70 		.ascii	"tb_ptr\000"
 3776      747200
 3777              	.LASF173:
 3778 06ce 7263765F 		.ascii	"rcv_ann_wnd\000"
 3778      616E6E5F 
 3778      776E6400 
 3779              	.LASF61:
 3780 06da 725F6F6C 		.ascii	"r_older\000"
 3780      64657200 
 3781              	.LASF236:
 3782 06e2 4D454D50 		.ascii	"MEMP_REASSDATA\000"
 3782      5F524541 
 3782      53534441 
 3782      544100
 3783              	.LASF109:
 3784 06f1 6E5F6374 		.ascii	"n_ctxswc\000"
 3784      78737763 
 3784      00
 3785              	.LASF206:
ARM GAS  C:\Users\Luis\AppData\Local\Temp\ccEHI8EP.s 			page 73


 3786 06fa 7463705F 		.ascii	"tcp_recv_fn\000"
 3786      72656376 
 3786      5F666E00 
 3787              	.LASF76:
 3788 0706 70616E69 		.ascii	"panic_msg\000"
 3788      635F6D73 
 3788      6700
 3789              	.LASF90:
 3790 0710 636F6E74 		.ascii	"context\000"
 3790      65787400 
 3791              	.LASF42:
 3792 0718 705F6D73 		.ascii	"p_msg\000"
 3792      6700
 3793              	.LASF102:
 3794 071e 746D5F63 		.ascii	"tm_calibration_t\000"
 3794      616C6962 
 3794      72617469 
 3794      6F6E5F74 
 3794      00
 3795              	.LASF19:
 3796 072f 746D6F64 		.ascii	"tmode_t\000"
 3796      655F7400 
 3797              	.LASF26:
 3798 0737 75636E74 		.ascii	"ucnt_t\000"
 3798      5F7400
 3799              	.LASF84:
 3800 073e 6D61696E 		.ascii	"mainthread\000"
 3800      74687265 
 3800      616400
 3801              	.LASF251:
 3802 0749 7463705F 		.ascii	"tcp_timer_needed\000"
 3802      74696D65 
 3802      725F6E65 
 3802      65646564 
 3802      00
 3803              	.LASF8:
 3804 075a 75696E74 		.ascii	"uint16_t\000"
 3804      31365F74 
 3804      00
 3805              	.LASF201:
 3806 0763 65727266 		.ascii	"errf\000"
 3806      00
 3807              	.LASF208:
 3808 0768 7463705F 		.ascii	"tcp_poll_fn\000"
 3808      706F6C6C 
 3808      5F666E00 
 3809              	.LASF187:
 3810 0774 736E645F 		.ascii	"snd_wnd\000"
 3810      776E6400 
 3811              	.LASF255:
 3812 077c 74696D65 		.ascii	"timeout\000"
 3812      6F757400 
 3813              	.LASF17:
 3814 0784 7274636E 		.ascii	"rtcnt_t\000"
 3814      745F7400 
 3815              	.LASF78:
 3816 078c 6C6F636B 		.ascii	"lock_cnt\000"
ARM GAS  C:\Users\Luis\AppData\Local\Temp\ccEHI8EP.s 			page 74


 3816      5F636E74 
 3816      00
 3817              	.LASF270:
 3818 0795 433A5C55 		.ascii	"C:\\Users\\Luis\\git\\DSP-Library-Lanin\\examples\\"
 3818      73657273 
 3818      5C4C7569 
 3818      735C6769 
 3818      745C4453 
 3819 07c2 53544D33 		.ascii	"STM32F407_EMTECH-LWIP\000"
 3819      32463430 
 3819      375F454D 
 3819      54454348 
 3819      2D4C5749 
 3820              	.LASF195:
 3821 07d8 6F6F7365 		.ascii	"ooseq\000"
 3821      7100
 3822              	.LASF108:
 3823 07de 6E5F6972 		.ascii	"n_irq\000"
 3823      7100
 3824              	.LASF87:
 3825 07e4 73697A65 		.ascii	"sizetype\000"
 3825      74797065 
 3825      00
 3826              	.LASF45:
 3827 07ed 705F7265 		.ascii	"p_realprio\000"
 3827      616C7072 
 3827      696F00
 3828              	.LASF211:
 3829 07f8 434C4F53 		.ascii	"CLOSED\000"
 3829      454400
 3830              	.LASF142:
 3831 07ff 7533325F 		.ascii	"u32_t\000"
 3831      7400
 3832              	.LASF7:
 3833 0805 73686F72 		.ascii	"short int\000"
 3833      7420696E 
 3833      7400
 3834              	.LASF132:
 3835 080f 6D625F77 		.ascii	"mb_wrptr\000"
 3835      72707472 
 3835      00
 3836              	.LASF62:
 3837 0818 725F6375 		.ascii	"r_current\000"
 3837      7272656E 
 3837      7400
 3838              	.LASF43:
 3839 0822 705F6570 		.ascii	"p_epending\000"
 3839      656E6469 
 3839      6E6700
 3840              	.LASF124:
 3841 082d 6D5F7175 		.ascii	"m_queue\000"
 3841      65756500 
 3842              	.LASF11:
 3843 0835 6C6F6E67 		.ascii	"long int\000"
 3843      20696E74 
 3843      00
 3844              	.LASF91:
ARM GAS  C:\Users\Luis\AppData\Local\Temp\ccEHI8EP.s 			page 75


 3845 083e 706F7274 		.ascii	"port_intctx\000"
 3845      5F696E74 
 3845      63747800 
 3846              	.LASF265:
 3847 084a 49544D5F 		.ascii	"ITM_RxBuffer\000"
 3847      52784275 
 3847      66666572 
 3847      00
 3848              	.LASF193:
 3849 0857 756E7365 		.ascii	"unsent\000"
 3849      6E7400
 3850              	.LASF172:
 3851 085e 7263765F 		.ascii	"rcv_wnd\000"
 3851      776E6400 
 3852              	.LASF176:
 3853 0866 72747465 		.ascii	"rttest\000"
 3853      737400
 3854              	.LASF146:
 3855 086d 7379735F 		.ascii	"sys_timeo\000"
 3855      74696D65 
 3855      6F00
 3856              	.LASF81:
 3857 0877 63685F73 		.ascii	"ch_system\000"
 3857      79737465 
 3857      6D00
 3858              	.LASF110:
 3859 0881 6D5F6372 		.ascii	"m_crit_thd\000"
 3859      69745F74 
 3859      686400
 3860              	.LASF242:
 3861 088c 4D454D50 		.ascii	"MEMP_SYS_TIMEOUT\000"
 3861      5F535953 
 3861      5F54494D 
 3861      454F5554 
 3861      00
 3862              	.LASF170:
 3863 089d 6C617374 		.ascii	"last_timer\000"
 3863      5F74696D 
 3863      657200
 3864              	.LASF232:
 3865 08a8 4D454D50 		.ascii	"MEMP_UDP_PCB\000"
 3865      5F554450 
 3865      5F504342 
 3865      00
 3866              	.LASF159:
 3867 08b5 6C6F6361 		.ascii	"local_ip\000"
 3867      6C5F6970 
 3867      00
 3868              	.LASF15:
 3869 08be 75696E74 		.ascii	"uint64_t\000"
 3869      36345F74 
 3869      00
 3870              	.LASF32:
 3871 08c7 705F6374 		.ascii	"p_ctx\000"
 3871      7800
 3872              	.LASF260:
 3873 08cd 6D626F78 		.ascii	"mbox\000"
ARM GAS  C:\Users\Luis\AppData\Local\Temp\ccEHI8EP.s 			page 76


 3873      00
 3874              	.LASF82:
 3875 08d2 726C6973 		.ascii	"rlist\000"
 3875      7400
 3876              	.LASF192:
 3877 08d8 756E7365 		.ascii	"unsent_oversize\000"
 3877      6E745F6F 
 3877      76657273 
 3877      697A6500 
 3878              	.LASF213:
 3879 08e8 53594E5F 		.ascii	"SYN_SENT\000"
 3879      53454E54 
 3879      00
 3880              	.LASF249:
 3881 08f1 69705F72 		.ascii	"ip_reass_timer\000"
 3881      65617373 
 3881      5F74696D 
 3881      657200
 3882              	.LASF183:
 3883 0900 736E645F 		.ascii	"snd_nxt\000"
 3883      6E787400 
 3884              	.LASF215:
 3885 0908 45535441 		.ascii	"ESTABLISHED\000"
 3885      424C4953 
 3885      48454400 
 3886              	.LASF262:
 3887 0914 746D7074 		.ascii	"tmptimeout\000"
 3887      696D656F 
 3887      757400
 3888              	.LASF188:
 3889 091f 736E645F 		.ascii	"snd_wnd_max\000"
 3889      776E645F 
 3889      6D617800 
 3890              	.LASF237:
 3891 092b 4D454D50 		.ascii	"MEMP_FRAG_PBUF\000"
 3891      5F465241 
 3891      475F5042 
 3891      554600
 3892              	.LASF182:
 3893 093a 73737468 		.ascii	"ssthresh\000"
 3893      72657368 
 3893      00
 3894              	.LASF190:
 3895 0943 736E645F 		.ascii	"snd_buf\000"
 3895      62756600 
 3896              	.LASF231:
 3897 094b 4D454D50 		.ascii	"MEMP_RAW_PCB\000"
 3897      5F524157 
 3897      5F504342 
 3897      00
 3898              	.LASF228:
 3899 0958 5F686472 		.ascii	"_hdrlen_rsvd_flags\000"
 3899      6C656E5F 
 3899      72737664 
 3899      5F666C61 
 3899      677300
 3900              	.LASF30:
ARM GAS  C:\Users\Luis\AppData\Local\Temp\ccEHI8EP.s 			page 77


 3901 096b 705F7072 		.ascii	"p_prev\000"
 3901      657600
 3902              	.LASF144:
 3903 0972 7379735F 		.ascii	"sys_mbox_t\000"
 3903      6D626F78 
 3903      5F7400
 3904              	.LASF21:
 3905 097d 74726566 		.ascii	"trefs_t\000"
 3905      735F7400 
 3906              	.LASF13:
 3907 0985 6C6F6E67 		.ascii	"long unsigned int\000"
 3907      20756E73 
 3907      69676E65 
 3907      6420696E 
 3907      7400
 3908              	.LASF55:
 3909 0997 72656164 		.ascii	"ready_list_t\000"
 3909      795F6C69 
 3909      73745F74 
 3909      00
 3910              	.LASF223:
 3911 09a4 74637068 		.ascii	"tcphdr\000"
 3911      647200
 3912              	.LASF141:
 3913 09ab 7331365F 		.ascii	"s16_t\000"
 3913      7400
 3914              	.LASF10:
 3915 09b1 696E7433 		.ascii	"int32_t\000"
 3915      325F7400 
 3916              	.LASF204:
 3917 09b9 70657273 		.ascii	"persist_backoff\000"
 3917      6973745F 
 3917      6261636B 
 3917      6F666600 
 3918              	.LASF196:
 3919 09c9 72656675 		.ascii	"refused_data\000"
 3919      7365645F 
 3919      64617461 
 3919      00
 3920              	.LASF79:
 3921 09d6 74726163 		.ascii	"trace_buffer\000"
 3921      655F6275 
 3921      66666572 
 3921      00
 3922              	.LASF117:
 3923 09e3 77747365 		.ascii	"wtsemp\000"
 3923      6D7000
 3924              	.LASF96:
 3925 09ea 63685F73 		.ascii	"ch_swc_event_t\000"
 3925      77635F65 
 3925      76656E74 
 3925      5F7400
 3926              	.LASF129:
 3927 09f9 6D757465 		.ascii	"mutex_t\000"
 3927      785F7400 
 3928              	.LASF224:
 3929 0a01 7463705F 		.ascii	"tcp_hdr\000"
ARM GAS  C:\Users\Luis\AppData\Local\Temp\ccEHI8EP.s 			page 78


 3929      68647200 
 3930              	.LASF70:
 3931 0a09 76745F70 		.ascii	"vt_par\000"
 3931      617200
 3932              	.LASF103:
 3933 0a10 62657374 		.ascii	"best\000"
 3933      00
 3934              	.LASF5:
 3935 0a15 756E7369 		.ascii	"unsigned char\000"
 3935      676E6564 
 3935      20636861 
 3935      7200
 3936              	.LASF216:
 3937 0a23 46494E5F 		.ascii	"FIN_WAIT_1\000"
 3937      57414954 
 3937      5F3100
 3938              	.LASF217:
 3939 0a2e 46494E5F 		.ascii	"FIN_WAIT_2\000"
 3939      57414954 
 3939      5F3200
 3940              	.LASF71:
 3941 0a39 76697274 		.ascii	"virtual_timers_list_t\000"
 3941      75616C5F 
 3941      74696D65 
 3941      72735F6C 
 3941      6973745F 
 3942              	.LASF39:
 3943 0a4f 705F7265 		.ascii	"p_refs\000"
 3943      667300
 3944              	.LASF235:
 3945 0a56 4D454D50 		.ascii	"MEMP_TCP_SEG\000"
 3945      5F544350 
 3945      5F534547 
 3945      00
 3946              	.LASF149:
 3947 0a63 70627566 		.ascii	"pbuf\000"
 3947      00
 3948              	.LASF202:
 3949 0a68 6B656570 		.ascii	"keep_idle\000"
 3949      5F69646C 
 3949      6500
 3950              	.LASF162:
 3951 0a72 63616C6C 		.ascii	"callback_arg\000"
 3951      6261636B 
 3951      5F617267 
 3951      00
 3952              	.LASF212:
 3953 0a7f 4C495354 		.ascii	"LISTEN\000"
 3953      454E00
 3954              	.LASF89:
 3955 0a86 73746B61 		.ascii	"stkalign_t\000"
 3955      6C69676E 
 3955      5F7400
 3956              	.LASF155:
 3957 0a91 61646472 		.ascii	"addr\000"
 3957      00
 3958              	.LASF252:
ARM GAS  C:\Users\Luis\AppData\Local\Temp\ccEHI8EP.s 			page 79


 3959 0a96 7379735F 		.ascii	"sys_timeouts_init\000"
 3959      74696D65 
 3959      6F757473 
 3959      5F696E69 
 3959      7400
 3960              	.LASF164:
 3961 0aa8 73746174 		.ascii	"state\000"
 3961      6500
 3962              	.LASF151:
 3963 0aae 746F745F 		.ascii	"tot_len\000"
 3963      6C656E00 
 3964              	.LASF66:
 3965 0ab6 76745F6E 		.ascii	"vt_next\000"
 3965      65787400 
 3966              	.LASF264:
 3967 0abe 74637069 		.ascii	"tcpip_tcp_timer_active\000"
 3967      705F7463 
 3967      705F7469 
 3967      6D65725F 
 3967      61637469 
 3968              	.LASF263:
 3969 0ad5 6E657874 		.ascii	"next_timeout\000"
 3969      5F74696D 
 3969      656F7574 
 3969      00
 3970              	.LASF191:
 3971 0ae2 736E645F 		.ascii	"snd_queuelen\000"
 3971      71756575 
 3971      656C656E 
 3971      00
 3972              	.LASF80:
 3973 0aef 63685F73 		.ascii	"ch_system_t\000"
 3973      79737465 
 3973      6D5F7400 
 3974              	.LASF116:
 3975 0afb 77747472 		.ascii	"wttrp\000"
 3975      7000
 3976              	.LASF198:
 3977 0b01 72656376 		.ascii	"recv\000"
 3977      00
 3978              	.LASF100:
 3979 0b06 63685F74 		.ascii	"ch_trace_buffer_t\000"
 3979      72616365 
 3979      5F627566 
 3979      6665725F 
 3979      7400
 3980              	.LASF126:
 3981 0b18 6D5F6E65 		.ascii	"m_next\000"
 3981      787400
 3982              	.LASF3:
 3983 0b1f 7369676E 		.ascii	"signed char\000"
 3983      65642063 
 3983      68617200 
 3984              	.LASF158:
 3985 0b2b 7463705F 		.ascii	"tcp_pcb\000"
 3985      70636200 
 3986              	.LASF9:
ARM GAS  C:\Users\Luis\AppData\Local\Temp\ccEHI8EP.s 			page 80


 3987 0b33 73686F72 		.ascii	"short unsigned int\000"
 3987      7420756E 
 3987      7369676E 
 3987      65642069 
 3987      6E7400
 3988              	.LASF59:
 3989 0b46 725F6374 		.ascii	"r_ctx\000"
 3989      7800
 3990              	.LASF48:
 3991 0b4c 746C7350 		.ascii	"tlsPtr\000"
 3991      747200
 3992              	.LASF41:
 3993 0b53 705F6D73 		.ascii	"p_msgqueue\000"
 3993      67717565 
 3993      756500
 3994              	.LASF203:
 3995 0b5e 70657273 		.ascii	"persist_cnt\000"
 3995      6973745F 
 3995      636E7400 
 3996              	.LASF160:
 3997 0b6a 72656D6F 		.ascii	"remote_ip\000"
 3997      74655F69 
 3997      7000
 3998              	.LASF69:
 3999 0b74 76745F66 		.ascii	"vt_func\000"
 3999      756E6300 
 4000              	.LASF267:
 4001 0b7c 7463705F 		.ascii	"tcp_tw_pcbs\000"
 4001      74775F70 
 4001      63627300 
 4002              	.LASF67:
 4003 0b88 76745F70 		.ascii	"vt_prev\000"
 4003      72657600 
 4004              	.LASF156:
 4005 0b90 69705F61 		.ascii	"ip_addr_t\000"
 4005      6464725F 
 4005      7400
 4006              	.LASF266:
 4007 0b9a 7463705F 		.ascii	"tcp_active_pcbs\000"
 4007      61637469 
 4007      76655F70 
 4007      63627300 
 4008              	.LASF178:
 4009 0baa 6E727478 		.ascii	"nrtx\000"
 4009      00
 4010              	.LASF253:
 4011 0baf 6D736563 		.ascii	"msecs\000"
 4011      7300
 4012              	.LASF225:
 4013 0bb5 64657374 		.ascii	"dest\000"
 4013      00
 4014              	.LASF114:
 4015 0bba 65786974 		.ascii	"exitcode\000"
 4015      636F6465 
 4015      00
 4016              	.LASF214:
 4017 0bc3 53594E5F 		.ascii	"SYN_RCVD\000"
ARM GAS  C:\Users\Luis\AppData\Local\Temp\ccEHI8EP.s 			page 81


 4017      52435644 
 4017      00
 4018              	.LASF154:
 4019 0bcc 69705F61 		.ascii	"ip_addr\000"
 4019      64647200 
 4020              	.LASF247:
 4021 0bd4 74637069 		.ascii	"tcpip_tcp_timer\000"
 4021      705F7463 
 4021      705F7469 
 4021      6D657200 
 4022              		.ident	"GCC: (GNU Tools for ARM Embedded Processors) 4.8.3 20131129 (release) [ARM/embedded-4_8-br
ARM GAS  C:\Users\Luis\AppData\Local\Temp\ccEHI8EP.s 			page 82


DEFINED SYMBOLS
                            *ABS*:00000000 timers.c
C:\Users\Luis\AppData\Local\Temp\ccEHI8EP.s:19     .text.osalSysHalt:00000000 $t
C:\Users\Luis\AppData\Local\Temp\ccEHI8EP.s:24     .text.osalSysHalt:00000000 osalSysHalt
C:\Users\Luis\AppData\Local\Temp\ccEHI8EP.s:52     .bss.next_timeout:00000000 $d
C:\Users\Luis\AppData\Local\Temp\ccEHI8EP.s:55     .bss.next_timeout:00000000 next_timeout
C:\Users\Luis\AppData\Local\Temp\ccEHI8EP.s:58     .bss.tcpip_tcp_timer_active:00000000 $d
C:\Users\Luis\AppData\Local\Temp\ccEHI8EP.s:61     .bss.tcpip_tcp_timer_active:00000000 tcpip_tcp_timer_active
C:\Users\Luis\AppData\Local\Temp\ccEHI8EP.s:64     .text.tcpip_tcp_timer:00000000 $t
C:\Users\Luis\AppData\Local\Temp\ccEHI8EP.s:69     .text.tcpip_tcp_timer:00000000 tcpip_tcp_timer
C:\Users\Luis\AppData\Local\Temp\ccEHI8EP.s:312    .text.sys_timeout:00000000 sys_timeout
C:\Users\Luis\AppData\Local\Temp\ccEHI8EP.s:118    .text.tcpip_tcp_timer:00000034 $d
C:\Users\Luis\AppData\Local\Temp\ccEHI8EP.s:126    .text.tcp_timer_needed:00000000 $t
C:\Users\Luis\AppData\Local\Temp\ccEHI8EP.s:132    .text.tcp_timer_needed:00000000 tcp_timer_needed
C:\Users\Luis\AppData\Local\Temp\ccEHI8EP.s:174    .text.tcp_timer_needed:00000030 $d
C:\Users\Luis\AppData\Local\Temp\ccEHI8EP.s:182    .text.ip_reass_timer:00000000 $t
C:\Users\Luis\AppData\Local\Temp\ccEHI8EP.s:187    .text.ip_reass_timer:00000000 ip_reass_timer
C:\Users\Luis\AppData\Local\Temp\ccEHI8EP.s:217    .text.ip_reass_timer:00000020 $d
C:\Users\Luis\AppData\Local\Temp\ccEHI8EP.s:222    .text.arp_timer:00000000 $t
C:\Users\Luis\AppData\Local\Temp\ccEHI8EP.s:227    .text.arp_timer:00000000 arp_timer
C:\Users\Luis\AppData\Local\Temp\ccEHI8EP.s:257    .text.arp_timer:00000020 $d
C:\Users\Luis\AppData\Local\Temp\ccEHI8EP.s:262    .text.sys_timeouts_init:00000000 $t
C:\Users\Luis\AppData\Local\Temp\ccEHI8EP.s:268    .text.sys_timeouts_init:00000000 sys_timeouts_init
C:\Users\Luis\AppData\Local\Temp\ccEHI8EP.s:295    .text.sys_timeouts_init:00000020 $d
C:\Users\Luis\AppData\Local\Temp\ccEHI8EP.s:301    .rodata:00000000 $d
C:\Users\Luis\AppData\Local\Temp\ccEHI8EP.s:306    .text.sys_timeout:00000000 $t
C:\Users\Luis\AppData\Local\Temp\ccEHI8EP.s:479    .text.sys_timeout:000000e8 $d
C:\Users\Luis\AppData\Local\Temp\ccEHI8EP.s:485    .text.sys_untimeout:00000000 $t
C:\Users\Luis\AppData\Local\Temp\ccEHI8EP.s:491    .text.sys_untimeout:00000000 sys_untimeout
C:\Users\Luis\AppData\Local\Temp\ccEHI8EP.s:597    .text.sys_untimeout:00000088 $d
C:\Users\Luis\AppData\Local\Temp\ccEHI8EP.s:602    .text.sys_timeouts_mbox_fetch:00000000 $t
C:\Users\Luis\AppData\Local\Temp\ccEHI8EP.s:608    .text.sys_timeouts_mbox_fetch:00000000 sys_timeouts_mbox_fetch
C:\Users\Luis\AppData\Local\Temp\ccEHI8EP.s:729    .text.sys_timeouts_mbox_fetch:000000ac $d
                     .debug_frame:00000010 $d
C:\Users\Luis\AppData\Local\Temp\ccEHI8EP.s:125    .text.tcpip_tcp_timer:00000044 $t
C:\Users\Luis\AppData\Local\Temp\ccEHI8EP.s:221    .text.ip_reass_timer:00000024 $t
C:\Users\Luis\AppData\Local\Temp\ccEHI8EP.s:261    .text.arp_timer:00000024 $t
C:\Users\Luis\AppData\Local\Temp\ccEHI8EP.s:300    .text.sys_timeouts_init:00000028 $t
C:\Users\Luis\AppData\Local\Temp\ccEHI8EP.s:601    .text.sys_untimeout:0000008c $t

UNDEFINED SYMBOLS
chSysHalt
tcp_tmr
tcp_active_pcbs
tcp_tw_pcbs
ip_reass_tmr
etharp_tmr
memp_malloc
memp_free
sys_arch_mbox_fetch
