ARM GAS  C:\Users\Luis\AppData\Local\Temp\ccEHI8EP.s 			page 1


   1              		.syntax unified
   2              		.cpu cortex-m4
   3              		.fpu softvfp
   4              		.eabi_attribute 20, 1
   5              		.eabi_attribute 21, 1
   6              		.eabi_attribute 23, 3
   7              		.eabi_attribute 24, 1
   8              		.eabi_attribute 25, 1
   9              		.eabi_attribute 26, 1
  10              		.eabi_attribute 30, 6
  11              		.eabi_attribute 34, 1
  12              		.eabi_attribute 18, 4
  13              		.thumb
  14              		.file	"timers.c"
  15              		.text
  16              	.Ltext0:
  17              		.cfi_sections	.debug_frame
  18              		.section	.text.osalSysHalt,"ax",%progbits
  19              		.align	2
  20              		.p2align 4,,15
  21              		.thumb
  22              		.thumb_func
  23              		.type	osalSysHalt, %function
  24              	osalSysHalt:
  25              	.LFB230:
  26              		.file 1 "../../ChibiOS/os/hal/osal/rt/osal.h"
  27              		.loc 1 460 0
  28              		.cfi_startproc
  29              		@ args = 0, pretend = 0, frame = 8
  30              		@ frame_needed = 1, uses_anonymous_args = 0
  31 0000 80B5     		push	{r7, lr}
  32              		.cfi_def_cfa_offset 8
  33              		.cfi_offset 7, -8
  34              		.cfi_offset 14, -4
  35 0002 82B0     		sub	sp, sp, #8
  36              		.cfi_def_cfa_offset 16
  37 0004 00AF     		add	r7, sp, #0
  38              		.cfi_def_cfa_register 7
  39 0006 7860     		str	r0, [r7, #4]
  40              		.loc 1 462 0
  41 0008 7868     		ldr	r0, [r7, #4]
  42 000a FFF7FEFF 		bl	chSysHalt
  43              		.loc 1 463 0
  44 000e 0837     		adds	r7, r7, #8
  45 0010 BD46     		mov	sp, r7
  46              		@ sp needed
  47 0012 80BD     		pop	{r7, pc}
  48              		.cfi_endproc
  49              	.LFE230:
  50              		.size	osalSysHalt, .-osalSysHalt
  51 0014 AFF30080 		.section	.bss.next_timeout,"aw",%nobits
  51      AFF30080 
  51      AFF30080 
  52              		.align	2
  53              		.type	next_timeout, %object
  54              		.size	next_timeout, 4
  55              	next_timeout:
ARM GAS  C:\Users\Luis\AppData\Local\Temp\ccEHI8EP.s 			page 2


  56 0000 00000000 		.space	4
  57              		.section	.bss.tcpip_tcp_timer_active,"aw",%nobits
  58              		.align	2
  59              		.type	tcpip_tcp_timer_active, %object
  60              		.size	tcpip_tcp_timer_active, 4
  61              	tcpip_tcp_timer_active:
  62 0000 00000000 		.space	4
  63              		.section	.text.tcpip_tcp_timer,"ax",%progbits
  64              		.align	2
  65              		.p2align 4,,15
  66              		.thumb
  67              		.thumb_func
  68              		.type	tcpip_tcp_timer, %function
  69              	tcpip_tcp_timer:
  70              	.LFB260:
  71              		.file 2 "../../ChibiOS/ext/lwip/src/core/timers.c"
  72              		.loc 2 80 0
  73              		.cfi_startproc
  74              		@ args = 0, pretend = 0, frame = 8
  75              		@ frame_needed = 1, uses_anonymous_args = 0
  76 0000 80B5     		push	{r7, lr}
  77              		.cfi_def_cfa_offset 8
  78              		.cfi_offset 7, -8
  79              		.cfi_offset 14, -4
  80 0002 82B0     		sub	sp, sp, #8
  81              		.cfi_def_cfa_offset 16
  82 0004 00AF     		add	r7, sp, #0
  83              		.cfi_def_cfa_register 7
  84 0006 7860     		str	r0, [r7, #4]
  85              		.loc 2 84 0
  86 0008 FFF7FEFF 		bl	tcp_tmr
  87              		.loc 2 86 0
  88 000c 094B     		ldr	r3, .L6
  89 000e 1B68     		ldr	r3, [r3]
  90 0010 002B     		cmp	r3, #0
  91 0012 03D1     		bne	.L3
  92              		.loc 2 86 0 is_stmt 0 discriminator 1
  93 0014 084B     		ldr	r3, .L6+4
  94 0016 1B68     		ldr	r3, [r3]
  95 0018 002B     		cmp	r3, #0
  96 001a 05D0     		beq	.L4
  97              	.L3:
  98              		.loc 2 88 0 is_stmt 1
  99 001c FA20     		movs	r0, #250
 100 001e 0749     		ldr	r1, .L6+8
 101 0020 0022     		movs	r2, #0
 102 0022 FFF7FEFF 		bl	sys_timeout
 103 0026 02E0     		b	.L2
 104              	.L4:
 105              		.loc 2 91 0
 106 0028 054B     		ldr	r3, .L6+12
 107 002a 0022     		movs	r2, #0
 108 002c 1A60     		str	r2, [r3]
 109              	.L2:
 110              		.loc 2 93 0
 111 002e 0837     		adds	r7, r7, #8
 112 0030 BD46     		mov	sp, r7
ARM GAS  C:\Users\Luis\AppData\Local\Temp\ccEHI8EP.s 			page 3


 113              		@ sp needed
 114 0032 80BD     		pop	{r7, pc}
 115              	.L7:
 116              		.align	2
 117              	.L6:
 118 0034 00000000 		.word	tcp_active_pcbs
 119 0038 00000000 		.word	tcp_tw_pcbs
 120 003c 00000000 		.word	tcpip_tcp_timer
 121 0040 00000000 		.word	tcpip_tcp_timer_active
 122              		.cfi_endproc
 123              	.LFE260:
 124              		.size	tcpip_tcp_timer, .-tcpip_tcp_timer
 125 0044 AFF30080 		.section	.text.tcp_timer_needed,"ax",%progbits
 125      AFF30080 
 125      AFF30080 
 126              		.align	2
 127              		.p2align 4,,15
 128              		.global	tcp_timer_needed
 129              		.thumb
 130              		.thumb_func
 131              		.type	tcp_timer_needed, %function
 132              	tcp_timer_needed:
 133              	.LFB261:
 134              		.loc 2 102 0
 135              		.cfi_startproc
 136              		@ args = 0, pretend = 0, frame = 0
 137              		@ frame_needed = 1, uses_anonymous_args = 0
 138 0000 80B5     		push	{r7, lr}
 139              		.cfi_def_cfa_offset 8
 140              		.cfi_offset 7, -8
 141              		.cfi_offset 14, -4
 142 0002 00AF     		add	r7, sp, #0
 143              		.cfi_def_cfa_register 7
 144              		.loc 2 104 0
 145 0004 0A4B     		ldr	r3, .L11
 146 0006 1B68     		ldr	r3, [r3]
 147 0008 002B     		cmp	r3, #0
 148 000a 0FD1     		bne	.L8
 149              		.loc 2 104 0 is_stmt 0 discriminator 1
 150 000c 094B     		ldr	r3, .L11+4
 151 000e 1B68     		ldr	r3, [r3]
 152 0010 002B     		cmp	r3, #0
 153 0012 03D1     		bne	.L10
 154 0014 084B     		ldr	r3, .L11+8
 155 0016 1B68     		ldr	r3, [r3]
 156 0018 002B     		cmp	r3, #0
 157 001a 07D0     		beq	.L8
 158              	.L10:
 159              		.loc 2 106 0 is_stmt 1
 160 001c 044B     		ldr	r3, .L11
 161 001e 0122     		movs	r2, #1
 162 0020 1A60     		str	r2, [r3]
 163              		.loc 2 107 0
 164 0022 FA20     		movs	r0, #250
 165 0024 0549     		ldr	r1, .L11+12
 166 0026 0022     		movs	r2, #0
 167 0028 FFF7FEFF 		bl	sys_timeout
ARM GAS  C:\Users\Luis\AppData\Local\Temp\ccEHI8EP.s 			page 4


 168              	.L8:
 169              		.loc 2 109 0
 170 002c 80BD     		pop	{r7, pc}
 171              	.L12:
 172 002e 00BF     		.align	2
 173              	.L11:
 174 0030 00000000 		.word	tcpip_tcp_timer_active
 175 0034 00000000 		.word	tcp_active_pcbs
 176 0038 00000000 		.word	tcp_tw_pcbs
 177 003c 00000000 		.word	tcpip_tcp_timer
 178              		.cfi_endproc
 179              	.LFE261:
 180              		.size	tcp_timer_needed, .-tcp_timer_needed
 181              		.section	.text.ip_reass_timer,"ax",%progbits
 182              		.align	2
 183              		.p2align 4,,15
 184              		.thumb
 185              		.thumb_func
 186              		.type	ip_reass_timer, %function
 187              	ip_reass_timer:
 188              	.LFB262:
 189              		.loc 2 120 0
 190              		.cfi_startproc
 191              		@ args = 0, pretend = 0, frame = 8
 192              		@ frame_needed = 1, uses_anonymous_args = 0
 193 0000 80B5     		push	{r7, lr}
 194              		.cfi_def_cfa_offset 8
 195              		.cfi_offset 7, -8
 196              		.cfi_offset 14, -4
 197 0002 82B0     		sub	sp, sp, #8
 198              		.cfi_def_cfa_offset 16
 199 0004 00AF     		add	r7, sp, #0
 200              		.cfi_def_cfa_register 7
 201 0006 7860     		str	r0, [r7, #4]
 202              		.loc 2 123 0
 203 0008 FFF7FEFF 		bl	ip_reass_tmr
 204              		.loc 2 124 0
 205 000c 4FF47A70 		mov	r0, #1000
 206 0010 0349     		ldr	r1, .L14
 207 0012 0022     		movs	r2, #0
 208 0014 FFF7FEFF 		bl	sys_timeout
 209              		.loc 2 125 0
 210 0018 0837     		adds	r7, r7, #8
 211 001a BD46     		mov	sp, r7
 212              		@ sp needed
 213 001c 80BD     		pop	{r7, pc}
 214              	.L15:
 215 001e 00BF     		.align	2
 216              	.L14:
 217 0020 00000000 		.word	ip_reass_timer
 218              		.cfi_endproc
 219              	.LFE262:
 220              		.size	ip_reass_timer, .-ip_reass_timer
 221 0024 AFF30080 		.section	.text.arp_timer,"ax",%progbits
 221      AFF30080 
 221      AFF30080 
 222              		.align	2
ARM GAS  C:\Users\Luis\AppData\Local\Temp\ccEHI8EP.s 			page 5


 223              		.p2align 4,,15
 224              		.thumb
 225              		.thumb_func
 226              		.type	arp_timer, %function
 227              	arp_timer:
 228              	.LFB263:
 229              		.loc 2 136 0
 230              		.cfi_startproc
 231              		@ args = 0, pretend = 0, frame = 8
 232              		@ frame_needed = 1, uses_anonymous_args = 0
 233 0000 80B5     		push	{r7, lr}
 234              		.cfi_def_cfa_offset 8
 235              		.cfi_offset 7, -8
 236              		.cfi_offset 14, -4
 237 0002 82B0     		sub	sp, sp, #8
 238              		.cfi_def_cfa_offset 16
 239 0004 00AF     		add	r7, sp, #0
 240              		.cfi_def_cfa_register 7
 241 0006 7860     		str	r0, [r7, #4]
 242              		.loc 2 139 0
 243 0008 FFF7FEFF 		bl	etharp_tmr
 244              		.loc 2 140 0
 245 000c 41F28830 		movw	r0, #5000
 246 0010 0349     		ldr	r1, .L17
 247 0012 0022     		movs	r2, #0
 248 0014 FFF7FEFF 		bl	sys_timeout
 249              		.loc 2 141 0
 250 0018 0837     		adds	r7, r7, #8
 251 001a BD46     		mov	sp, r7
 252              		@ sp needed
 253 001c 80BD     		pop	{r7, pc}
 254              	.L18:
 255 001e 00BF     		.align	2
 256              	.L17:
 257 0020 00000000 		.word	arp_timer
 258              		.cfi_endproc
 259              	.LFE263:
 260              		.size	arp_timer, .-arp_timer
 261 0024 AFF30080 		.section	.text.sys_timeouts_init,"ax",%progbits
 261      AFF30080 
 261      AFF30080 
 262              		.align	2
 263              		.p2align 4,,15
 264              		.global	sys_timeouts_init
 265              		.thumb
 266              		.thumb_func
 267              		.type	sys_timeouts_init, %function
 268              	sys_timeouts_init:
 269              	.LFB264:
 270              		.loc 2 224 0
 271              		.cfi_startproc
 272              		@ args = 0, pretend = 0, frame = 0
 273              		@ frame_needed = 1, uses_anonymous_args = 0
 274 0000 80B5     		push	{r7, lr}
 275              		.cfi_def_cfa_offset 8
 276              		.cfi_offset 7, -8
 277              		.cfi_offset 14, -4
ARM GAS  C:\Users\Luis\AppData\Local\Temp\ccEHI8EP.s 			page 6


 278 0002 00AF     		add	r7, sp, #0
 279              		.cfi_def_cfa_register 7
 280              		.loc 2 226 0
 281 0004 4FF47A70 		mov	r0, #1000
 282 0008 0549     		ldr	r1, .L20
 283 000a 0022     		movs	r2, #0
 284 000c FFF7FEFF 		bl	sys_timeout
 285              		.loc 2 229 0
 286 0010 41F28830 		movw	r0, #5000
 287 0014 0349     		ldr	r1, .L20+4
 288 0016 0022     		movs	r2, #0
 289 0018 FFF7FEFF 		bl	sys_timeout
 290              		.loc 2 249 0
 291 001c 80BD     		pop	{r7, pc}
 292              	.L21:
 293 001e 00BF     		.align	2
 294              	.L20:
 295 0020 00000000 		.word	ip_reass_timer
 296 0024 00000000 		.word	arp_timer
 297              		.cfi_endproc
 298              	.LFE264:
 299              		.size	sys_timeouts_init, .-sys_timeouts_init
 300 0028 AFF30080 		.section	.rodata
 300      AFF30080 
 301              		.align	2
 302              	.LC0:
 303 0000 7379735F 		.ascii	"sys_timeout: timeout != NULL, pool MEMP_SYS_TIMEOUT"
 303      74696D65 
 303      6F75743A 
 303      2074696D 
 303      656F7574 
 304 0033 20697320 		.ascii	" is empty\000"
 304      656D7074 
 304      7900
 305 003d 000000   		.section	.text.sys_timeout,"ax",%progbits
 306              		.align	2
 307              		.p2align 4,,15
 308              		.global	sys_timeout
 309              		.thumb
 310              		.thumb_func
 311              		.type	sys_timeout, %function
 312              	sys_timeout:
 313              	.LFB265:
 314              		.loc 2 268 0
 315              		.cfi_startproc
 316              		@ args = 0, pretend = 0, frame = 24
 317              		@ frame_needed = 1, uses_anonymous_args = 0
 318 0000 80B5     		push	{r7, lr}
 319              		.cfi_def_cfa_offset 8
 320              		.cfi_offset 7, -8
 321              		.cfi_offset 14, -4
 322 0002 86B0     		sub	sp, sp, #24
 323              		.cfi_def_cfa_offset 32
 324 0004 00AF     		add	r7, sp, #0
 325              		.cfi_def_cfa_register 7
 326 0006 F860     		str	r0, [r7, #12]
 327 0008 B960     		str	r1, [r7, #8]
ARM GAS  C:\Users\Luis\AppData\Local\Temp\ccEHI8EP.s 			page 7


 328 000a 7A60     		str	r2, [r7, #4]
 329              		.loc 2 271 0
 330 000c 0B20     		movs	r0, #11
 331 000e FFF7FEFF 		bl	memp_malloc
 332 0012 3861     		str	r0, [r7, #16]
 333              		.loc 2 272 0
 334 0014 3B69     		ldr	r3, [r7, #16]
 335 0016 002B     		cmp	r3, #0
 336 0018 07D1     		bne	.L23
 337              		.loc 2 273 0
 338 001a 3B69     		ldr	r3, [r7, #16]
 339 001c 002B     		cmp	r3, #0
 340 001e 03D1     		bne	.L24
 341              		.loc 2 273 0 is_stmt 0 discriminator 1
 342 0020 3148     		ldr	r0, .L33
 343 0022 FFF7FEFF 		bl	osalSysHalt
 344              		.loc 2 274 0 is_stmt 1 discriminator 1
 345 0026 5BE0     		b	.L22
 346              	.L24:
 347              		.loc 2 274 0 is_stmt 0
 348 0028 5AE0     		b	.L22
 349              	.L23:
 350              		.loc 2 276 0 is_stmt 1
 351 002a 3B69     		ldr	r3, [r7, #16]
 352 002c 0022     		movs	r2, #0
 353 002e 1A60     		str	r2, [r3]
 354              		.loc 2 277 0
 355 0030 3B69     		ldr	r3, [r7, #16]
 356 0032 BA68     		ldr	r2, [r7, #8]
 357 0034 9A60     		str	r2, [r3, #8]
 358              		.loc 2 278 0
 359 0036 3B69     		ldr	r3, [r7, #16]
 360 0038 7A68     		ldr	r2, [r7, #4]
 361 003a DA60     		str	r2, [r3, #12]
 362              		.loc 2 279 0
 363 003c 3B69     		ldr	r3, [r7, #16]
 364 003e FA68     		ldr	r2, [r7, #12]
 365 0040 5A60     		str	r2, [r3, #4]
 366              		.loc 2 286 0
 367 0042 2A4B     		ldr	r3, .L33+4
 368 0044 1B68     		ldr	r3, [r3]
 369 0046 002B     		cmp	r3, #0
 370 0048 03D1     		bne	.L26
 371              		.loc 2 287 0
 372 004a 284B     		ldr	r3, .L33+4
 373 004c 3A69     		ldr	r2, [r7, #16]
 374 004e 1A60     		str	r2, [r3]
 375              		.loc 2 288 0
 376 0050 46E0     		b	.L22
 377              	.L26:
 378              		.loc 2 291 0
 379 0052 264B     		ldr	r3, .L33+4
 380 0054 1B68     		ldr	r3, [r3]
 381 0056 5A68     		ldr	r2, [r3, #4]
 382 0058 FB68     		ldr	r3, [r7, #12]
 383 005a 9A42     		cmp	r2, r3
 384 005c 0FD9     		bls	.L27
ARM GAS  C:\Users\Luis\AppData\Local\Temp\ccEHI8EP.s 			page 8


 385              		.loc 2 292 0
 386 005e 234B     		ldr	r3, .L33+4
 387 0060 1B68     		ldr	r3, [r3]
 388 0062 224A     		ldr	r2, .L33+4
 389 0064 1268     		ldr	r2, [r2]
 390 0066 5168     		ldr	r1, [r2, #4]
 391 0068 FA68     		ldr	r2, [r7, #12]
 392 006a 8A1A     		subs	r2, r1, r2
 393 006c 5A60     		str	r2, [r3, #4]
 394              		.loc 2 293 0
 395 006e 1F4B     		ldr	r3, .L33+4
 396 0070 1A68     		ldr	r2, [r3]
 397 0072 3B69     		ldr	r3, [r7, #16]
 398 0074 1A60     		str	r2, [r3]
 399              		.loc 2 294 0
 400 0076 1D4B     		ldr	r3, .L33+4
 401 0078 3A69     		ldr	r2, [r7, #16]
 402 007a 1A60     		str	r2, [r3]
 403 007c 30E0     		b	.L22
 404              	.L27:
 405              		.loc 2 296 0
 406 007e 1B4B     		ldr	r3, .L33+4
 407 0080 1B68     		ldr	r3, [r3]
 408 0082 7B61     		str	r3, [r7, #20]
 409 0084 29E0     		b	.L28
 410              	.L32:
 411              		.loc 2 297 0
 412 0086 3B69     		ldr	r3, [r7, #16]
 413 0088 5A68     		ldr	r2, [r3, #4]
 414 008a 7B69     		ldr	r3, [r7, #20]
 415 008c 5B68     		ldr	r3, [r3, #4]
 416 008e D21A     		subs	r2, r2, r3
 417 0090 3B69     		ldr	r3, [r7, #16]
 418 0092 5A60     		str	r2, [r3, #4]
 419              		.loc 2 298 0
 420 0094 7B69     		ldr	r3, [r7, #20]
 421 0096 1B68     		ldr	r3, [r3]
 422 0098 002B     		cmp	r3, #0
 423 009a 06D0     		beq	.L29
 424              		.loc 2 298 0 is_stmt 0 discriminator 1
 425 009c 7B69     		ldr	r3, [r7, #20]
 426 009e 1B68     		ldr	r3, [r3]
 427 00a0 5A68     		ldr	r2, [r3, #4]
 428 00a2 3B69     		ldr	r3, [r7, #16]
 429 00a4 5B68     		ldr	r3, [r3, #4]
 430 00a6 9A42     		cmp	r2, r3
 431 00a8 14D9     		bls	.L30
 432              	.L29:
 433              		.loc 2 299 0 is_stmt 1
 434 00aa 7B69     		ldr	r3, [r7, #20]
 435 00ac 1B68     		ldr	r3, [r3]
 436 00ae 002B     		cmp	r3, #0
 437 00b0 08D0     		beq	.L31
 438              		.loc 2 300 0
 439 00b2 7B69     		ldr	r3, [r7, #20]
 440 00b4 1B68     		ldr	r3, [r3]
 441 00b6 7A69     		ldr	r2, [r7, #20]
ARM GAS  C:\Users\Luis\AppData\Local\Temp\ccEHI8EP.s 			page 9


 442 00b8 1268     		ldr	r2, [r2]
 443 00ba 5168     		ldr	r1, [r2, #4]
 444 00bc 3A69     		ldr	r2, [r7, #16]
 445 00be 5268     		ldr	r2, [r2, #4]
 446 00c0 8A1A     		subs	r2, r1, r2
 447 00c2 5A60     		str	r2, [r3, #4]
 448              	.L31:
 449              		.loc 2 302 0
 450 00c4 7B69     		ldr	r3, [r7, #20]
 451 00c6 1A68     		ldr	r2, [r3]
 452 00c8 3B69     		ldr	r3, [r7, #16]
 453 00ca 1A60     		str	r2, [r3]
 454              		.loc 2 303 0
 455 00cc 7B69     		ldr	r3, [r7, #20]
 456 00ce 3A69     		ldr	r2, [r7, #16]
 457 00d0 1A60     		str	r2, [r3]
 458              		.loc 2 304 0
 459 00d2 05E0     		b	.L22
 460              	.L30:
 461              		.loc 2 296 0
 462 00d4 7B69     		ldr	r3, [r7, #20]
 463 00d6 1B68     		ldr	r3, [r3]
 464 00d8 7B61     		str	r3, [r7, #20]
 465              	.L28:
 466              		.loc 2 296 0 is_stmt 0 discriminator 1
 467 00da 7B69     		ldr	r3, [r7, #20]
 468 00dc 002B     		cmp	r3, #0
 469 00de D2D1     		bne	.L32
 470              	.L22:
 471              		.loc 2 308 0 is_stmt 1
 472 00e0 1837     		adds	r7, r7, #24
 473 00e2 BD46     		mov	sp, r7
 474              		@ sp needed
 475 00e4 80BD     		pop	{r7, pc}
 476              	.L34:
 477 00e6 00BF     		.align	2
 478              	.L33:
 479 00e8 00000000 		.word	.LC0
 480 00ec 00000000 		.word	next_timeout
 481              		.cfi_endproc
 482              	.LFE265:
 483              		.size	sys_timeout, .-sys_timeout
 484              		.section	.text.sys_untimeout,"ax",%progbits
 485              		.align	2
 486              		.p2align 4,,15
 487              		.global	sys_untimeout
 488              		.thumb
 489              		.thumb_func
 490              		.type	sys_untimeout, %function
 491              	sys_untimeout:
 492              	.LFB266:
 493              		.loc 2 322 0
 494              		.cfi_startproc
 495              		@ args = 0, pretend = 0, frame = 16
 496              		@ frame_needed = 1, uses_anonymous_args = 0
 497 0000 80B5     		push	{r7, lr}
 498              		.cfi_def_cfa_offset 8
ARM GAS  C:\Users\Luis\AppData\Local\Temp\ccEHI8EP.s 			page 10


 499              		.cfi_offset 7, -8
 500              		.cfi_offset 14, -4
 501 0002 84B0     		sub	sp, sp, #16
 502              		.cfi_def_cfa_offset 24
 503 0004 00AF     		add	r7, sp, #0
 504              		.cfi_def_cfa_register 7
 505 0006 7860     		str	r0, [r7, #4]
 506 0008 3960     		str	r1, [r7]
 507              		.loc 2 325 0
 508 000a 1F4B     		ldr	r3, .L44
 509 000c 1B68     		ldr	r3, [r3]
 510 000e 002B     		cmp	r3, #0
 511 0010 00D1     		bne	.L36
 512              		.loc 2 326 0
 513 0012 36E0     		b	.L35
 514              	.L36:
 515              		.loc 2 329 0
 516 0014 1C4B     		ldr	r3, .L44
 517 0016 1B68     		ldr	r3, [r3]
 518 0018 BB60     		str	r3, [r7, #8]
 519 001a 0023     		movs	r3, #0
 520 001c FB60     		str	r3, [r7, #12]
 521 001e 2CE0     		b	.L38
 522              	.L43:
 523              		.loc 2 330 0
 524 0020 BB68     		ldr	r3, [r7, #8]
 525 0022 9A68     		ldr	r2, [r3, #8]
 526 0024 7B68     		ldr	r3, [r7, #4]
 527 0026 9A42     		cmp	r2, r3
 528 0028 22D1     		bne	.L39
 529              		.loc 2 330 0 is_stmt 0 discriminator 1
 530 002a BB68     		ldr	r3, [r7, #8]
 531 002c DA68     		ldr	r2, [r3, #12]
 532 002e 3B68     		ldr	r3, [r7]
 533 0030 9A42     		cmp	r2, r3
 534 0032 1DD1     		bne	.L39
 535              		.loc 2 333 0 is_stmt 1
 536 0034 FB68     		ldr	r3, [r7, #12]
 537 0036 002B     		cmp	r3, #0
 538 0038 04D1     		bne	.L40
 539              		.loc 2 334 0
 540 003a BB68     		ldr	r3, [r7, #8]
 541 003c 1A68     		ldr	r2, [r3]
 542 003e 124B     		ldr	r3, .L44
 543 0040 1A60     		str	r2, [r3]
 544 0042 03E0     		b	.L41
 545              	.L40:
 546              		.loc 2 336 0
 547 0044 BB68     		ldr	r3, [r7, #8]
 548 0046 1A68     		ldr	r2, [r3]
 549 0048 FB68     		ldr	r3, [r7, #12]
 550 004a 1A60     		str	r2, [r3]
 551              	.L41:
 552              		.loc 2 339 0
 553 004c BB68     		ldr	r3, [r7, #8]
 554 004e 1B68     		ldr	r3, [r3]
 555 0050 002B     		cmp	r3, #0
ARM GAS  C:\Users\Luis\AppData\Local\Temp\ccEHI8EP.s 			page 11


 556 0052 08D0     		beq	.L42
 557              		.loc 2 340 0
 558 0054 BB68     		ldr	r3, [r7, #8]
 559 0056 1B68     		ldr	r3, [r3]
 560 0058 BA68     		ldr	r2, [r7, #8]
 561 005a 1268     		ldr	r2, [r2]
 562 005c 5168     		ldr	r1, [r2, #4]
 563 005e BA68     		ldr	r2, [r7, #8]
 564 0060 5268     		ldr	r2, [r2, #4]
 565 0062 0A44     		add	r2, r2, r1
 566 0064 5A60     		str	r2, [r3, #4]
 567              	.L42:
 568              		.loc 2 342 0
 569 0066 0B20     		movs	r0, #11
 570 0068 B968     		ldr	r1, [r7, #8]
 571 006a FFF7FEFF 		bl	memp_free
 572              		.loc 2 343 0
 573 006e 08E0     		b	.L35
 574              	.L39:
 575              		.loc 2 329 0
 576 0070 BB68     		ldr	r3, [r7, #8]
 577 0072 FB60     		str	r3, [r7, #12]
 578 0074 BB68     		ldr	r3, [r7, #8]
 579 0076 1B68     		ldr	r3, [r3]
 580 0078 BB60     		str	r3, [r7, #8]
 581              	.L38:
 582              		.loc 2 329 0 is_stmt 0 discriminator 1
 583 007a BB68     		ldr	r3, [r7, #8]
 584 007c 002B     		cmp	r3, #0
 585 007e CFD1     		bne	.L43
 586              		.loc 2 346 0 is_stmt 1
 587 0080 00BF     		nop
 588              	.L35:
 589              		.loc 2 347 0
 590 0082 1037     		adds	r7, r7, #16
 591 0084 BD46     		mov	sp, r7
 592              		@ sp needed
 593 0086 80BD     		pop	{r7, pc}
 594              	.L45:
 595              		.align	2
 596              	.L44:
 597 0088 00000000 		.word	next_timeout
 598              		.cfi_endproc
 599              	.LFE266:
 600              		.size	sys_untimeout, .-sys_untimeout
 601 008c AFF30080 		.section	.text.sys_timeouts_mbox_fetch,"ax",%progbits
 602              		.align	2
 603              		.p2align 4,,15
 604              		.global	sys_timeouts_mbox_fetch
 605              		.thumb
 606              		.thumb_func
 607              		.type	sys_timeouts_mbox_fetch, %function
 608              	sys_timeouts_mbox_fetch:
 609              	.LFB267:
 610              		.loc 2 424 0
 611              		.cfi_startproc
 612              		@ args = 0, pretend = 0, frame = 24
ARM GAS  C:\Users\Luis\AppData\Local\Temp\ccEHI8EP.s 			page 12


 613              		@ frame_needed = 1, uses_anonymous_args = 0
 614 0000 80B5     		push	{r7, lr}
 615              		.cfi_def_cfa_offset 8
 616              		.cfi_offset 7, -8
 617              		.cfi_offset 14, -4
 618 0002 86B0     		sub	sp, sp, #24
 619              		.cfi_def_cfa_offset 32
 620 0004 00AF     		add	r7, sp, #0
 621              		.cfi_def_cfa_register 7
 622 0006 7860     		str	r0, [r7, #4]
 623 0008 3960     		str	r1, [r7]
 624              	.L47:
 625              		.loc 2 431 0
 626 000a 284B     		ldr	r3, .L55
 627 000c 1B68     		ldr	r3, [r3]
 628 000e 002B     		cmp	r3, #0
 629 0010 06D1     		bne	.L48
 630              		.loc 2 432 0
 631 0012 7868     		ldr	r0, [r7, #4]
 632 0014 3968     		ldr	r1, [r7]
 633 0016 0022     		movs	r2, #0
 634 0018 FFF7FEFF 		bl	sys_arch_mbox_fetch
 635 001c 7861     		str	r0, [r7, #20]
 636 001e 41E0     		b	.L46
 637              	.L48:
 638              		.loc 2 434 0
 639 0020 224B     		ldr	r3, .L55
 640 0022 1B68     		ldr	r3, [r3]
 641 0024 5B68     		ldr	r3, [r3, #4]
 642 0026 002B     		cmp	r3, #0
 643 0028 09D0     		beq	.L50
 644              		.loc 2 435 0
 645 002a 204B     		ldr	r3, .L55
 646 002c 1B68     		ldr	r3, [r3]
 647 002e 5B68     		ldr	r3, [r3, #4]
 648 0030 7868     		ldr	r0, [r7, #4]
 649 0032 3968     		ldr	r1, [r7]
 650 0034 1A46     		mov	r2, r3
 651 0036 FFF7FEFF 		bl	sys_arch_mbox_fetch
 652 003a 7861     		str	r0, [r7, #20]
 653 003c 02E0     		b	.L51
 654              	.L50:
 655              		.loc 2 437 0
 656 003e 4FF0FF33 		mov	r3, #-1
 657 0042 7B61     		str	r3, [r7, #20]
 658              	.L51:
 659              		.loc 2 440 0
 660 0044 7B69     		ldr	r3, [r7, #20]
 661 0046 B3F1FF3F 		cmp	r3, #-1
 662 004a 18D1     		bne	.L52
 663              		.loc 2 444 0
 664 004c 174B     		ldr	r3, .L55
 665 004e 1B68     		ldr	r3, [r3]
 666 0050 3B61     		str	r3, [r7, #16]
 667              		.loc 2 445 0
 668 0052 3B69     		ldr	r3, [r7, #16]
 669 0054 1A68     		ldr	r2, [r3]
ARM GAS  C:\Users\Luis\AppData\Local\Temp\ccEHI8EP.s 			page 13


 670 0056 154B     		ldr	r3, .L55
 671 0058 1A60     		str	r2, [r3]
 672              		.loc 2 446 0
 673 005a 3B69     		ldr	r3, [r7, #16]
 674 005c 9B68     		ldr	r3, [r3, #8]
 675 005e FB60     		str	r3, [r7, #12]
 676              		.loc 2 447 0
 677 0060 3B69     		ldr	r3, [r7, #16]
 678 0062 DB68     		ldr	r3, [r3, #12]
 679 0064 BB60     		str	r3, [r7, #8]
 680              		.loc 2 454 0
 681 0066 0B20     		movs	r0, #11
 682 0068 3969     		ldr	r1, [r7, #16]
 683 006a FFF7FEFF 		bl	memp_free
 684              		.loc 2 455 0
 685 006e FB68     		ldr	r3, [r7, #12]
 686 0070 002B     		cmp	r3, #0
 687 0072 03D0     		beq	.L53
 688              		.loc 2 459 0
 689 0074 FB68     		ldr	r3, [r7, #12]
 690 0076 B868     		ldr	r0, [r7, #8]
 691 0078 9847     		blx	r3
 692              		.loc 2 465 0
 693 007a C6E7     		b	.L47
 694              	.L53:
 695 007c C5E7     		b	.L47
 696              	.L52:
 697              		.loc 2 470 0
 698 007e 0B4B     		ldr	r3, .L55
 699 0080 1B68     		ldr	r3, [r3]
 700 0082 5A68     		ldr	r2, [r3, #4]
 701 0084 7B69     		ldr	r3, [r7, #20]
 702 0086 9A42     		cmp	r2, r3
 703 0088 08D9     		bls	.L54
 704              		.loc 2 471 0
 705 008a 084B     		ldr	r3, .L55
 706 008c 1B68     		ldr	r3, [r3]
 707 008e 074A     		ldr	r2, .L55
 708 0090 1268     		ldr	r2, [r2]
 709 0092 5168     		ldr	r1, [r2, #4]
 710 0094 7A69     		ldr	r2, [r7, #20]
 711 0096 8A1A     		subs	r2, r1, r2
 712 0098 5A60     		str	r2, [r3, #4]
 713 009a 03E0     		b	.L46
 714              	.L54:
 715              		.loc 2 473 0
 716 009c 034B     		ldr	r3, .L55
 717 009e 1B68     		ldr	r3, [r3]
 718 00a0 0022     		movs	r2, #0
 719 00a2 5A60     		str	r2, [r3, #4]
 720              	.L46:
 721              		.loc 2 477 0
 722 00a4 1837     		adds	r7, r7, #24
 723 00a6 BD46     		mov	sp, r7
 724              		@ sp needed
 725 00a8 80BD     		pop	{r7, pc}
 726              	.L56:
ARM GAS  C:\Users\Luis\AppData\Local\Temp\ccEHI8EP.s 			page 14


 727 00aa 00BF     		.align	2
 728              	.L55:
 729 00ac 00000000 		.word	next_timeout
 730              		.cfi_endproc
 731              	.LFE267:
 732              		.size	sys_timeouts_mbox_fetch, .-sys_timeouts_mbox_fetch
 733              		.text
 734              	.Letext0:
 735              		.file 3 "c:\\emtechesdk\\gcc\\lib\\gcc\\arm-none-eabi\\4.8.3\\include\\stddef.h"
 736              		.file 4 "c:\\emtechesdk\\gcc\\arm-none-eabi\\include\\stdint.h"
 737              		.file 5 "../../ChibiOS/os/rt/ports/ARMCMx/compilers/GCC/chtypes.h"
 738              		.file 6 "../../ChibiOS/os/rt/include/chsystypes.h"
 739              		.file 7 "../../ChibiOS/os/rt/include/chschd.h"
 740              		.file 8 "../../ChibiOS/os/rt/ports/ARMCMx/chcore.h"
 741              		.file 9 "../../ChibiOS/os/rt/ports/ARMCMx/chcore_v7m.h"
 742              		.file 10 "../../ChibiOS/os/rt/include/chdebug.h"
 743              		.file 11 "../../ChibiOS/os/rt/include/chtm.h"
 744              		.file 12 "../../ChibiOS/os/rt/include/chstats.h"
 745              		.file 13 "../../ChibiOS/os/rt/include/chsem.h"
 746              		.file 14 "../../ChibiOS/os/rt/include/chmtx.h"
 747              		.file 15 "../../ChibiOS/os/rt/include/chmboxes.h"
 748              		.file 16 "../../ChibiOS/os/various/lwip_bindings/arch/cc.h"
 749              		.file 17 "../../ChibiOS/ext/lwip/src/include/lwip/err.h"
 750              		.file 18 "../../ChibiOS/os/various/lwip_bindings/arch/sys_arch.h"
 751              		.file 19 "../../ChibiOS/ext/lwip/src/include/lwip/timers.h"
 752              		.file 20 "../../ChibiOS/ext/lwip/src/include/lwip/pbuf.h"
 753              		.file 21 "../../ChibiOS/ext/lwip/src/include/ipv4/lwip/ip_addr.h"
 754              		.file 22 "../../ChibiOS/ext/lwip/src/include/lwip/tcp.h"
 755              		.file 23 "../../ChibiOS/ext/lwip/src/include/lwip/tcp_impl.h"
 756              		.file 24 "../../ChibiOS/os/ext/CMSIS/include/core_cm4.h"
 757              		.file 25 "../../ChibiOS/ext/lwip/src/include/lwip/memp.h"