ARM GAS  C:\Users\Luis\AppData\Local\Temp\ccy8kUqc.s 			page 1


   1              		.syntax unified
   2              		.cpu cortex-m4
   3              		.fpu softvfp
   4              		.eabi_attribute 20, 1
   5              		.eabi_attribute 21, 1
   6              		.eabi_attribute 23, 3
   7              		.eabi_attribute 24, 1
   8              		.eabi_attribute 25, 1
   9              		.eabi_attribute 26, 1
  10              		.eabi_attribute 30, 6
  11              		.eabi_attribute 34, 1
  12              		.eabi_attribute 18, 4
  13              		.thumb
  14              		.file	"udp.c"
  15              		.text
  16              	.Ltext0:
  17              		.cfi_sections	.debug_frame
  18              		.section	.text.osalSysHalt,"ax",%progbits
  19              		.align	2
  20              		.p2align 4,,15
  21              		.thumb
  22              		.thumb_func
  23              		.type	osalSysHalt, %function
  24              	osalSysHalt:
  25              	.LFB230:
  26              		.file 1 "../../ChibiOS/os/hal/osal/rt/osal.h"
  27              		.loc 1 460 0
  28              		.cfi_startproc
  29              		@ args = 0, pretend = 0, frame = 8
  30              		@ frame_needed = 1, uses_anonymous_args = 0
  31 0000 80B5     		push	{r7, lr}
  32              		.cfi_def_cfa_offset 8
  33              		.cfi_offset 7, -8
  34              		.cfi_offset 14, -4
  35 0002 82B0     		sub	sp, sp, #8
  36              		.cfi_def_cfa_offset 16
  37 0004 00AF     		add	r7, sp, #0
  38              		.cfi_def_cfa_register 7
  39 0006 7860     		str	r0, [r7, #4]
  40              		.loc 1 462 0
  41 0008 7868     		ldr	r0, [r7, #4]
  42 000a FFF7FEFF 		bl	chSysHalt
  43              		.loc 1 463 0
  44 000e 0837     		adds	r7, r7, #8
  45 0010 BD46     		mov	sp, r7
  46              		@ sp needed
  47 0012 80BD     		pop	{r7, pc}
  48              		.cfi_endproc
  49              	.LFE230:
  50              		.size	osalSysHalt, .-osalSysHalt
  51 0014 AFF30080 		.section	.data.udp_port,"aw",%progbits
  51      AFF30080 
  51      AFF30080 
  52              		.align	1
  53              		.type	udp_port, %object
  54              		.size	udp_port, 2
  55              	udp_port:
ARM GAS  C:\Users\Luis\AppData\Local\Temp\ccy8kUqc.s 			page 2


  56 0000 00C0     		.short	-16384
  57              		.global	udp_pcbs
  58              		.section	.bss.udp_pcbs,"aw",%nobits
  59              		.align	2
  60              		.type	udp_pcbs, %object
  61              		.size	udp_pcbs, 4
  62              	udp_pcbs:
  63 0000 00000000 		.space	4
  64              		.section	.text.udp_init,"ax",%progbits
  65              		.align	2
  66              		.p2align 4,,15
  67              		.global	udp_init
  68              		.thumb
  69              		.thumb_func
  70              		.type	udp_init, %function
  71              	udp_init:
  72              	.LFB260:
  73              		.file 2 "../../ChibiOS/ext/lwip/src/core/udp.c"
  74              		.loc 2 87 0
  75              		.cfi_startproc
  76              		@ args = 0, pretend = 0, frame = 0
  77              		@ frame_needed = 1, uses_anonymous_args = 0
  78              		@ link register save eliminated.
  79 0000 80B4     		push	{r7}
  80              		.cfi_def_cfa_offset 4
  81              		.cfi_offset 7, -4
  82 0002 00AF     		add	r7, sp, #0
  83              		.cfi_def_cfa_register 7
  84              		.loc 2 91 0
  85 0004 BD46     		mov	sp, r7
  86              		@ sp needed
  87 0006 5DF8047B 		ldr	r7, [sp], #4
  88 000a 7047     		bx	lr
  89              		.cfi_endproc
  90              	.LFE260:
  91              		.size	udp_init, .-udp_init
  92 000c AFF30080 		.section	.text.udp_new_port,"ax",%progbits
  93              		.align	2
  94              		.p2align 4,,15
  95              		.thumb
  96              		.thumb_func
  97              		.type	udp_new_port, %function
  98              	udp_new_port:
  99              	.LFB261:
 100              		.loc 2 100 0
 101              		.cfi_startproc
 102              		@ args = 0, pretend = 0, frame = 8
 103              		@ frame_needed = 1, uses_anonymous_args = 0
 104              		@ link register save eliminated.
 105 0000 80B4     		push	{r7}
 106              		.cfi_def_cfa_offset 4
 107              		.cfi_offset 7, -4
 108 0002 83B0     		sub	sp, sp, #12
 109              		.cfi_def_cfa_offset 16
 110 0004 00AF     		add	r7, sp, #0
 111              		.cfi_def_cfa_register 7
 112              		.loc 2 101 0
ARM GAS  C:\Users\Luis\AppData\Local\Temp\ccy8kUqc.s 			page 3


 113 0006 0023     		movs	r3, #0
 114 0008 FB80     		strh	r3, [r7, #6]	@ movhi
 115              	.L4:
 116              		.loc 2 105 0
 117 000a 184B     		ldr	r3, .L11
 118 000c 1B88     		ldrh	r3, [r3]
 119 000e 5A1C     		adds	r2, r3, #1
 120 0010 91B2     		uxth	r1, r2
 121 0012 164A     		ldr	r2, .L11
 122 0014 1180     		strh	r1, [r2]	@ movhi
 123 0016 4FF6FF72 		movw	r2, #65535
 124 001a 9342     		cmp	r3, r2
 125 001c 03D1     		bne	.L5
 126              		.loc 2 106 0
 127 001e 134B     		ldr	r3, .L11
 128 0020 4FF44042 		mov	r2, #49152
 129 0024 1A80     		strh	r2, [r3]	@ movhi
 130              	.L5:
 131              		.loc 2 109 0
 132 0026 124B     		ldr	r3, .L11+4
 133 0028 1B68     		ldr	r3, [r3]
 134 002a 3B60     		str	r3, [r7]
 135 002c 12E0     		b	.L6
 136              	.L10:
 137              		.loc 2 110 0
 138 002e 3B68     		ldr	r3, [r7]
 139 0030 5A8A     		ldrh	r2, [r3, #18]
 140 0032 0E4B     		ldr	r3, .L11
 141 0034 1B88     		ldrh	r3, [r3]
 142 0036 9A42     		cmp	r2, r3
 143 0038 09D1     		bne	.L7
 144              		.loc 2 111 0
 145 003a FB88     		ldrh	r3, [r7, #6]	@ movhi
 146 003c 0133     		adds	r3, r3, #1
 147 003e FB80     		strh	r3, [r7, #6]	@ movhi
 148 0040 FB88     		ldrh	r3, [r7, #6]
 149 0042 B3F5804F 		cmp	r3, #16384
 150 0046 01D3     		bcc	.L8
 151              		.loc 2 112 0
 152 0048 0023     		movs	r3, #0
 153 004a 08E0     		b	.L9
 154              	.L8:
 155              		.loc 2 114 0
 156 004c DDE7     		b	.L4
 157              	.L7:
 158              		.loc 2 109 0
 159 004e 3B68     		ldr	r3, [r7]
 160 0050 DB68     		ldr	r3, [r3, #12]
 161 0052 3B60     		str	r3, [r7]
 162              	.L6:
 163              		.loc 2 109 0 is_stmt 0 discriminator 1
 164 0054 3B68     		ldr	r3, [r7]
 165 0056 002B     		cmp	r3, #0
 166 0058 E9D1     		bne	.L10
 167              		.loc 2 117 0 is_stmt 1
 168 005a 044B     		ldr	r3, .L11
 169 005c 1B88     		ldrh	r3, [r3]
ARM GAS  C:\Users\Luis\AppData\Local\Temp\ccy8kUqc.s 			page 4


 170              	.L9:
 171              		.loc 2 136 0
 172 005e 1846     		mov	r0, r3
 173 0060 0C37     		adds	r7, r7, #12
 174 0062 BD46     		mov	sp, r7
 175              		@ sp needed
 176 0064 5DF8047B 		ldr	r7, [sp], #4
 177 0068 7047     		bx	lr
 178              	.L12:
 179 006a 00BF     		.align	2
 180              	.L11:
 181 006c 00000000 		.word	udp_port
 182 0070 00000000 		.word	udp_pcbs
 183              		.cfi_endproc
 184              	.LFE261:
 185              		.size	udp_new_port, .-udp_new_port
 186 0074 AFF30080 		.section	.rodata
 186      AFF30080 
 186      AFF30080 
 187              		.align	2
 188              	.LC0:
 189 0000 70627566 		.ascii	"pbuf_header failed\012\000"
 189      5F686561 
 189      64657220 
 189      6661696C 
 189      65640A00 
 190              		.align	2
 191              	.LC1:
 192 0014 702D3E70 		.ascii	"p->payload == iphdr\000"
 192      61796C6F 
 192      6164203D 
 192      3D206970 
 192      68647200 
 193              		.section	.text.udp_input,"ax",%progbits
 194              		.align	2
 195              		.p2align 4,,15
 196              		.global	udp_input
 197              		.thumb
 198              		.thumb_func
 199              		.type	udp_input, %function
 200              	udp_input:
 201              	.LFB262:
 202              		.loc 2 152 0
 203              		.cfi_startproc
 204              		@ args = 0, pretend = 0, frame = 40
 205              		@ frame_needed = 1, uses_anonymous_args = 0
 206 0000 90B5     		push	{r4, r7, lr}
 207              		.cfi_def_cfa_offset 12
 208              		.cfi_offset 4, -12
 209              		.cfi_offset 7, -8
 210              		.cfi_offset 14, -4
 211 0002 8DB0     		sub	sp, sp, #52
 212              		.cfi_def_cfa_offset 64
 213 0004 02AF     		add	r7, sp, #8
 214              		.cfi_def_cfa 7, 56
 215 0006 7860     		str	r0, [r7, #4]
 216 0008 3960     		str	r1, [r7]
ARM GAS  C:\Users\Luis\AppData\Local\Temp\ccy8kUqc.s 			page 5


 217              		.loc 2 163 0
 218 000a 984B     		ldr	r3, .L37
 219 000c B3F87A30 		ldrh	r3, [r3, #122]
 220 0010 0133     		adds	r3, r3, #1
 221 0012 9AB2     		uxth	r2, r3
 222 0014 954B     		ldr	r3, .L37
 223 0016 A3F87A20 		strh	r2, [r3, #122]	@ movhi
 224              		.loc 2 165 0
 225 001a 7B68     		ldr	r3, [r7, #4]
 226 001c 5B68     		ldr	r3, [r3, #4]
 227 001e 7B61     		str	r3, [r7, #20]
 228              		.loc 2 169 0
 229 0020 7B68     		ldr	r3, [r7, #4]
 230 0022 1B89     		ldrh	r3, [r3, #8]
 231 0024 1A46     		mov	r2, r3
 232 0026 7B69     		ldr	r3, [r7, #20]
 233 0028 1B78     		ldrb	r3, [r3]	@ zero_extendqisi2
 234 002a 03F00F03 		and	r3, r3, #15
 235 002e 0233     		adds	r3, r3, #2
 236 0030 9B00     		lsls	r3, r3, #2
 237 0032 9A42     		cmp	r2, r3
 238 0034 11DB     		blt	.L14
 239              		.loc 2 169 0 is_stmt 0 discriminator 1
 240 0036 7B69     		ldr	r3, [r7, #20]
 241 0038 1B78     		ldrb	r3, [r3]	@ zero_extendqisi2
 242 003a 03F00F03 		and	r3, r3, #15
 243 003e 9BB2     		uxth	r3, r3
 244 0040 9B00     		lsls	r3, r3, #2
 245 0042 9BB2     		uxth	r3, r3
 246 0044 5B42     		negs	r3, r3
 247 0046 9BB2     		uxth	r3, r3
 248 0048 9BB2     		uxth	r3, r3
 249 004a 1BB2     		sxth	r3, r3
 250 004c 7868     		ldr	r0, [r7, #4]
 251 004e 1946     		mov	r1, r3
 252 0050 FFF7FEFF 		bl	pbuf_header
 253 0054 0346     		mov	r3, r0
 254 0056 002B     		cmp	r3, #0
 255 0058 13D0     		beq	.L15
 256              	.L14:
 257              		.loc 2 173 0 is_stmt 1
 258 005a 844B     		ldr	r3, .L37
 259 005c B3F88230 		ldrh	r3, [r3, #130]
 260 0060 0133     		adds	r3, r3, #1
 261 0062 9AB2     		uxth	r2, r3
 262 0064 814B     		ldr	r3, .L37
 263 0066 A3F88220 		strh	r2, [r3, #130]	@ movhi
 264              		.loc 2 174 0
 265 006a 804B     		ldr	r3, .L37
 266 006c B3F87E30 		ldrh	r3, [r3, #126]
 267 0070 0133     		adds	r3, r3, #1
 268 0072 9AB2     		uxth	r2, r3
 269 0074 7D4B     		ldr	r3, .L37
 270 0076 A3F87E20 		strh	r2, [r3, #126]	@ movhi
 271              		.loc 2 176 0
 272 007a 7868     		ldr	r0, [r7, #4]
 273 007c FFF7FEFF 		bl	pbuf_free
ARM GAS  C:\Users\Luis\AppData\Local\Temp\ccy8kUqc.s 			page 6


 274              		.loc 2 177 0
 275 0080 38E1     		b	.L13
 276              	.L15:
 277              		.loc 2 180 0
 278 0082 7B68     		ldr	r3, [r7, #4]
 279 0084 5B68     		ldr	r3, [r3, #4]
 280 0086 3B61     		str	r3, [r7, #16]
 281              		.loc 2 183 0
 282 0088 794B     		ldr	r3, .L37+4
 283 008a 1B68     		ldr	r3, [r3]
 284 008c 1846     		mov	r0, r3
 285 008e 3968     		ldr	r1, [r7]
 286 0090 FFF7FEFF 		bl	ip4_addr_isbroadcast
 287 0094 0346     		mov	r3, r0
 288 0096 FB73     		strb	r3, [r7, #15]
 289              		.loc 2 188 0
 290 0098 3B69     		ldr	r3, [r7, #16]
 291 009a 1B88     		ldrh	r3, [r3]	@ unaligned
 292 009c 9BB2     		uxth	r3, r3
 293 009e 1846     		mov	r0, r3
 294 00a0 FFF7FEFF 		bl	lwip_ntohs
 295 00a4 0346     		mov	r3, r0
 296 00a6 BB81     		strh	r3, [r7, #12]	@ movhi
 297              		.loc 2 189 0
 298 00a8 3B69     		ldr	r3, [r7, #16]
 299 00aa 5B88     		ldrh	r3, [r3, #2]	@ unaligned
 300 00ac 9BB2     		uxth	r3, r3
 301 00ae 1846     		mov	r0, r3
 302 00b0 FFF7FEFF 		bl	lwip_ntohs
 303 00b4 0346     		mov	r3, r0
 304 00b6 7B81     		strh	r3, [r7, #10]	@ movhi
 305              		.loc 2 222 0
 306 00b8 0023     		movs	r3, #0
 307 00ba 3B62     		str	r3, [r7, #32]
 308              		.loc 2 223 0
 309 00bc 0023     		movs	r3, #0
 310 00be FB76     		strb	r3, [r7, #27]
 311              		.loc 2 224 0
 312 00c0 0023     		movs	r3, #0
 313 00c2 FB61     		str	r3, [r7, #28]
 314              		.loc 2 229 0
 315 00c4 6B4B     		ldr	r3, .L37+8
 316 00c6 1B68     		ldr	r3, [r3]
 317 00c8 7B62     		str	r3, [r7, #36]
 318 00ca 6AE0     		b	.L17
 319              	.L26:
 320              		.loc 2 230 0
 321 00cc 0023     		movs	r3, #0
 322 00ce FB76     		strb	r3, [r7, #27]
 323              		.loc 2 241 0
 324 00d0 7B6A     		ldr	r3, [r7, #36]
 325 00d2 5B8A     		ldrh	r3, [r3, #18]
 326 00d4 7A89     		ldrh	r2, [r7, #10]
 327 00d6 9A42     		cmp	r2, r3
 328 00d8 30D1     		bne	.L18
 329              		.loc 2 242 0
 330 00da FB7B     		ldrb	r3, [r7, #15]	@ zero_extendqisi2
ARM GAS  C:\Users\Luis\AppData\Local\Temp\ccy8kUqc.s 			page 7


 331 00dc 002B     		cmp	r3, #0
 332 00de 06D1     		bne	.L19
 333              		.loc 2 243 0
 334 00e0 7B6A     		ldr	r3, [r7, #36]
 335 00e2 002B     		cmp	r3, #0
 336 00e4 1DD0     		beq	.L20
 337              		.loc 2 243 0 is_stmt 0 discriminator 1
 338 00e6 7B6A     		ldr	r3, [r7, #36]
 339 00e8 1B68     		ldr	r3, [r3]
 340 00ea 002B     		cmp	r3, #0
 341 00ec 19D0     		beq	.L20
 342              	.L19:
 343              		.loc 2 244 0 is_stmt 1 discriminator 1
 344 00ee 7B6A     		ldr	r3, [r7, #36]
 345 00f0 1A68     		ldr	r2, [r3]
 346 00f2 5F4B     		ldr	r3, .L37+4
 347 00f4 1B68     		ldr	r3, [r3]
 348              		.loc 2 243 0 discriminator 1
 349 00f6 9A42     		cmp	r2, r3
 350 00f8 13D0     		beq	.L20
 351              		.loc 2 244 0
 352 00fa FB7B     		ldrb	r3, [r7, #15]	@ zero_extendqisi2
 353 00fc 002B     		cmp	r3, #0
 354 00fe 1DD0     		beq	.L18
 355              		.loc 2 254 0
 356 0100 7B6A     		ldr	r3, [r7, #36]
 357              		.loc 2 253 0
 358 0102 002B     		cmp	r3, #0
 359 0104 0DD0     		beq	.L20
 360              		.loc 2 254 0
 361 0106 7B6A     		ldr	r3, [r7, #36]
 362 0108 1B68     		ldr	r3, [r3]
 363 010a 002B     		cmp	r3, #0
 364 010c 09D0     		beq	.L20
 365              		.loc 2 255 0 discriminator 1
 366 010e 7B6A     		ldr	r3, [r7, #36]
 367 0110 1A68     		ldr	r2, [r3]
 368 0112 574B     		ldr	r3, .L37+4
 369 0114 1B68     		ldr	r3, [r3]
 370 0116 5A40     		eors	r2, r2, r3
 371 0118 3B68     		ldr	r3, [r7]
 372 011a 9B68     		ldr	r3, [r3, #8]
 373 011c 1340     		ands	r3, r3, r2
 374              		.loc 2 254 0 discriminator 1
 375 011e 002B     		cmp	r3, #0
 376 0120 0CD1     		bne	.L18
 377              	.L20:
 378              		.loc 2 257 0
 379 0122 0123     		movs	r3, #1
 380 0124 FB76     		strb	r3, [r7, #27]
 381              		.loc 2 258 0
 382 0126 FB69     		ldr	r3, [r7, #28]
 383 0128 002B     		cmp	r3, #0
 384 012a 07D1     		bne	.L18
 385              		.loc 2 259 0 discriminator 1
 386 012c 7B6A     		ldr	r3, [r7, #36]
 387 012e 1B7C     		ldrb	r3, [r3, #16]	@ zero_extendqisi2
ARM GAS  C:\Users\Luis\AppData\Local\Temp\ccy8kUqc.s 			page 8


 388 0130 03F00403 		and	r3, r3, #4
 389              		.loc 2 258 0 discriminator 1
 390 0134 002B     		cmp	r3, #0
 391 0136 01D1     		bne	.L18
 392              		.loc 2 261 0
 393 0138 7B6A     		ldr	r3, [r7, #36]
 394 013a FB61     		str	r3, [r7, #28]
 395              	.L18:
 396              		.loc 2 266 0
 397 013c FB7E     		ldrb	r3, [r7, #27]	@ zero_extendqisi2
 398 013e 002B     		cmp	r3, #0
 399 0140 2AD0     		beq	.L21
 400              		.loc 2 267 0 discriminator 1
 401 0142 7B6A     		ldr	r3, [r7, #36]
 402 0144 9B8A     		ldrh	r3, [r3, #20]
 403              		.loc 2 266 0 discriminator 1
 404 0146 BA89     		ldrh	r2, [r7, #12]
 405 0148 9A42     		cmp	r2, r3
 406 014a 25D1     		bne	.L21
 407              		.loc 2 268 0
 408 014c 7B6A     		ldr	r3, [r7, #36]
 409 014e 0433     		adds	r3, r3, #4
 410              		.loc 2 267 0
 411 0150 002B     		cmp	r3, #0
 412 0152 09D0     		beq	.L22
 413              		.loc 2 268 0
 414 0154 7B6A     		ldr	r3, [r7, #36]
 415 0156 5B68     		ldr	r3, [r3, #4]
 416 0158 002B     		cmp	r3, #0
 417 015a 05D0     		beq	.L22
 418              		.loc 2 269 0 discriminator 1
 419 015c 7B6A     		ldr	r3, [r7, #36]
 420 015e 5A68     		ldr	r2, [r3, #4]
 421 0160 454B     		ldr	r3, .L37+12
 422 0162 1B68     		ldr	r3, [r3]
 423              		.loc 2 268 0 discriminator 1
 424 0164 9A42     		cmp	r2, r3
 425 0166 17D1     		bne	.L21
 426              	.L22:
 427              		.loc 2 271 0
 428 0168 3B6A     		ldr	r3, [r7, #32]
 429 016a 002B     		cmp	r3, #0
 430 016c 0BD0     		beq	.L23
 431              		.loc 2 274 0
 432 016e 7B6A     		ldr	r3, [r7, #36]
 433 0170 DA68     		ldr	r2, [r3, #12]
 434 0172 3B6A     		ldr	r3, [r7, #32]
 435 0174 DA60     		str	r2, [r3, #12]
 436              		.loc 2 275 0
 437 0176 3F4B     		ldr	r3, .L37+8
 438 0178 1A68     		ldr	r2, [r3]
 439 017a 7B6A     		ldr	r3, [r7, #36]
 440 017c DA60     		str	r2, [r3, #12]
 441              		.loc 2 276 0
 442 017e 3D4B     		ldr	r3, .L37+8
 443 0180 7A6A     		ldr	r2, [r7, #36]
 444 0182 1A60     		str	r2, [r3]
ARM GAS  C:\Users\Luis\AppData\Local\Temp\ccy8kUqc.s 			page 9


 445              		.loc 2 280 0
 446 0184 10E0     		b	.L25
 447              	.L23:
 448              		.loc 2 278 0
 449 0186 394B     		ldr	r3, .L37
 450 0188 B3F88E30 		ldrh	r3, [r3, #142]
 451 018c 0133     		adds	r3, r3, #1
 452 018e 9AB2     		uxth	r2, r3
 453 0190 364B     		ldr	r3, .L37
 454 0192 A3F88E20 		strh	r2, [r3, #142]	@ movhi
 455              		.loc 2 280 0
 456 0196 07E0     		b	.L25
 457              	.L21:
 458              		.loc 2 282 0
 459 0198 7B6A     		ldr	r3, [r7, #36]
 460 019a 3B62     		str	r3, [r7, #32]
 461              		.loc 2 229 0
 462 019c 7B6A     		ldr	r3, [r7, #36]
 463 019e DB68     		ldr	r3, [r3, #12]
 464 01a0 7B62     		str	r3, [r7, #36]
 465              	.L17:
 466              		.loc 2 229 0 is_stmt 0 discriminator 1
 467 01a2 7B6A     		ldr	r3, [r7, #36]
 468 01a4 002B     		cmp	r3, #0
 469 01a6 91D1     		bne	.L26
 470              	.L25:
 471              		.loc 2 285 0 is_stmt 1
 472 01a8 7B6A     		ldr	r3, [r7, #36]
 473 01aa 002B     		cmp	r3, #0
 474 01ac 01D1     		bne	.L27
 475              		.loc 2 286 0
 476 01ae FB69     		ldr	r3, [r7, #28]
 477 01b0 7B62     		str	r3, [r7, #36]
 478              	.L27:
 479              		.loc 2 291 0
 480 01b2 7B6A     		ldr	r3, [r7, #36]
 481 01b4 002B     		cmp	r3, #0
 482 01b6 06D1     		bne	.L28
 483              		.loc 2 291 0 is_stmt 0 discriminator 1
 484 01b8 3B68     		ldr	r3, [r7]
 485 01ba 5A68     		ldr	r2, [r3, #4]
 486 01bc 2C4B     		ldr	r3, .L37+4
 487 01be 1B68     		ldr	r3, [r3]
 488 01c0 9A42     		cmp	r2, r3
 489 01c2 40F09480 		bne	.L29
 490              	.L28:
 491              		.loc 2 328 0 is_stmt 1
 492 01c6 3B69     		ldr	r3, [r7, #16]
 493 01c8 DB88     		ldrh	r3, [r3, #6]	@ unaligned
 494 01ca 9BB2     		uxth	r3, r3
 495 01cc 002B     		cmp	r3, #0
 496 01ce 1FD0     		beq	.L30
 497              		.loc 2 329 0
 498 01d0 7B68     		ldr	r3, [r7, #4]
 499 01d2 1B89     		ldrh	r3, [r3, #8]
 500 01d4 0093     		str	r3, [sp]
 501 01d6 7868     		ldr	r0, [r7, #4]
ARM GAS  C:\Users\Luis\AppData\Local\Temp\ccy8kUqc.s 			page 10


 502 01d8 2749     		ldr	r1, .L37+12
 503 01da 254A     		ldr	r2, .L37+4
 504 01dc 1123     		movs	r3, #17
 505 01de FFF7FEFF 		bl	inet_chksum_pseudo
 506 01e2 0346     		mov	r3, r0
 507 01e4 002B     		cmp	r3, #0
 508 01e6 13D0     		beq	.L30
 509              		.loc 2 333 0
 510 01e8 204B     		ldr	r3, .L37
 511 01ea B3F88030 		ldrh	r3, [r3, #128]
 512 01ee 0133     		adds	r3, r3, #1
 513 01f0 9AB2     		uxth	r2, r3
 514 01f2 1E4B     		ldr	r3, .L37
 515 01f4 A3F88020 		strh	r2, [r3, #128]	@ movhi
 516              		.loc 2 334 0
 517 01f8 1C4B     		ldr	r3, .L37
 518 01fa B3F87E30 		ldrh	r3, [r3, #126]
 519 01fe 0133     		adds	r3, r3, #1
 520 0200 9AB2     		uxth	r2, r3
 521 0202 1A4B     		ldr	r3, .L37
 522 0204 A3F87E20 		strh	r2, [r3, #126]	@ movhi
 523              		.loc 2 336 0
 524 0208 7868     		ldr	r0, [r7, #4]
 525 020a FFF7FEFF 		bl	pbuf_free
 526              		.loc 2 337 0
 527 020e 71E0     		b	.L13
 528              	.L30:
 529              		.loc 2 342 0
 530 0210 7868     		ldr	r0, [r7, #4]
 531 0212 6FF00701 		mvn	r1, #7
 532 0216 FFF7FEFF 		bl	pbuf_header
 533 021a 0346     		mov	r3, r0
 534 021c 002B     		cmp	r3, #0
 535 021e 0ED0     		beq	.L31
 536              		.loc 2 344 0 discriminator 1
 537 0220 1648     		ldr	r0, .L37+16
 538 0222 FFF7FEFF 		bl	osalSysHalt
 539              		.loc 2 345 0 discriminator 1
 540 0226 114B     		ldr	r3, .L37
 541 0228 B3F87E30 		ldrh	r3, [r3, #126]
 542 022c 0133     		adds	r3, r3, #1
 543 022e 9AB2     		uxth	r2, r3
 544 0230 0E4B     		ldr	r3, .L37
 545 0232 A3F87E20 		strh	r2, [r3, #126]	@ movhi
 546              		.loc 2 347 0 discriminator 1
 547 0236 7868     		ldr	r0, [r7, #4]
 548 0238 FFF7FEFF 		bl	pbuf_free
 549              		.loc 2 348 0 discriminator 1
 550 023c 5AE0     		b	.L13
 551              	.L31:
 552              		.loc 2 350 0
 553 023e 7B6A     		ldr	r3, [r7, #36]
 554 0240 002B     		cmp	r3, #0
 555 0242 1DD0     		beq	.L32
 556              		.loc 2 401 0
 557 0244 7B6A     		ldr	r3, [r7, #36]
 558 0246 9B69     		ldr	r3, [r3, #24]
ARM GAS  C:\Users\Luis\AppData\Local\Temp\ccy8kUqc.s 			page 11


 559 0248 002B     		cmp	r3, #0
 560 024a 0BD0     		beq	.L33
 561              		.loc 2 403 0
 562 024c 7B6A     		ldr	r3, [r7, #36]
 563 024e 9C69     		ldr	r4, [r3, #24]
 564 0250 7B6A     		ldr	r3, [r7, #36]
 565 0252 DB69     		ldr	r3, [r3, #28]
 566 0254 BA89     		ldrh	r2, [r7, #12]
 567 0256 0092     		str	r2, [sp]
 568 0258 1846     		mov	r0, r3
 569 025a 796A     		ldr	r1, [r7, #36]
 570 025c 7A68     		ldr	r2, [r7, #4]
 571 025e 064B     		ldr	r3, .L37+12
 572 0260 A047     		blx	r4
 573              		.loc 2 350 0
 574 0262 47E0     		b	.L13
 575              	.L33:
 576              		.loc 2 406 0
 577 0264 7868     		ldr	r0, [r7, #4]
 578 0266 FFF7FEFF 		bl	pbuf_free
 579              		.loc 2 407 0
 580 026a 43E0     		b	.L13
 581              	.L38:
 582              		.align	2
 583              	.L37:
 584 026c 00000000 		.word	lwip_stats
 585 0270 00000000 		.word	current_iphdr_dest
 586 0274 00000000 		.word	udp_pcbs
 587 0278 00000000 		.word	current_iphdr_src
 588 027c 00000000 		.word	.LC0
 589              	.L32:
 590              		.loc 2 415 0
 591 0280 FB7B     		ldrb	r3, [r7, #15]	@ zero_extendqisi2
 592 0282 002B     		cmp	r3, #0
 593 0284 1FD1     		bne	.L35
 594              		.loc 2 416 0 discriminator 1
 595 0286 1D4B     		ldr	r3, .L39
 596 0288 1B68     		ldr	r3, [r3]
 597 028a 03F0F003 		and	r3, r3, #240
 598              		.loc 2 415 0 discriminator 1
 599 028e E02B     		cmp	r3, #224
 600 0290 19D0     		beq	.L35
 601              		.loc 2 418 0
 602 0292 7B69     		ldr	r3, [r7, #20]
 603 0294 1B78     		ldrb	r3, [r3]	@ zero_extendqisi2
 604 0296 03F00F03 		and	r3, r3, #15
 605 029a 0233     		adds	r3, r3, #2
 606 029c 9BB2     		uxth	r3, r3
 607 029e 9B00     		lsls	r3, r3, #2
 608 02a0 9BB2     		uxth	r3, r3
 609 02a2 9BB2     		uxth	r3, r3
 610 02a4 1BB2     		sxth	r3, r3
 611 02a6 7868     		ldr	r0, [r7, #4]
 612 02a8 1946     		mov	r1, r3
 613 02aa FFF7FEFF 		bl	pbuf_header
 614              		.loc 2 419 0
 615 02ae 7B68     		ldr	r3, [r7, #4]
ARM GAS  C:\Users\Luis\AppData\Local\Temp\ccy8kUqc.s 			page 12


 616 02b0 5A68     		ldr	r2, [r3, #4]
 617 02b2 7B69     		ldr	r3, [r7, #20]
 618 02b4 9A42     		cmp	r2, r3
 619 02b6 02D0     		beq	.L36
 620              		.loc 2 419 0 is_stmt 0 discriminator 1
 621 02b8 1148     		ldr	r0, .L39+4
 622 02ba FFF7FEFF 		bl	osalSysHalt
 623              	.L36:
 624              		.loc 2 420 0 is_stmt 1
 625 02be 7868     		ldr	r0, [r7, #4]
 626 02c0 0321     		movs	r1, #3
 627 02c2 FFF7FEFF 		bl	icmp_dest_unreach
 628              	.L35:
 629              		.loc 2 423 0
 630 02c6 0F4B     		ldr	r3, .L39+8
 631 02c8 B3F88830 		ldrh	r3, [r3, #136]
 632 02cc 0133     		adds	r3, r3, #1
 633 02ce 9AB2     		uxth	r2, r3
 634 02d0 0C4B     		ldr	r3, .L39+8
 635 02d2 A3F88820 		strh	r2, [r3, #136]	@ movhi
 636              		.loc 2 424 0
 637 02d6 0B4B     		ldr	r3, .L39+8
 638 02d8 B3F87E30 		ldrh	r3, [r3, #126]
 639 02dc 0133     		adds	r3, r3, #1
 640 02de 9AB2     		uxth	r2, r3
 641 02e0 084B     		ldr	r3, .L39+8
 642 02e2 A3F87E20 		strh	r2, [r3, #126]	@ movhi
 643              		.loc 2 426 0
 644 02e6 7868     		ldr	r0, [r7, #4]
 645 02e8 FFF7FEFF 		bl	pbuf_free
 646              		.loc 2 350 0
 647 02ec 02E0     		b	.L13
 648              	.L29:
 649              		.loc 2 429 0
 650 02ee 7868     		ldr	r0, [r7, #4]
 651 02f0 FFF7FEFF 		bl	pbuf_free
 652              	.L16:
 653              	.L13:
 654              		.loc 2 433 0
 655 02f4 2C37     		adds	r7, r7, #44
 656 02f6 BD46     		mov	sp, r7
 657              		@ sp needed
 658 02f8 90BD     		pop	{r4, r7, pc}
 659              	.L40:
 660 02fa 00BF     		.align	2
 661              	.L39:
 662 02fc 00000000 		.word	current_iphdr_dest
 663 0300 14000000 		.word	.LC1
 664 0304 00000000 		.word	lwip_stats
 665              		.cfi_endproc
 666              	.LFE262:
 667              		.size	udp_input, .-udp_input
 668 0308 AFF30080 		.section	.text.udp_send,"ax",%progbits
 668      AFF30080 
 669              		.align	2
 670              		.p2align 4,,15
 671              		.global	udp_send
ARM GAS  C:\Users\Luis\AppData\Local\Temp\ccy8kUqc.s 			page 13


 672              		.thumb
 673              		.thumb_func
 674              		.type	udp_send, %function
 675              	udp_send:
 676              	.LFB263:
 677              		.loc 2 455 0
 678              		.cfi_startproc
 679              		@ args = 0, pretend = 0, frame = 8
 680              		@ frame_needed = 1, uses_anonymous_args = 0
 681 0000 80B5     		push	{r7, lr}
 682              		.cfi_def_cfa_offset 8
 683              		.cfi_offset 7, -8
 684              		.cfi_offset 14, -4
 685 0002 82B0     		sub	sp, sp, #8
 686              		.cfi_def_cfa_offset 16
 687 0004 00AF     		add	r7, sp, #0
 688              		.cfi_def_cfa_register 7
 689 0006 7860     		str	r0, [r7, #4]
 690 0008 3960     		str	r1, [r7]
 691              		.loc 2 457 0
 692 000a 7B68     		ldr	r3, [r7, #4]
 693 000c 1A1D     		adds	r2, r3, #4
 694 000e 7B68     		ldr	r3, [r7, #4]
 695 0010 9B8A     		ldrh	r3, [r3, #20]
 696 0012 7868     		ldr	r0, [r7, #4]
 697 0014 3968     		ldr	r1, [r7]
 698 0016 FFF7FEFF 		bl	udp_sendto
 699 001a 0346     		mov	r3, r0
 700              		.loc 2 458 0
 701 001c 1846     		mov	r0, r3
 702 001e 0837     		adds	r7, r7, #8
 703 0020 BD46     		mov	sp, r7
 704              		@ sp needed
 705 0022 80BD     		pop	{r7, pc}
 706              		.cfi_endproc
 707              	.LFE263:
 708              		.size	udp_send, .-udp_send
 709 0024 AFF30080 		.section	.text.udp_sendto,"ax",%progbits
 709      AFF30080 
 709      AFF30080 
 710              		.align	2
 711              		.p2align 4,,15
 712              		.global	udp_sendto
 713              		.thumb
 714              		.thumb_func
 715              		.type	udp_sendto, %function
 716              	udp_sendto:
 717              	.LFB264:
 718              		.loc 2 493 0
 719              		.cfi_startproc
 720              		@ args = 0, pretend = 0, frame = 24
 721              		@ frame_needed = 1, uses_anonymous_args = 0
 722 0000 80B5     		push	{r7, lr}
 723              		.cfi_def_cfa_offset 8
 724              		.cfi_offset 7, -8
 725              		.cfi_offset 14, -4
 726 0002 88B0     		sub	sp, sp, #32
ARM GAS  C:\Users\Luis\AppData\Local\Temp\ccy8kUqc.s 			page 14


 727              		.cfi_def_cfa_offset 40
 728 0004 02AF     		add	r7, sp, #8
 729              		.cfi_def_cfa 7, 32
 730 0006 F860     		str	r0, [r7, #12]
 731 0008 B960     		str	r1, [r7, #8]
 732 000a 7A60     		str	r2, [r7, #4]
 733 000c 7B80     		strh	r3, [r7, #2]	@ movhi
 734              		.loc 2 512 0
 735 000e 7868     		ldr	r0, [r7, #4]
 736 0010 FFF7FEFF 		bl	ip_route
 737 0014 7861     		str	r0, [r7, #20]
 738              		.loc 2 516 0
 739 0016 7B69     		ldr	r3, [r7, #20]
 740 0018 002B     		cmp	r3, #0
 741 001a 09D1     		bne	.L44
 742              		.loc 2 519 0
 743 001c 0B4B     		ldr	r3, .L46
 744 001e B3F88630 		ldrh	r3, [r3, #134]
 745 0022 0133     		adds	r3, r3, #1
 746 0024 9AB2     		uxth	r2, r3
 747 0026 094B     		ldr	r3, .L46
 748 0028 A3F88620 		strh	r2, [r3, #134]	@ movhi
 749              		.loc 2 520 0
 750 002c FC23     		movs	r3, #252
 751 002e 08E0     		b	.L45
 752              	.L44:
 753              		.loc 2 525 0
 754 0030 7B88     		ldrh	r3, [r7, #2]
 755 0032 7A69     		ldr	r2, [r7, #20]
 756 0034 0092     		str	r2, [sp]
 757 0036 F868     		ldr	r0, [r7, #12]
 758 0038 B968     		ldr	r1, [r7, #8]
 759 003a 7A68     		ldr	r2, [r7, #4]
 760 003c FFF7FEFF 		bl	udp_sendto_if
 761 0040 0346     		mov	r3, r0
 762              	.L45:
 763 0042 5BB2     		sxtb	r3, r3
 764              		.loc 2 527 0
 765 0044 1846     		mov	r0, r3
 766 0046 1837     		adds	r7, r7, #24
 767 0048 BD46     		mov	sp, r7
 768              		@ sp needed
 769 004a 80BD     		pop	{r7, pc}
 770              	.L47:
 771              		.align	2
 772              	.L46:
 773 004c 00000000 		.word	lwip_stats
 774              		.cfi_endproc
 775              	.LFE264:
 776              		.size	udp_sendto, .-udp_sendto
 777              		.section	.rodata
 778              		.align	2
 779              	.LC2:
 780 0028 63686563 		.ascii	"check that first pbuf can hold struct udp_hdr\000"
 780      6B207468 
 780      61742066 
 780      69727374 
ARM GAS  C:\Users\Luis\AppData\Local\Temp\ccy8kUqc.s 			page 15


 780      20706275 
 781              		.section	.text.udp_sendto_if,"ax",%progbits
 782              		.align	2
 783              		.p2align 4,,15
 784              		.global	udp_sendto_if
 785              		.thumb
 786              		.thumb_func
 787              		.type	udp_sendto_if, %function
 788              	udp_sendto_if:
 789              	.LFB265:
 790              		.loc 2 551 0
 791              		.cfi_startproc
 792              		@ args = 4, pretend = 0, frame = 32
 793              		@ frame_needed = 1, uses_anonymous_args = 0
 794 0000 80B5     		push	{r7, lr}
 795              		.cfi_def_cfa_offset 8
 796              		.cfi_offset 7, -8
 797              		.cfi_offset 14, -4
 798 0002 8CB0     		sub	sp, sp, #48
 799              		.cfi_def_cfa_offset 56
 800 0004 04AF     		add	r7, sp, #16
 801              		.cfi_def_cfa 7, 40
 802 0006 F860     		str	r0, [r7, #12]
 803 0008 B960     		str	r1, [r7, #8]
 804 000a 7A60     		str	r2, [r7, #4]
 805 000c 7B80     		strh	r3, [r7, #2]	@ movhi
 806              		.loc 2 578 0
 807 000e FB68     		ldr	r3, [r7, #12]
 808 0010 5B8A     		ldrh	r3, [r3, #18]
 809 0012 002B     		cmp	r3, #0
 810 0014 0FD1     		bne	.L49
 811              		.loc 2 580 0
 812 0016 FA68     		ldr	r2, [r7, #12]
 813 0018 FB68     		ldr	r3, [r7, #12]
 814 001a 5B8A     		ldrh	r3, [r3, #18]
 815 001c F868     		ldr	r0, [r7, #12]
 816 001e 1146     		mov	r1, r2
 817 0020 1A46     		mov	r2, r3
 818 0022 FFF7FEFF 		bl	udp_bind
 819 0026 0346     		mov	r3, r0
 820 0028 7B75     		strb	r3, [r7, #21]
 821              		.loc 2 581 0
 822 002a 97F91530 		ldrsb	r3, [r7, #21]
 823 002e 002B     		cmp	r3, #0
 824 0030 01D0     		beq	.L49
 825              		.loc 2 583 0
 826 0032 7B7D     		ldrb	r3, [r7, #21]	@ zero_extendqisi2
 827 0034 9FE0     		b	.L50
 828              	.L49:
 829              		.loc 2 588 0
 830 0036 B868     		ldr	r0, [r7, #8]
 831 0038 0821     		movs	r1, #8
 832 003a FFF7FEFF 		bl	pbuf_header
 833 003e 0346     		mov	r3, r0
 834 0040 002B     		cmp	r3, #0
 835 0042 13D0     		beq	.L51
 836              		.loc 2 590 0
ARM GAS  C:\Users\Luis\AppData\Local\Temp\ccy8kUqc.s 			page 16


 837 0044 0120     		movs	r0, #1
 838 0046 0821     		movs	r1, #8
 839 0048 0022     		movs	r2, #0
 840 004a FFF7FEFF 		bl	pbuf_alloc
 841 004e B861     		str	r0, [r7, #24]
 842              		.loc 2 592 0
 843 0050 BB69     		ldr	r3, [r7, #24]
 844 0052 002B     		cmp	r3, #0
 845 0054 01D1     		bne	.L52
 846              		.loc 2 594 0
 847 0056 FF23     		movs	r3, #255
 848 0058 8DE0     		b	.L50
 849              	.L52:
 850              		.loc 2 596 0
 851 005a BB68     		ldr	r3, [r7, #8]
 852 005c 1B89     		ldrh	r3, [r3, #8]
 853 005e 002B     		cmp	r3, #0
 854 0060 06D0     		beq	.L54
 855              		.loc 2 598 0
 856 0062 B869     		ldr	r0, [r7, #24]
 857 0064 B968     		ldr	r1, [r7, #8]
 858 0066 FFF7FEFF 		bl	pbuf_chain
 859 006a 01E0     		b	.L54
 860              	.L51:
 861              		.loc 2 606 0
 862 006c BB68     		ldr	r3, [r7, #8]
 863 006e BB61     		str	r3, [r7, #24]
 864              	.L54:
 865              		.loc 2 609 0
 866 0070 BB69     		ldr	r3, [r7, #24]
 867 0072 5B89     		ldrh	r3, [r3, #10]
 868 0074 072B     		cmp	r3, #7
 869 0076 02D8     		bhi	.L55
 870              		.loc 2 609 0 is_stmt 0 discriminator 1
 871 0078 4148     		ldr	r0, .L64
 872 007a FFF7FEFF 		bl	osalSysHalt
 873              	.L55:
 874              		.loc 2 612 0 is_stmt 1
 875 007e BB69     		ldr	r3, [r7, #24]
 876 0080 5B68     		ldr	r3, [r3, #4]
 877 0082 3B61     		str	r3, [r7, #16]
 878              		.loc 2 613 0
 879 0084 FB68     		ldr	r3, [r7, #12]
 880 0086 5B8A     		ldrh	r3, [r3, #18]
 881 0088 1846     		mov	r0, r3
 882 008a FFF7FEFF 		bl	lwip_htons
 883 008e 0346     		mov	r3, r0
 884 0090 1A46     		mov	r2, r3
 885 0092 3B69     		ldr	r3, [r7, #16]
 886 0094 1A80     		strh	r2, [r3]	@ unaligned
 887              		.loc 2 614 0
 888 0096 7B88     		ldrh	r3, [r7, #2]
 889 0098 1846     		mov	r0, r3
 890 009a FFF7FEFF 		bl	lwip_htons
 891 009e 0346     		mov	r3, r0
 892 00a0 1A46     		mov	r2, r3
 893 00a2 3B69     		ldr	r3, [r7, #16]
ARM GAS  C:\Users\Luis\AppData\Local\Temp\ccy8kUqc.s 			page 17


 894 00a4 5A80     		strh	r2, [r3, #2]	@ unaligned
 895              		.loc 2 616 0
 896 00a6 3B69     		ldr	r3, [r7, #16]
 897 00a8 0022     		movs	r2, #0
 898 00aa 9A71     		strb	r2, [r3, #6]
 899 00ac 0022     		movs	r2, #0
 900 00ae DA71     		strb	r2, [r3, #7]
 901              		.loc 2 627 0
 902 00b0 FB68     		ldr	r3, [r7, #12]
 903 00b2 002B     		cmp	r3, #0
 904 00b4 03D0     		beq	.L56
 905              		.loc 2 627 0 is_stmt 0 discriminator 1
 906 00b6 FB68     		ldr	r3, [r7, #12]
 907 00b8 1B68     		ldr	r3, [r3]
 908 00ba 002B     		cmp	r3, #0
 909 00bc 03D1     		bne	.L57
 910              	.L56:
 911              		.loc 2 629 0 is_stmt 1
 912 00be BB6A     		ldr	r3, [r7, #40]
 913 00c0 0433     		adds	r3, r3, #4
 914 00c2 FB61     		str	r3, [r7, #28]
 915 00c4 12E0     		b	.L58
 916              	.L57:
 917              		.loc 2 633 0
 918 00c6 FB68     		ldr	r3, [r7, #12]
 919 00c8 1A68     		ldr	r2, [r3]
 920 00ca BB6A     		ldr	r3, [r7, #40]
 921 00cc 5B68     		ldr	r3, [r3, #4]
 922 00ce 9A42     		cmp	r2, r3
 923 00d0 0AD0     		beq	.L59
 924              		.loc 2 635 0
 925 00d2 BA69     		ldr	r2, [r7, #24]
 926 00d4 BB68     		ldr	r3, [r7, #8]
 927 00d6 9A42     		cmp	r2, r3
 928 00d8 04D0     		beq	.L60
 929              		.loc 2 637 0
 930 00da B869     		ldr	r0, [r7, #24]
 931 00dc FFF7FEFF 		bl	pbuf_free
 932              		.loc 2 638 0
 933 00e0 0023     		movs	r3, #0
 934 00e2 BB61     		str	r3, [r7, #24]
 935              	.L60:
 936              		.loc 2 641 0
 937 00e4 FA23     		movs	r3, #250
 938 00e6 46E0     		b	.L50
 939              	.L59:
 940              		.loc 2 644 0
 941 00e8 FB68     		ldr	r3, [r7, #12]
 942 00ea FB61     		str	r3, [r7, #28]
 943              	.L58:
 944              		.loc 2 699 0
 945 00ec BB69     		ldr	r3, [r7, #24]
 946 00ee 1B89     		ldrh	r3, [r3, #8]
 947 00f0 1846     		mov	r0, r3
 948 00f2 FFF7FEFF 		bl	lwip_htons
 949 00f6 0346     		mov	r3, r0
 950 00f8 1A46     		mov	r2, r3
ARM GAS  C:\Users\Luis\AppData\Local\Temp\ccy8kUqc.s 			page 18


 951 00fa 3B69     		ldr	r3, [r7, #16]
 952 00fc 9A80     		strh	r2, [r3, #4]	@ unaligned
 953              		.loc 2 702 0
 954 00fe FB68     		ldr	r3, [r7, #12]
 955 0100 1B7C     		ldrb	r3, [r3, #16]	@ zero_extendqisi2
 956 0102 03F00103 		and	r3, r3, #1
 957 0106 002B     		cmp	r3, #0
 958 0108 13D1     		bne	.L61
 959              	.LBB2:
 960              		.loc 2 714 0
 961 010a BB69     		ldr	r3, [r7, #24]
 962 010c 1B89     		ldrh	r3, [r3, #8]
 963 010e 0093     		str	r3, [sp]
 964 0110 B869     		ldr	r0, [r7, #24]
 965 0112 F969     		ldr	r1, [r7, #28]
 966 0114 7A68     		ldr	r2, [r7, #4]
 967 0116 1123     		movs	r3, #17
 968 0118 FFF7FEFF 		bl	inet_chksum_pseudo
 969 011c 0346     		mov	r3, r0
 970 011e FB82     		strh	r3, [r7, #22]	@ movhi
 971              		.loc 2 718 0
 972 0120 FB8A     		ldrh	r3, [r7, #22]
 973 0122 002B     		cmp	r3, #0
 974 0124 02D1     		bne	.L62
 975              		.loc 2 719 0
 976 0126 4FF6FF73 		movw	r3, #65535
 977 012a FB82     		strh	r3, [r7, #22]	@ movhi
 978              	.L62:
 979              		.loc 2 721 0
 980 012c 3B69     		ldr	r3, [r7, #16]
 981 012e FA8A     		ldrh	r2, [r7, #22]	@ movhi
 982 0130 DA80     		strh	r2, [r3, #6]	@ unaligned
 983              	.L61:
 984              	.LBE2:
 985              		.loc 2 728 0
 986 0132 FB68     		ldr	r3, [r7, #12]
 987 0134 9B7A     		ldrb	r3, [r3, #10]	@ zero_extendqisi2
 988 0136 FA68     		ldr	r2, [r7, #12]
 989 0138 527A     		ldrb	r2, [r2, #9]	@ zero_extendqisi2
 990 013a 0092     		str	r2, [sp]
 991 013c 1122     		movs	r2, #17
 992 013e 0192     		str	r2, [sp, #4]
 993 0140 BA6A     		ldr	r2, [r7, #40]
 994 0142 0292     		str	r2, [sp, #8]
 995 0144 B869     		ldr	r0, [r7, #24]
 996 0146 F969     		ldr	r1, [r7, #28]
 997 0148 7A68     		ldr	r2, [r7, #4]
 998 014a FFF7FEFF 		bl	ip_output_if
 999 014e 0346     		mov	r3, r0
 1000 0150 7B75     		strb	r3, [r7, #21]
 1001              		.loc 2 735 0
 1002 0152 BA69     		ldr	r2, [r7, #24]
 1003 0154 BB68     		ldr	r3, [r7, #8]
 1004 0156 9A42     		cmp	r2, r3
 1005 0158 04D0     		beq	.L63
 1006              		.loc 2 737 0
 1007 015a B869     		ldr	r0, [r7, #24]
ARM GAS  C:\Users\Luis\AppData\Local\Temp\ccy8kUqc.s 			page 19


 1008 015c FFF7FEFF 		bl	pbuf_free
 1009              		.loc 2 738 0
 1010 0160 0023     		movs	r3, #0
 1011 0162 BB61     		str	r3, [r7, #24]
 1012              	.L63:
 1013              		.loc 2 742 0
 1014 0164 074B     		ldr	r3, .L64+4
 1015 0166 B3F87830 		ldrh	r3, [r3, #120]
 1016 016a 0133     		adds	r3, r3, #1
 1017 016c 9AB2     		uxth	r2, r3
 1018 016e 054B     		ldr	r3, .L64+4
 1019 0170 A3F87820 		strh	r2, [r3, #120]	@ movhi
 1020              		.loc 2 743 0
 1021 0174 7B7D     		ldrb	r3, [r7, #21]	@ zero_extendqisi2
 1022              	.L50:
 1023 0176 5BB2     		sxtb	r3, r3
 1024              		.loc 2 744 0
 1025 0178 1846     		mov	r0, r3
 1026 017a 2037     		adds	r7, r7, #32
 1027 017c BD46     		mov	sp, r7
 1028              		@ sp needed
 1029 017e 80BD     		pop	{r7, pc}
 1030              	.L65:
 1031              		.align	2
 1032              	.L64:
 1033 0180 28000000 		.word	.LC2
 1034 0184 00000000 		.word	lwip_stats
 1035              		.cfi_endproc
 1036              	.LFE265:
 1037              		.size	udp_sendto_if, .-udp_sendto_if
 1038 0188 AFF30080 		.section	.rodata
 1038      AFF30080 
 1039 0056 0000     		.align	2
 1040              	.LC3:
 1041 0058 72656269 		.ascii	"rebind == 0\000"
 1041      6E64203D 
 1041      3D203000 
 1042              		.section	.text.udp_bind,"ax",%progbits
 1043              		.align	2
 1044              		.p2align 4,,15
 1045              		.global	udp_bind
 1046              		.thumb
 1047              		.thumb_func
 1048              		.type	udp_bind, %function
 1049              	udp_bind:
 1050              	.LFB266:
 1051              		.loc 2 767 0
 1052              		.cfi_startproc
 1053              		@ args = 0, pretend = 0, frame = 24
 1054              		@ frame_needed = 1, uses_anonymous_args = 0
 1055 0000 80B5     		push	{r7, lr}
 1056              		.cfi_def_cfa_offset 8
 1057              		.cfi_offset 7, -8
 1058              		.cfi_offset 14, -4
 1059 0002 86B0     		sub	sp, sp, #24
 1060              		.cfi_def_cfa_offset 32
 1061 0004 00AF     		add	r7, sp, #0
ARM GAS  C:\Users\Luis\AppData\Local\Temp\ccy8kUqc.s 			page 20


 1062              		.cfi_def_cfa_register 7
 1063 0006 F860     		str	r0, [r7, #12]
 1064 0008 B960     		str	r1, [r7, #8]
 1065 000a 1346     		mov	r3, r2
 1066 000c FB80     		strh	r3, [r7, #6]	@ movhi
 1067              		.loc 2 775 0
 1068 000e 0023     		movs	r3, #0
 1069 0010 FB74     		strb	r3, [r7, #19]
 1070              		.loc 2 777 0
 1071 0012 2D4B     		ldr	r3, .L78
 1072 0014 1B68     		ldr	r3, [r3]
 1073 0016 7B61     		str	r3, [r7, #20]
 1074 0018 2AE0     		b	.L67
 1075              	.L73:
 1076              		.loc 2 779 0
 1077 001a FA68     		ldr	r2, [r7, #12]
 1078 001c 7B69     		ldr	r3, [r7, #20]
 1079 001e 9A42     		cmp	r2, r3
 1080 0020 08D1     		bne	.L68
 1081              		.loc 2 781 0
 1082 0022 FB7C     		ldrb	r3, [r7, #19]	@ zero_extendqisi2
 1083 0024 002B     		cmp	r3, #0
 1084 0026 02D0     		beq	.L69
 1085              		.loc 2 781 0 is_stmt 0 discriminator 1
 1086 0028 2848     		ldr	r0, .L78+4
 1087 002a FFF7FEFF 		bl	osalSysHalt
 1088              	.L69:
 1089              		.loc 2 783 0 is_stmt 1
 1090 002e 0123     		movs	r3, #1
 1091 0030 FB74     		strb	r3, [r7, #19]
 1092 0032 1AE0     		b	.L70
 1093              	.L68:
 1094              		.loc 2 796 0
 1095 0034 7B69     		ldr	r3, [r7, #20]
 1096 0036 5B8A     		ldrh	r3, [r3, #18]
 1097 0038 FA88     		ldrh	r2, [r7, #6]
 1098 003a 9A42     		cmp	r2, r3
 1099 003c 15D1     		bne	.L70
 1100              		.loc 2 798 0 discriminator 1
 1101 003e 7B69     		ldr	r3, [r7, #20]
 1102              		.loc 2 796 0 discriminator 1
 1103 0040 002B     		cmp	r3, #0
 1104 0042 10D0     		beq	.L71
 1105              		.loc 2 798 0
 1106 0044 7B69     		ldr	r3, [r7, #20]
 1107 0046 1B68     		ldr	r3, [r3]
 1108 0048 002B     		cmp	r3, #0
 1109 004a 0CD0     		beq	.L71
 1110              		.loc 2 798 0 is_stmt 0 discriminator 1
 1111 004c BB68     		ldr	r3, [r7, #8]
 1112 004e 002B     		cmp	r3, #0
 1113 0050 09D0     		beq	.L71
 1114              		.loc 2 799 0 is_stmt 1
 1115 0052 BB68     		ldr	r3, [r7, #8]
 1116 0054 1B68     		ldr	r3, [r3]
 1117 0056 002B     		cmp	r3, #0
 1118 0058 05D0     		beq	.L71
ARM GAS  C:\Users\Luis\AppData\Local\Temp\ccy8kUqc.s 			page 21


 1119              		.loc 2 800 0 discriminator 1
 1120 005a 7B69     		ldr	r3, [r7, #20]
 1121 005c 1A68     		ldr	r2, [r3]
 1122 005e BB68     		ldr	r3, [r7, #8]
 1123 0060 1B68     		ldr	r3, [r3]
 1124              		.loc 2 799 0 discriminator 1
 1125 0062 9A42     		cmp	r2, r3
 1126 0064 01D1     		bne	.L70
 1127              	.L71:
 1128              		.loc 2 804 0
 1129 0066 F823     		movs	r3, #248
 1130 0068 28E0     		b	.L72
 1131              	.L70:
 1132              		.loc 2 777 0
 1133 006a 7B69     		ldr	r3, [r7, #20]
 1134 006c DB68     		ldr	r3, [r3, #12]
 1135 006e 7B61     		str	r3, [r7, #20]
 1136              	.L67:
 1137              		.loc 2 777 0 is_stmt 0 discriminator 1
 1138 0070 7B69     		ldr	r3, [r7, #20]
 1139 0072 002B     		cmp	r3, #0
 1140 0074 D1D1     		bne	.L73
 1141              		.loc 2 809 0 is_stmt 1
 1142 0076 BB68     		ldr	r3, [r7, #8]
 1143 0078 002B     		cmp	r3, #0
 1144 007a 02D0     		beq	.L74
 1145              		.loc 2 809 0 is_stmt 0 discriminator 1
 1146 007c BB68     		ldr	r3, [r7, #8]
 1147 007e 1B68     		ldr	r3, [r3]
 1148 0080 00E0     		b	.L75
 1149              	.L74:
 1150              		.loc 2 809 0 discriminator 2
 1151 0082 0023     		movs	r3, #0
 1152              	.L75:
 1153              		.loc 2 809 0 discriminator 3
 1154 0084 FA68     		ldr	r2, [r7, #12]
 1155 0086 1360     		str	r3, [r2]
 1156              		.loc 2 812 0 is_stmt 1 discriminator 3
 1157 0088 FB88     		ldrh	r3, [r7, #6]
 1158 008a 002B     		cmp	r3, #0
 1159 008c 08D1     		bne	.L76
 1160              		.loc 2 813 0
 1161 008e FFF7FEFF 		bl	udp_new_port
 1162 0092 0346     		mov	r3, r0
 1163 0094 FB80     		strh	r3, [r7, #6]	@ movhi
 1164              		.loc 2 814 0
 1165 0096 FB88     		ldrh	r3, [r7, #6]
 1166 0098 002B     		cmp	r3, #0
 1167 009a 01D1     		bne	.L76
 1168              		.loc 2 817 0
 1169 009c F823     		movs	r3, #248
 1170 009e 0DE0     		b	.L72
 1171              	.L76:
 1172              		.loc 2 820 0
 1173 00a0 FB68     		ldr	r3, [r7, #12]
 1174 00a2 FA88     		ldrh	r2, [r7, #6]	@ movhi
 1175 00a4 5A82     		strh	r2, [r3, #18]	@ movhi
ARM GAS  C:\Users\Luis\AppData\Local\Temp\ccy8kUqc.s 			page 22


 1176              		.loc 2 823 0
 1177 00a6 FB7C     		ldrb	r3, [r7, #19]	@ zero_extendqisi2
 1178 00a8 002B     		cmp	r3, #0
 1179 00aa 06D1     		bne	.L77
 1180              		.loc 2 825 0
 1181 00ac 064B     		ldr	r3, .L78
 1182 00ae 1A68     		ldr	r2, [r3]
 1183 00b0 FB68     		ldr	r3, [r7, #12]
 1184 00b2 DA60     		str	r2, [r3, #12]
 1185              		.loc 2 826 0
 1186 00b4 044B     		ldr	r3, .L78
 1187 00b6 FA68     		ldr	r2, [r7, #12]
 1188 00b8 1A60     		str	r2, [r3]
 1189              	.L77:
 1190              		.loc 2 833 0
 1191 00ba 0023     		movs	r3, #0
 1192              	.L72:
 1193 00bc 5BB2     		sxtb	r3, r3
 1194              		.loc 2 834 0
 1195 00be 1846     		mov	r0, r3
 1196 00c0 1837     		adds	r7, r7, #24
 1197 00c2 BD46     		mov	sp, r7
 1198              		@ sp needed
 1199 00c4 80BD     		pop	{r7, pc}
 1200              	.L79:
 1201 00c6 00BF     		.align	2
 1202              	.L78:
 1203 00c8 00000000 		.word	udp_pcbs
 1204 00cc 58000000 		.word	.LC3
 1205              		.cfi_endproc
 1206              	.LFE266:
 1207              		.size	udp_bind, .-udp_bind
 1208              		.section	.text.udp_connect,"ax",%progbits
 1209              		.align	2
 1210              		.p2align 4,,15
 1211              		.global	udp_connect
 1212              		.thumb
 1213              		.thumb_func
 1214              		.type	udp_connect, %function
 1215              	udp_connect:
 1216              	.LFB267:
 1217              		.loc 2 854 0
 1218              		.cfi_startproc
 1219              		@ args = 0, pretend = 0, frame = 24
 1220              		@ frame_needed = 1, uses_anonymous_args = 0
 1221 0000 80B5     		push	{r7, lr}
 1222              		.cfi_def_cfa_offset 8
 1223              		.cfi_offset 7, -8
 1224              		.cfi_offset 14, -4
 1225 0002 86B0     		sub	sp, sp, #24
 1226              		.cfi_def_cfa_offset 32
 1227 0004 00AF     		add	r7, sp, #0
 1228              		.cfi_def_cfa_register 7
 1229 0006 F860     		str	r0, [r7, #12]
 1230 0008 B960     		str	r1, [r7, #8]
 1231 000a 1346     		mov	r3, r2
 1232 000c FB80     		strh	r3, [r7, #6]	@ movhi
ARM GAS  C:\Users\Luis\AppData\Local\Temp\ccy8kUqc.s 			page 23


 1233              		.loc 2 857 0
 1234 000e FB68     		ldr	r3, [r7, #12]
 1235 0010 5B8A     		ldrh	r3, [r3, #18]
 1236 0012 002B     		cmp	r3, #0
 1237 0014 0FD1     		bne	.L81
 1238              	.LBB3:
 1239              		.loc 2 858 0
 1240 0016 FA68     		ldr	r2, [r7, #12]
 1241 0018 FB68     		ldr	r3, [r7, #12]
 1242 001a 5B8A     		ldrh	r3, [r3, #18]
 1243 001c F868     		ldr	r0, [r7, #12]
 1244 001e 1146     		mov	r1, r2
 1245 0020 1A46     		mov	r2, r3
 1246 0022 FFF7FEFF 		bl	udp_bind
 1247 0026 0346     		mov	r3, r0
 1248 0028 FB74     		strb	r3, [r7, #19]
 1249              		.loc 2 859 0
 1250 002a 97F91330 		ldrsb	r3, [r7, #19]
 1251 002e 002B     		cmp	r3, #0
 1252 0030 01D0     		beq	.L81
 1253              		.loc 2 860 0
 1254 0032 FB7C     		ldrb	r3, [r7, #19]	@ zero_extendqisi2
 1255 0034 2AE0     		b	.L82
 1256              	.L81:
 1257              	.LBE3:
 1258              		.loc 2 864 0
 1259 0036 BB68     		ldr	r3, [r7, #8]
 1260 0038 002B     		cmp	r3, #0
 1261 003a 02D0     		beq	.L83
 1262              		.loc 2 864 0 is_stmt 0 discriminator 1
 1263 003c BB68     		ldr	r3, [r7, #8]
 1264 003e 1B68     		ldr	r3, [r3]
 1265 0040 00E0     		b	.L84
 1266              	.L83:
 1267              		.loc 2 864 0 discriminator 2
 1268 0042 0023     		movs	r3, #0
 1269              	.L84:
 1270              		.loc 2 864 0 discriminator 3
 1271 0044 FA68     		ldr	r2, [r7, #12]
 1272 0046 5360     		str	r3, [r2, #4]
 1273              		.loc 2 865 0 is_stmt 1 discriminator 3
 1274 0048 FB68     		ldr	r3, [r7, #12]
 1275 004a FA88     		ldrh	r2, [r7, #6]	@ movhi
 1276 004c 9A82     		strh	r2, [r3, #20]	@ movhi
 1277              		.loc 2 866 0 discriminator 3
 1278 004e FB68     		ldr	r3, [r7, #12]
 1279 0050 1B7C     		ldrb	r3, [r3, #16]	@ zero_extendqisi2
 1280 0052 43F00403 		orr	r3, r3, #4
 1281 0056 DAB2     		uxtb	r2, r3
 1282 0058 FB68     		ldr	r3, [r7, #12]
 1283 005a 1A74     		strb	r2, [r3, #16]
 1284              		.loc 2 893 0 discriminator 3
 1285 005c 0E4B     		ldr	r3, .L88
 1286 005e 1B68     		ldr	r3, [r3]
 1287 0060 7B61     		str	r3, [r7, #20]
 1288 0062 08E0     		b	.L85
 1289              	.L87:
ARM GAS  C:\Users\Luis\AppData\Local\Temp\ccy8kUqc.s 			page 24


 1290              		.loc 2 894 0
 1291 0064 FA68     		ldr	r2, [r7, #12]
 1292 0066 7B69     		ldr	r3, [r7, #20]
 1293 0068 9A42     		cmp	r2, r3
 1294 006a 01D1     		bne	.L86
 1295              		.loc 2 896 0
 1296 006c 0023     		movs	r3, #0
 1297 006e 0DE0     		b	.L82
 1298              	.L86:
 1299              		.loc 2 893 0
 1300 0070 7B69     		ldr	r3, [r7, #20]
 1301 0072 DB68     		ldr	r3, [r3, #12]
 1302 0074 7B61     		str	r3, [r7, #20]
 1303              	.L85:
 1304              		.loc 2 893 0 is_stmt 0 discriminator 1
 1305 0076 7B69     		ldr	r3, [r7, #20]
 1306 0078 002B     		cmp	r3, #0
 1307 007a F3D1     		bne	.L87
 1308              		.loc 2 900 0 is_stmt 1
 1309 007c 064B     		ldr	r3, .L88
 1310 007e 1A68     		ldr	r2, [r3]
 1311 0080 FB68     		ldr	r3, [r7, #12]
 1312 0082 DA60     		str	r2, [r3, #12]
 1313              		.loc 2 901 0
 1314 0084 044B     		ldr	r3, .L88
 1315 0086 FA68     		ldr	r2, [r7, #12]
 1316 0088 1A60     		str	r2, [r3]
 1317              		.loc 2 902 0
 1318 008a 0023     		movs	r3, #0
 1319              	.L82:
 1320 008c 5BB2     		sxtb	r3, r3
 1321              		.loc 2 903 0
 1322 008e 1846     		mov	r0, r3
 1323 0090 1837     		adds	r7, r7, #24
 1324 0092 BD46     		mov	sp, r7
 1325              		@ sp needed
 1326 0094 80BD     		pop	{r7, pc}
 1327              	.L89:
 1328 0096 00BF     		.align	2
 1329              	.L88:
 1330 0098 00000000 		.word	udp_pcbs
 1331              		.cfi_endproc
 1332              	.LFE267:
 1333              		.size	udp_connect, .-udp_connect
 1334 009c AFF30080 		.section	.text.udp_disconnect,"ax",%progbits
 1335              		.align	2
 1336              		.p2align 4,,15
 1337              		.global	udp_disconnect
 1338              		.thumb
 1339              		.thumb_func
 1340              		.type	udp_disconnect, %function
 1341              	udp_disconnect:
 1342              	.LFB268:
 1343              		.loc 2 912 0
 1344              		.cfi_startproc
 1345              		@ args = 0, pretend = 0, frame = 8
 1346              		@ frame_needed = 1, uses_anonymous_args = 0
ARM GAS  C:\Users\Luis\AppData\Local\Temp\ccy8kUqc.s 			page 25


 1347              		@ link register save eliminated.
 1348 0000 80B4     		push	{r7}
 1349              		.cfi_def_cfa_offset 4
 1350              		.cfi_offset 7, -4
 1351 0002 83B0     		sub	sp, sp, #12
 1352              		.cfi_def_cfa_offset 16
 1353 0004 00AF     		add	r7, sp, #0
 1354              		.cfi_def_cfa_register 7
 1355 0006 7860     		str	r0, [r7, #4]
 1356              		.loc 2 914 0
 1357 0008 7B68     		ldr	r3, [r7, #4]
 1358 000a 0022     		movs	r2, #0
 1359 000c 5A60     		str	r2, [r3, #4]
 1360              		.loc 2 915 0
 1361 000e 7B68     		ldr	r3, [r7, #4]
 1362 0010 0022     		movs	r2, #0
 1363 0012 9A82     		strh	r2, [r3, #20]	@ movhi
 1364              		.loc 2 917 0
 1365 0014 7B68     		ldr	r3, [r7, #4]
 1366 0016 1B7C     		ldrb	r3, [r3, #16]	@ zero_extendqisi2
 1367 0018 23F00403 		bic	r3, r3, #4
 1368 001c DAB2     		uxtb	r2, r3
 1369 001e 7B68     		ldr	r3, [r7, #4]
 1370 0020 1A74     		strb	r2, [r3, #16]
 1371              		.loc 2 918 0
 1372 0022 0C37     		adds	r7, r7, #12
 1373 0024 BD46     		mov	sp, r7
 1374              		@ sp needed
 1375 0026 5DF8047B 		ldr	r7, [sp], #4
 1376 002a 7047     		bx	lr
 1377              		.cfi_endproc
 1378              	.LFE268:
 1379              		.size	udp_disconnect, .-udp_disconnect
 1380 002c AFF30080 		.section	.text.udp_recv,"ax",%progbits
 1381              		.align	2
 1382              		.p2align 4,,15
 1383              		.global	udp_recv
 1384              		.thumb
 1385              		.thumb_func
 1386              		.type	udp_recv, %function
 1387              	udp_recv:
 1388              	.LFB269:
 1389              		.loc 2 931 0
 1390              		.cfi_startproc
 1391              		@ args = 0, pretend = 0, frame = 16
 1392              		@ frame_needed = 1, uses_anonymous_args = 0
 1393              		@ link register save eliminated.
 1394 0000 80B4     		push	{r7}
 1395              		.cfi_def_cfa_offset 4
 1396              		.cfi_offset 7, -4
 1397 0002 85B0     		sub	sp, sp, #20
 1398              		.cfi_def_cfa_offset 24
 1399 0004 00AF     		add	r7, sp, #0
 1400              		.cfi_def_cfa_register 7
 1401 0006 F860     		str	r0, [r7, #12]
 1402 0008 B960     		str	r1, [r7, #8]
 1403 000a 7A60     		str	r2, [r7, #4]
ARM GAS  C:\Users\Luis\AppData\Local\Temp\ccy8kUqc.s 			page 26


 1404              		.loc 2 933 0
 1405 000c FB68     		ldr	r3, [r7, #12]
 1406 000e BA68     		ldr	r2, [r7, #8]
 1407 0010 9A61     		str	r2, [r3, #24]
 1408              		.loc 2 934 0
 1409 0012 FB68     		ldr	r3, [r7, #12]
 1410 0014 7A68     		ldr	r2, [r7, #4]
 1411 0016 DA61     		str	r2, [r3, #28]
 1412              		.loc 2 935 0
 1413 0018 1437     		adds	r7, r7, #20
 1414 001a BD46     		mov	sp, r7
 1415              		@ sp needed
 1416 001c 5DF8047B 		ldr	r7, [sp], #4
 1417 0020 7047     		bx	lr
 1418              		.cfi_endproc
 1419              	.LFE269:
 1420              		.size	udp_recv, .-udp_recv
 1421 0022 00BFAFF3 		.section	.text.udp_remove,"ax",%progbits
 1421      0080AFF3 
 1421      0080AFF3 
 1421      0080
 1422              		.align	2
 1423              		.p2align 4,,15
 1424              		.global	udp_remove
 1425              		.thumb
 1426              		.thumb_func
 1427              		.type	udp_remove, %function
 1428              	udp_remove:
 1429              	.LFB270:
 1430              		.loc 2 947 0
 1431              		.cfi_startproc
 1432              		@ args = 0, pretend = 0, frame = 16
 1433              		@ frame_needed = 1, uses_anonymous_args = 0
 1434 0000 80B5     		push	{r7, lr}
 1435              		.cfi_def_cfa_offset 8
 1436              		.cfi_offset 7, -8
 1437              		.cfi_offset 14, -4
 1438 0002 84B0     		sub	sp, sp, #16
 1439              		.cfi_def_cfa_offset 24
 1440 0004 00AF     		add	r7, sp, #0
 1441              		.cfi_def_cfa_register 7
 1442 0006 7860     		str	r0, [r7, #4]
 1443              		.loc 2 952 0
 1444 0008 144B     		ldr	r3, .L98
 1445 000a 1A68     		ldr	r2, [r3]
 1446 000c 7B68     		ldr	r3, [r7, #4]
 1447 000e 9A42     		cmp	r2, r3
 1448 0010 05D1     		bne	.L93
 1449              		.loc 2 954 0
 1450 0012 124B     		ldr	r3, .L98
 1451 0014 1B68     		ldr	r3, [r3]
 1452 0016 DA68     		ldr	r2, [r3, #12]
 1453 0018 104B     		ldr	r3, .L98
 1454 001a 1A60     		str	r2, [r3]
 1455 001c 16E0     		b	.L94
 1456              	.L93:
 1457              		.loc 2 957 0
ARM GAS  C:\Users\Luis\AppData\Local\Temp\ccy8kUqc.s 			page 27


 1458 001e 0F4B     		ldr	r3, .L98
 1459 0020 1B68     		ldr	r3, [r3]
 1460 0022 FB60     		str	r3, [r7, #12]
 1461 0024 0FE0     		b	.L95
 1462              	.L97:
 1463              		.loc 2 959 0
 1464 0026 FB68     		ldr	r3, [r7, #12]
 1465 0028 DB68     		ldr	r3, [r3, #12]
 1466 002a 002B     		cmp	r3, #0
 1467 002c 08D0     		beq	.L96
 1468              		.loc 2 959 0 is_stmt 0 discriminator 1
 1469 002e FB68     		ldr	r3, [r7, #12]
 1470 0030 DA68     		ldr	r2, [r3, #12]
 1471 0032 7B68     		ldr	r3, [r7, #4]
 1472 0034 9A42     		cmp	r2, r3
 1473 0036 03D1     		bne	.L96
 1474              		.loc 2 961 0 is_stmt 1
 1475 0038 7B68     		ldr	r3, [r7, #4]
 1476 003a DA68     		ldr	r2, [r3, #12]
 1477 003c FB68     		ldr	r3, [r7, #12]
 1478 003e DA60     		str	r2, [r3, #12]
 1479              	.L96:
 1480              		.loc 2 957 0
 1481 0040 FB68     		ldr	r3, [r7, #12]
 1482 0042 DB68     		ldr	r3, [r3, #12]
 1483 0044 FB60     		str	r3, [r7, #12]
 1484              	.L95:
 1485              		.loc 2 957 0 is_stmt 0 discriminator 1
 1486 0046 FB68     		ldr	r3, [r7, #12]
 1487 0048 002B     		cmp	r3, #0
 1488 004a ECD1     		bne	.L97
 1489              	.L94:
 1490              		.loc 2 965 0 is_stmt 1
 1491 004c 0120     		movs	r0, #1
 1492 004e 7968     		ldr	r1, [r7, #4]
 1493 0050 FFF7FEFF 		bl	memp_free
 1494              		.loc 2 966 0
 1495 0054 1037     		adds	r7, r7, #16
 1496 0056 BD46     		mov	sp, r7
 1497              		@ sp needed
 1498 0058 80BD     		pop	{r7, pc}
 1499              	.L99:
 1500 005a 00BF     		.align	2
 1501              	.L98:
 1502 005c 00000000 		.word	udp_pcbs
 1503              		.cfi_endproc
 1504              	.LFE270:
 1505              		.size	udp_remove, .-udp_remove
 1506              		.section	.text.udp_new,"ax",%progbits
 1507              		.align	2
 1508              		.p2align 4,,15
 1509              		.global	udp_new
 1510              		.thumb
 1511              		.thumb_func
 1512              		.type	udp_new, %function
 1513              	udp_new:
 1514              	.LFB271:
ARM GAS  C:\Users\Luis\AppData\Local\Temp\ccy8kUqc.s 			page 28


 1515              		.loc 2 978 0
 1516              		.cfi_startproc
 1517              		@ args = 0, pretend = 0, frame = 8
 1518              		@ frame_needed = 1, uses_anonymous_args = 0
 1519 0000 80B5     		push	{r7, lr}
 1520              		.cfi_def_cfa_offset 8
 1521              		.cfi_offset 7, -8
 1522              		.cfi_offset 14, -4
 1523 0002 82B0     		sub	sp, sp, #8
 1524              		.cfi_def_cfa_offset 16
 1525 0004 00AF     		add	r7, sp, #0
 1526              		.cfi_def_cfa_register 7
 1527              		.loc 2 980 0
 1528 0006 0120     		movs	r0, #1
 1529 0008 FFF7FEFF 		bl	memp_malloc
 1530 000c 7860     		str	r0, [r7, #4]
 1531              		.loc 2 982 0
 1532 000e 7B68     		ldr	r3, [r7, #4]
 1533 0010 002B     		cmp	r3, #0
 1534 0012 07D0     		beq	.L101
 1535              		.loc 2 987 0
 1536 0014 7868     		ldr	r0, [r7, #4]
 1537 0016 0021     		movs	r1, #0
 1538 0018 2022     		movs	r2, #32
 1539 001a FFF7FEFF 		bl	memset
 1540              		.loc 2 988 0
 1541 001e 7B68     		ldr	r3, [r7, #4]
 1542 0020 FF22     		movs	r2, #255
 1543 0022 9A72     		strb	r2, [r3, #10]
 1544              	.L101:
 1545              		.loc 2 990 0
 1546 0024 7B68     		ldr	r3, [r7, #4]
 1547              		.loc 2 991 0
 1548 0026 1846     		mov	r0, r3
 1549 0028 0837     		adds	r7, r7, #8
 1550 002a BD46     		mov	sp, r7
 1551              		@ sp needed
 1552 002c 80BD     		pop	{r7, pc}
 1553              		.cfi_endproc
 1554              	.LFE271:
 1555              		.size	udp_new, .-udp_new
 1556 002e 00BF     		.text
 1557              	.Letext0:
 1558              		.file 3 "c:\\emtechesdk\\gcc\\lib\\gcc\\arm-none-eabi\\4.8.3\\include\\stddef.h"
 1559              		.file 4 "c:\\emtechesdk\\gcc\\arm-none-eabi\\include\\stdint.h"
 1560              		.file 5 "../../ChibiOS/os/rt/ports/ARMCMx/compilers/GCC/chtypes.h"
 1561              		.file 6 "../../ChibiOS/os/rt/include/chsystypes.h"
 1562              		.file 7 "../../ChibiOS/os/rt/include/chschd.h"
 1563              		.file 8 "../../ChibiOS/os/rt/ports/ARMCMx/chcore.h"
 1564              		.file 9 "../../ChibiOS/os/rt/ports/ARMCMx/chcore_v7m.h"
 1565              		.file 10 "../../ChibiOS/os/rt/include/chdebug.h"
 1566              		.file 11 "../../ChibiOS/os/rt/include/chtm.h"
 1567              		.file 12 "../../ChibiOS/os/rt/include/chstats.h"
 1568              		.file 13 "../../ChibiOS/os/rt/include/chsem.h"
 1569              		.file 14 "../../ChibiOS/os/rt/include/chmtx.h"
 1570              		.file 15 "../../ChibiOS/os/various/lwip_bindings/arch/cc.h"
 1571              		.file 16 "../../ChibiOS/ext/lwip/src/include/lwip/err.h"
ARM GAS  C:\Users\Luis\AppData\Local\Temp\ccy8kUqc.s 			page 29


 1572              		.file 17 "../../ChibiOS/ext/lwip/src/include/lwip/pbuf.h"
 1573              		.file 18 "../../ChibiOS/ext/lwip/src/include/ipv4/lwip/ip_addr.h"
 1574              		.file 19 "../../ChibiOS/ext/lwip/src/include/lwip/netif.h"
 1575              		.file 20 "../../ChibiOS/ext/lwip/src/include/ipv4/lwip/ip.h"
 1576              		.file 21 "../../ChibiOS/ext/lwip/src/include/lwip/udp.h"
 1577              		.file 22 "../../ChibiOS/ext/lwip/src/include/lwip/memp.h"
 1578              		.file 23 "../../ChibiOS/ext/lwip/src/include/lwip/mem.h"
 1579              		.file 24 "../../ChibiOS/ext/lwip/src/include/lwip/stats.h"
 1580              		.file 25 "../../ChibiOS/os/ext/CMSIS/include/core_cm4.h"
 1581              		.file 26 "../../ChibiOS/ext/lwip/src/include/ipv4/lwip/icmp.h"