ARM GAS  C:\Users\Luis\AppData\Local\Temp\ccb1FswK.s 			page 1


   1              		.syntax unified
   2              		.cpu cortex-m4
   3              		.fpu softvfp
   4              		.eabi_attribute 20, 1
   5              		.eabi_attribute 21, 1
   6              		.eabi_attribute 23, 3
   7              		.eabi_attribute 24, 1
   8              		.eabi_attribute 25, 1
   9              		.eabi_attribute 26, 1
  10              		.eabi_attribute 30, 6
  11              		.eabi_attribute 34, 1
  12              		.eabi_attribute 18, 4
  13              		.thumb
  14              		.file	"web.c"
  15              		.text
  16              	.Ltext0:
  17              		.cfi_sections	.debug_frame
  18              		.section	.text.osalSysHalt,"ax",%progbits
  19              		.align	2
  20              		.p2align 4,,15
  21              		.thumb
  22              		.thumb_func
  23              		.type	osalSysHalt, %function
  24              	osalSysHalt:
  25              	.LFB230:
  26              		.file 1 "../../ChibiOS/os/hal/osal/rt/osal.h"
  27              		.loc 1 460 0
  28              		.cfi_startproc
  29              		@ args = 0, pretend = 0, frame = 8
  30              		@ frame_needed = 1, uses_anonymous_args = 0
  31 0000 80B5     		push	{r7, lr}
  32              		.cfi_def_cfa_offset 8
  33              		.cfi_offset 7, -8
  34              		.cfi_offset 14, -4
  35 0002 82B0     		sub	sp, sp, #8
  36              		.cfi_def_cfa_offset 16
  37 0004 00AF     		add	r7, sp, #0
  38              		.cfi_def_cfa_register 7
  39 0006 7860     		str	r0, [r7, #4]
  40              		.loc 1 462 0
  41 0008 7868     		ldr	r0, [r7, #4]
  42 000a FFF7FEFF 		bl	chSysHalt
  43              		.loc 1 463 0
  44 000e 0837     		adds	r7, r7, #8
  45 0010 BD46     		mov	sp, r7
  46              		@ sp needed
  47 0012 80BD     		pop	{r7, pc}
  48              		.cfi_endproc
  49              	.LFE230:
  50              		.size	osalSysHalt, .-osalSysHalt
  51 0014 AFF30080 		.section	.text.chprintf,"ax",%progbits
  51      AFF30080 
  51      AFF30080 
  52              		.align	2
  53              		.p2align 4,,15
  54              		.thumb
  55              		.thumb_func
ARM GAS  C:\Users\Luis\AppData\Local\Temp\ccb1FswK.s 			page 2


  56              		.type	chprintf, %function
  57              	chprintf:
  58              	.LFB260:
  59              		.file 2 "../../ChibiOS/os/hal/lib/streams/chprintf.h"
  60              		.loc 2 69 0
  61              		.cfi_startproc
  62              		@ args = 4, pretend = 12, frame = 16
  63              		@ frame_needed = 1, uses_anonymous_args = 1
  64 0000 0EB4     		push	{r1, r2, r3}
  65              		.cfi_def_cfa_offset 12
  66              		.cfi_offset 1, -12
  67              		.cfi_offset 2, -8
  68              		.cfi_offset 3, -4
  69 0002 80B5     		push	{r7, lr}
  70              		.cfi_def_cfa_offset 20
  71              		.cfi_offset 7, -20
  72              		.cfi_offset 14, -16
  73 0004 85B0     		sub	sp, sp, #20
  74              		.cfi_def_cfa_offset 40
  75 0006 00AF     		add	r7, sp, #0
  76              		.cfi_def_cfa_register 7
  77 0008 7860     		str	r0, [r7, #4]
  78              		.loc 2 73 0
  79 000a 07F12003 		add	r3, r7, #32
  80 000e BB60     		str	r3, [r7, #8]
  81              		.loc 2 74 0
  82 0010 7868     		ldr	r0, [r7, #4]
  83 0012 F969     		ldr	r1, [r7, #28]
  84 0014 BA68     		ldr	r2, [r7, #8]
  85 0016 FFF7FEFF 		bl	chvprintf
  86 001a F860     		str	r0, [r7, #12]
  87              		.loc 2 77 0
  88 001c FB68     		ldr	r3, [r7, #12]
  89              		.loc 2 78 0
  90 001e 1846     		mov	r0, r3
  91 0020 1437     		adds	r7, r7, #20
  92 0022 BD46     		mov	sp, r7
  93              		@ sp needed
  94 0024 BDE88040 		pop	{r7, lr}
  95 0028 03B0     		add	sp, sp, #12
  96 002a 7047     		bx	lr
  97              		.cfi_endproc
  98              	.LFE260:
  99              		.size	chprintf, .-chprintf
 100 002c AFF30080 		.section	.rodata.http_index_html,"a",%progbits
 101              		.align	2
 102              		.type	http_index_html, %object
 103              		.size	http_index_html, 122
 104              	http_index_html:
 105 0000 3C68746D 		.ascii	"<html><head><title>Demo LWIP</title></head><body><h"
 105      6C3E3C68 
 105      6561643E 
 105      3C746974 
 105      6C653E44 
 106 0033 313E4C77 		.ascii	"1>LwIP HTTP server!</h1><p>Esta es una p\341gina de"
 106      49502048 
 106      54545020 
ARM GAS  C:\Users\Luis\AppData\Local\Temp\ccb1FswK.s 			page 3


 106      73657276 
 106      6572213C 
 107 0063 20707275 		.ascii	" pruebas</body></html>\000"
 107      65626173 
 107      3C2F626F 
 107      64793E3C 
 107      2F68746D 
 108 007a 0000     		.section	.rodata
 109              		.align	2
 110              	.LC0:
 111 0000 47455420 		.ascii	"GET /\000"
 111      2F00
 112              		.section	.text.http_server_serve,"ax",%progbits
 113              		.align	2
 114              		.p2align 4,,15
 115              		.thumb
 116              		.thumb_func
 117              		.type	http_server_serve, %function
 118              	http_server_serve:
 119              	.LFB261:
 120              		.file 3 "web/web.c"
 121              		.loc 3 46 0
 122              		.cfi_startproc
 123              		@ args = 0, pretend = 0, frame = 24
 124              		@ frame_needed = 1, uses_anonymous_args = 0
 125 0000 80B5     		push	{r7, lr}
 126              		.cfi_def_cfa_offset 8
 127              		.cfi_offset 7, -8
 128              		.cfi_offset 14, -4
 129 0002 88B0     		sub	sp, sp, #32
 130              		.cfi_def_cfa_offset 40
 131 0004 02AF     		add	r7, sp, #8
 132              		.cfi_def_cfa 7, 32
 133 0006 7860     		str	r0, [r7, #4]
 134              		.loc 3 54 0
 135 0008 07F11003 		add	r3, r7, #16
 136 000c 7868     		ldr	r0, [r7, #4]
 137 000e 1946     		mov	r1, r3
 138 0010 FFF7FEFF 		bl	netconn_recv
 139 0014 0346     		mov	r3, r0
 140 0016 FB75     		strb	r3, [r7, #23]
 141              		.loc 3 56 0
 142 0018 97F91730 		ldrsb	r3, [r7, #23]
 143 001c 002B     		cmp	r3, #0
 144 001e 1DD1     		bne	.L5
 145              	.LBB2:
 146              		.loc 3 57 0
 147 0020 3969     		ldr	r1, [r7, #16]
 148 0022 07F10C02 		add	r2, r7, #12
 149 0026 07F10A03 		add	r3, r7, #10
 150 002a 0846     		mov	r0, r1
 151 002c 1146     		mov	r1, r2
 152 002e 1A46     		mov	r2, r3
 153 0030 FFF7FEFF 		bl	netbuf_data
 154              		.loc 3 61 0
 155 0034 7B89     		ldrh	r3, [r7, #10]
 156 0036 042B     		cmp	r3, #4
ARM GAS  C:\Users\Luis\AppData\Local\Temp\ccb1FswK.s 			page 4


 157 0038 10D9     		bls	.L5
 158              		.loc 3 61 0 is_stmt 0 discriminator 1
 159 003a FB68     		ldr	r3, [r7, #12]
 160 003c 1846     		mov	r0, r3
 161 003e 0C49     		ldr	r1, .L6
 162 0040 0522     		movs	r2, #5
 163 0042 FFF7FEFF 		bl	strncmp
 164 0046 0346     		mov	r3, r0
 165 0048 002B     		cmp	r3, #0
 166 004a 07D1     		bne	.L5
 167              		.loc 3 64 0 is_stmt 1
 168 004c 0023     		movs	r3, #0
 169 004e 0093     		str	r3, [sp]
 170 0050 7868     		ldr	r0, [r7, #4]
 171 0052 0849     		ldr	r1, .L6+4
 172 0054 7922     		movs	r2, #121
 173 0056 0023     		movs	r3, #0
 174 0058 FFF7FEFF 		bl	netconn_write_partly
 175              	.L5:
 176              	.LBE2:
 177              		.loc 3 68 0
 178 005c 7868     		ldr	r0, [r7, #4]
 179 005e FFF7FEFF 		bl	netconn_close
 180              		.loc 3 72 0
 181 0062 3B69     		ldr	r3, [r7, #16]
 182 0064 1846     		mov	r0, r3
 183 0066 FFF7FEFF 		bl	netbuf_delete
 184              		.loc 3 73 0
 185 006a 1837     		adds	r7, r7, #24
 186 006c BD46     		mov	sp, r7
 187              		@ sp needed
 188 006e 80BD     		pop	{r7, pc}
 189              	.L7:
 190              		.align	2
 191              	.L6:
 192 0070 00000000 		.word	.LC0
 193 0074 00000000 		.word	http_index_html
 194              		.cfi_endproc
 195              	.LFE261:
 196              		.size	http_server_serve, .-http_server_serve
 197              		.global	wa_http_server
 198 0078 AFF30080 		.section	.bss.wa_http_server,"aw",%nobits
 198      AFF30080 
 199              		.align	3
 200              		.type	wa_http_server, %object
 201              		.size	wa_http_server, 1264
 202              	wa_http_server:
 203 0000 00000000 		.space	1264
 203      00000000 
 203      00000000 
 203      00000000 
 203      00000000 
 204              		.section	.rodata
 205 0006 0000     		.align	2
 206              	.LC1:
 207 0008 68747470 		.ascii	"http_server: invalid conn\000"
 207      5F736572 
ARM GAS  C:\Users\Luis\AppData\Local\Temp\ccb1FswK.s 			page 5


 207      7665723A 
 207      20696E76 
 207      616C6964 
 208 0022 0000     		.align	2
 209              	.LC2:
 210 0024 3139322E 		.ascii	"192.168.2.5\000"
 210      3136382E 
 210      322E3500 
 211              		.align	2
 212              	.LC3:
 213 0030 49503A20 		.ascii	"IP: %s\000"
 213      257300
 214 0037 00       		.section	.text.http_server,"ax",%progbits
 215              		.align	2
 216              		.p2align 4,,15
 217              		.global	http_server
 218              		.thumb
 219              		.thumb_func
 220              		.type	http_server, %function
 221              	http_server:
 222              	.LFB262:
 223              		.loc 3 83 0
 224              		.cfi_startproc
 225              		@ args = 0, pretend = 0, frame = 24
 226              		@ frame_needed = 1, uses_anonymous_args = 0
 227 0000 80B5     		push	{r7, lr}
 228              		.cfi_def_cfa_offset 8
 229              		.cfi_offset 7, -8
 230              		.cfi_offset 14, -4
 231 0002 86B0     		sub	sp, sp, #24
 232              		.cfi_def_cfa_offset 32
 233 0004 00AF     		add	r7, sp, #0
 234              		.cfi_def_cfa_register 7
 235 0006 7860     		str	r0, [r7, #4]
 236              		.loc 3 90 0
 237 0008 1020     		movs	r0, #16
 238 000a 0021     		movs	r1, #0
 239 000c 0022     		movs	r2, #0
 240 000e FFF7FEFF 		bl	netconn_new_with_proto_and_callback
 241 0012 7861     		str	r0, [r7, #20]
 242              		.loc 3 91 0
 243 0014 7B69     		ldr	r3, [r7, #20]
 244 0016 002B     		cmp	r3, #0
 245 0018 06D1     		bne	.L9
 246              		.loc 3 91 0 is_stmt 0 discriminator 1
 247 001a 1948     		ldr	r0, .L13
 248 001c FFF7FEFF 		bl	osalSysHalt
 249 0020 6FF00100 		mvn	r0, #1
 250 0024 FFF7FEFF 		bl	chThdExit
 251              	.L9:
 252              		.loc 3 94 0 is_stmt 1
 253 0028 164B     		ldr	r3, .L13+4
 254 002a 3B61     		str	r3, [r7, #16]
 255              		.loc 3 95 0
 256 002c 7869     		ldr	r0, [r7, #20]
 257 002e 0021     		movs	r1, #0
 258 0030 5022     		movs	r2, #80
ARM GAS  C:\Users\Luis\AppData\Local\Temp\ccb1FswK.s 			page 6


 259 0032 FFF7FEFF 		bl	netconn_bind
 260              		.loc 3 98 0
 261 0036 7869     		ldr	r0, [r7, #20]
 262 0038 FF21     		movs	r1, #255
 263 003a FFF7FEFF 		bl	netconn_listen_with_backlog
 264              		.loc 3 101 0
 265 003e 0420     		movs	r0, #4
 266 0040 FFF7FEFF 		bl	chThdSetPriority
 267              		.loc 3 103 0
 268 0044 7B69     		ldr	r3, [r7, #20]
 269 0046 5B68     		ldr	r3, [r3, #4]
 270 0048 0F48     		ldr	r0, .L13+8
 271 004a 1049     		ldr	r1, .L13+12
 272 004c 1A46     		mov	r2, r3
 273 004e FFF7FEFF 		bl	chprintf
 274              	.L12:
 275              		.loc 3 106 0
 276 0052 07F10803 		add	r3, r7, #8
 277 0056 7869     		ldr	r0, [r7, #20]
 278 0058 1946     		mov	r1, r3
 279 005a FFF7FEFF 		bl	netconn_accept
 280 005e 0346     		mov	r3, r0
 281 0060 FB73     		strb	r3, [r7, #15]
 282              		.loc 3 107 0
 283 0062 97F90F30 		ldrsb	r3, [r7, #15]
 284 0066 002B     		cmp	r3, #0
 285 0068 01D0     		beq	.L10
 286              		.loc 3 108 0
 287 006a 00BF     		nop
 288              		.loc 3 111 0
 289 006c F1E7     		b	.L12
 290              	.L10:
 291              		.loc 3 109 0
 292 006e BB68     		ldr	r3, [r7, #8]
 293 0070 1846     		mov	r0, r3
 294 0072 FFF7FEFF 		bl	http_server_serve
 295              		.loc 3 110 0
 296 0076 BB68     		ldr	r3, [r7, #8]
 297 0078 1846     		mov	r0, r3
 298 007a FFF7FEFF 		bl	netconn_delete
 299              		.loc 3 111 0
 300 007e E8E7     		b	.L12
 301              	.L14:
 302              		.align	2
 303              	.L13:
 304 0080 08000000 		.word	.LC1
 305 0084 24000000 		.word	.LC2
 306 0088 00000000 		.word	SD1
 307 008c 30000000 		.word	.LC3
 308              		.cfi_endproc
 309              	.LFE262:
 310              		.size	http_server, .-http_server
 311              		.text
 312              	.Letext0:
 313              		.file 4 "c:\\emtechesdk\\gcc\\lib\\gcc\\arm-none-eabi\\4.8.3\\include\\stddef.h"
 314              		.file 5 "c:\\emtechesdk\\gcc\\arm-none-eabi\\include\\stdint.h"
 315              		.file 6 "../../ChibiOS/os/rt/ports/ARMCMx/compilers/GCC/chtypes.h"
ARM GAS  C:\Users\Luis\AppData\Local\Temp\ccb1FswK.s 			page 7


 316              		.file 7 "../../ChibiOS/os/rt/include/chsystypes.h"
 317              		.file 8 "../../ChibiOS/os/rt/include/chschd.h"
 318              		.file 9 "../../ChibiOS/os/ext/CMSIS/ST/stm32f407xx.h"
 319              		.file 10 "../../ChibiOS/os/rt/ports/ARMCMx/chcore.h"
 320              		.file 11 "../../ChibiOS/os/rt/ports/ARMCMx/chcore_v7m.h"
 321              		.file 12 "../../ChibiOS/os/rt/include/chdebug.h"
 322              		.file 13 "../../ChibiOS/os/rt/include/chtm.h"
 323              		.file 14 "../../ChibiOS/os/rt/include/chstats.h"
 324              		.file 15 "../../ChibiOS/os/rt/include/chsem.h"
 325              		.file 16 "../../ChibiOS/os/rt/include/chmtx.h"
 326              		.file 17 "../../ChibiOS/os/rt/include/chevents.h"
 327              		.file 18 "../../ChibiOS/os/rt/include/chmboxes.h"
 328              		.file 19 "../../ChibiOS/os/rt/include/chqueues.h"
 329              		.file 20 "../../ChibiOS/os/rt/include/chstreams.h"
 330              		.file 21 "../../ChibiOS/os/hal/include/serial.h"
 331              		.file 22 "../../ChibiOS/os/various/lwip_bindings/arch/cc.h"
 332              		.file 23 "../../ChibiOS/ext/lwip/src/include/lwip/err.h"
 333              		.file 24 "../../ChibiOS/ext/lwip/src/include/lwip/pbuf.h"
 334              		.file 25 "../../ChibiOS/ext/lwip/src/include/ipv4/lwip/ip_addr.h"
 335              		.file 26 "../../ChibiOS/ext/lwip/src/include/lwip/netbuf.h"
 336              		.file 27 "../../ChibiOS/os/various/lwip_bindings/arch/sys_arch.h"
 337              		.file 28 "../../ChibiOS/ext/lwip/src/include/lwip/api.h"
 338              		.file 29 "c:\\emtechesdk\\gcc\\lib\\gcc\\arm-none-eabi\\4.8.3\\include\\stdarg.h"
 339              		.file 30 "<built-in>"
 340              		.file 31 "../../ChibiOS/os/hal/ports/STM32/LLD/USARTv1/serial_lld.h"
 341              		.file 32 "../../ChibiOS/os/ext/CMSIS/include/core_cm4.h"
 342              		.section	.debug_info,"",%progbits
 343              	.Ldebug_info0:
 344 0000 36110000 		.4byte	0x1136
 345 0004 0400     		.2byte	0x4
 346 0006 00000000 		.4byte	.Ldebug_abbrev0
 347 000a 04       		.byte	0x4
 348 000b 01       		.uleb128 0x1
 349 000c BE010000 		.4byte	.LASF249
 350 0010 01       		.byte	0x1
 351 0011 FB080000 		.4byte	.LASF250
 352 0015 00000000 		.4byte	.LASF251
 353 0019 00000000 		.4byte	.Ldebug_ranges0+0
 354 001d 00000000 		.4byte	0
 355 0021 00000000 		.4byte	.Ldebug_line0
 356 0025 02       		.uleb128 0x2
 357 0026 04       		.byte	0x4
 358 0027 05       		.byte	0x5
 359 0028 696E7400 		.ascii	"int\000"
 360 002c 03       		.uleb128 0x3
 361 002d A1040000 		.4byte	.LASF1
 362 0031 04       		.byte	0x4
 363 0032 D4       		.byte	0xd4
 364 0033 37000000 		.4byte	0x37
 365 0037 04       		.uleb128 0x4
 366 0038 04       		.byte	0x4
 367 0039 07       		.byte	0x7
 368 003a 16010000 		.4byte	.LASF0
 369 003e 03       		.uleb128 0x3
 370 003f 1D030000 		.4byte	.LASF2
 371 0043 05       		.byte	0x5
 372 0044 29       		.byte	0x29
ARM GAS  C:\Users\Luis\AppData\Local\Temp\ccb1FswK.s 			page 8


 373 0045 49000000 		.4byte	0x49
 374 0049 04       		.uleb128 0x4
 375 004a 01       		.byte	0x1
 376 004b 06       		.byte	0x6
 377 004c 7D0A0000 		.4byte	.LASF3
 378 0050 03       		.uleb128 0x3
 379 0051 08060000 		.4byte	.LASF4
 380 0055 05       		.byte	0x5
 381 0056 2A       		.byte	0x2a
 382 0057 5B000000 		.4byte	0x5b
 383 005b 04       		.uleb128 0x4
 384 005c 01       		.byte	0x1
 385 005d 08       		.byte	0x8
 386 005e A2090000 		.4byte	.LASF5
 387 0062 04       		.uleb128 0x4
 388 0063 02       		.byte	0x2
 389 0064 05       		.byte	0x5
 390 0065 17080000 		.4byte	.LASF6
 391 0069 03       		.uleb128 0x3
 392 006a AB070000 		.4byte	.LASF7
 393 006e 05       		.byte	0x5
 394 006f 36       		.byte	0x36
 395 0070 74000000 		.4byte	0x74
 396 0074 04       		.uleb128 0x4
 397 0075 02       		.byte	0x2
 398 0076 07       		.byte	0x7
 399 0077 91070000 		.4byte	.LASF8
 400 007b 03       		.uleb128 0x3
 401 007c 48090000 		.4byte	.LASF9
 402 0080 05       		.byte	0x5
 403 0081 4F       		.byte	0x4f
 404 0082 86000000 		.4byte	0x86
 405 0086 04       		.uleb128 0x4
 406 0087 04       		.byte	0x4
 407 0088 05       		.byte	0x5
 408 0089 47080000 		.4byte	.LASF10
 409 008d 03       		.uleb128 0x3
 410 008e 14030000 		.4byte	.LASF11
 411 0092 05       		.byte	0x5
 412 0093 50       		.byte	0x50
 413 0094 98000000 		.4byte	0x98
 414 0098 04       		.uleb128 0x4
 415 0099 04       		.byte	0x4
 416 009a 07       		.byte	0x7
 417 009b 40070000 		.4byte	.LASF12
 418 009f 04       		.uleb128 0x4
 419 00a0 08       		.byte	0x8
 420 00a1 05       		.byte	0x5
 421 00a2 DD050000 		.4byte	.LASF13
 422 00a6 03       		.uleb128 0x3
 423 00a7 91080000 		.4byte	.LASF14
 424 00ab 05       		.byte	0x5
 425 00ac 78       		.byte	0x78
 426 00ad B1000000 		.4byte	0xb1
 427 00b1 04       		.uleb128 0x4
 428 00b2 08       		.byte	0x8
 429 00b3 07       		.byte	0x7
ARM GAS  C:\Users\Luis\AppData\Local\Temp\ccb1FswK.s 			page 9


 430 00b4 B4030000 		.4byte	.LASF15
 431 00b8 05       		.uleb128 0x5
 432 00b9 7B000000 		.4byte	0x7b
 433 00bd 05       		.uleb128 0x5
 434 00be 8D000000 		.4byte	0x8d
 435 00c2 03       		.uleb128 0x3
 436 00c3 C1070000 		.4byte	.LASF16
 437 00c7 06       		.byte	0x6
 438 00c8 45       		.byte	0x45
 439 00c9 8D000000 		.4byte	0x8d
 440 00cd 03       		.uleb128 0x3
 441 00ce B1050000 		.4byte	.LASF17
 442 00d2 06       		.byte	0x6
 443 00d3 46       		.byte	0x46
 444 00d4 A6000000 		.4byte	0xa6
 445 00d8 03       		.uleb128 0x3
 446 00d9 77070000 		.4byte	.LASF18
 447 00dd 06       		.byte	0x6
 448 00de 48       		.byte	0x48
 449 00df 50000000 		.4byte	0x50
 450 00e3 03       		.uleb128 0x3
 451 00e4 CE050000 		.4byte	.LASF19
 452 00e8 06       		.byte	0x6
 453 00e9 49       		.byte	0x49
 454 00ea 50000000 		.4byte	0x50
 455 00ee 03       		.uleb128 0x3
 456 00ef 22090000 		.4byte	.LASF20
 457 00f3 06       		.byte	0x6
 458 00f4 4A       		.byte	0x4a
 459 00f5 50000000 		.4byte	0x50
 460 00f9 03       		.uleb128 0x3
 461 00fa 93030000 		.4byte	.LASF21
 462 00fe 06       		.byte	0x6
 463 00ff 4C       		.byte	0x4c
 464 0100 8D000000 		.4byte	0x8d
 465 0104 03       		.uleb128 0x3
 466 0105 CC060000 		.4byte	.LASF22
 467 0109 06       		.byte	0x6
 468 010a 4D       		.byte	0x4d
 469 010b 7B000000 		.4byte	0x7b
 470 010f 03       		.uleb128 0x3
 471 0110 3D030000 		.4byte	.LASF23
 472 0114 06       		.byte	0x6
 473 0115 4F       		.byte	0x4f
 474 0116 8D000000 		.4byte	0x8d
 475 011a 03       		.uleb128 0x3
 476 011b 52070000 		.4byte	.LASF24
 477 011f 06       		.byte	0x6
 478 0120 50       		.byte	0x50
 479 0121 8D000000 		.4byte	0x8d
 480 0125 03       		.uleb128 0x3
 481 0126 C6060000 		.4byte	.LASF25
 482 012a 06       		.byte	0x6
 483 012b 51       		.byte	0x51
 484 012c 7B000000 		.4byte	0x7b
 485 0130 03       		.uleb128 0x3
 486 0131 7F070000 		.4byte	.LASF26
ARM GAS  C:\Users\Luis\AppData\Local\Temp\ccb1FswK.s 			page 10


 487 0135 06       		.byte	0x6
 488 0136 52       		.byte	0x52
 489 0137 8D000000 		.4byte	0x8d
 490 013b 03       		.uleb128 0x3
 491 013c E0000000 		.4byte	.LASF27
 492 0140 07       		.byte	0x7
 493 0141 33       		.byte	0x33
 494 0142 8D000000 		.4byte	0x8d
 495 0146 03       		.uleb128 0x3
 496 0147 66040000 		.4byte	.LASF28
 497 014b 07       		.byte	0x7
 498 014c 3F       		.byte	0x3f
 499 014d 51010000 		.4byte	0x151
 500 0151 06       		.uleb128 0x6
 501 0152 59060000 		.4byte	.LASF51
 502 0156 68       		.byte	0x68
 503 0157 08       		.byte	0x8
 504 0158 C2       		.byte	0xc2
 505 0159 64020000 		.4byte	0x264
 506 015d 07       		.uleb128 0x7
 507 015e 8A080000 		.4byte	.LASF29
 508 0162 08       		.byte	0x8
 509 0163 C3       		.byte	0xc3
 510 0164 6F020000 		.4byte	0x26f
 511 0168 00       		.byte	0
 512 0169 07       		.uleb128 0x7
 513 016a 10090000 		.4byte	.LASF30
 514 016e 08       		.byte	0x8
 515 016f C5       		.byte	0xc5
 516 0170 6F020000 		.4byte	0x26f
 517 0174 04       		.byte	0x4
 518 0175 07       		.uleb128 0x7
 519 0176 B1000000 		.4byte	.LASF31
 520 017a 08       		.byte	0x8
 521 017b C7       		.byte	0xc7
 522 017c F9000000 		.4byte	0xf9
 523 0180 08       		.byte	0x8
 524 0181 07       		.uleb128 0x7
 525 0182 9A080000 		.4byte	.LASF32
 526 0186 08       		.byte	0x8
 527 0187 C8       		.byte	0xc8
 528 0188 47050000 		.4byte	0x547
 529 018c 0C       		.byte	0xc
 530 018d 07       		.uleb128 0x7
 531 018e 2B040000 		.4byte	.LASF33
 532 0192 08       		.byte	0x8
 533 0193 CA       		.byte	0xca
 534 0194 6F020000 		.4byte	0x26f
 535 0198 10       		.byte	0x10
 536 0199 07       		.uleb128 0x7
 537 019a EB050000 		.4byte	.LASF34
 538 019e 08       		.byte	0x8
 539 019f CB       		.byte	0xcb
 540 01a0 6F020000 		.4byte	0x26f
 541 01a4 14       		.byte	0x14
 542 01a5 07       		.uleb128 0x7
 543 01a6 7C050000 		.4byte	.LASF35
ARM GAS  C:\Users\Luis\AppData\Local\Temp\ccb1FswK.s 			page 11


 544 01aa 08       		.byte	0x8
 545 01ab D2       		.byte	0xd2
 546 01ac EB070000 		.4byte	0x7eb
 547 01b0 18       		.byte	0x18
 548 01b1 07       		.uleb128 0x7
 549 01b2 FD050000 		.4byte	.LASF36
 550 01b6 08       		.byte	0x8
 551 01b7 D8       		.byte	0xd8
 552 01b8 FD070000 		.4byte	0x7fd
 553 01bc 1C       		.byte	0x1c
 554 01bd 07       		.uleb128 0x7
 555 01be 88060000 		.4byte	.LASF37
 556 01c2 08       		.byte	0x8
 557 01c3 DD       		.byte	0xdd
 558 01c4 E3000000 		.4byte	0xe3
 559 01c8 20       		.byte	0x20
 560 01c9 07       		.uleb128 0x7
 561 01ca DF060000 		.4byte	.LASF38
 562 01ce 08       		.byte	0x8
 563 01cf E1       		.byte	0xe1
 564 01d0 D8000000 		.4byte	0xd8
 565 01d4 21       		.byte	0x21
 566 01d5 07       		.uleb128 0x7
 567 01d6 140A0000 		.4byte	.LASF39
 568 01da 08       		.byte	0x8
 569 01db E6       		.byte	0xe6
 570 01dc EE000000 		.4byte	0xee
 571 01e0 22       		.byte	0x22
 572 01e1 08       		.uleb128 0x8
 573 01e2 705F7500 		.ascii	"p_u\000"
 574 01e6 08       		.byte	0x8
 575 01e7 3101     		.2byte	0x131
 576 01e9 26070000 		.4byte	0x726
 577 01ed 24       		.byte	0x24
 578 01ee 09       		.uleb128 0x9
 579 01ef 75010000 		.4byte	.LASF40
 580 01f3 08       		.byte	0x8
 581 01f4 3601     		.2byte	0x136
 582 01f6 75020000 		.4byte	0x275
 583 01fa 28       		.byte	0x28
 584 01fb 09       		.uleb128 0x9
 585 01fc 0B010000 		.4byte	.LASF41
 586 0200 08       		.byte	0x8
 587 0201 3C01     		.2byte	0x13c
 588 0203 99020000 		.4byte	0x299
 589 0207 2C       		.byte	0x2c
 590 0208 09       		.uleb128 0x9
 591 0209 71070000 		.4byte	.LASF42
 592 020d 08       		.byte	0x8
 593 020e 4001     		.2byte	0x140
 594 0210 04010000 		.4byte	0x104
 595 0214 34       		.byte	0x34
 596 0215 09       		.uleb128 0x9
 597 0216 34080000 		.4byte	.LASF43
 598 021a 08       		.byte	0x8
 599 021b 4601     		.2byte	0x146
 600 021d 0F010000 		.4byte	0x10f
ARM GAS  C:\Users\Luis\AppData\Local\Temp\ccb1FswK.s 			page 12


 601 0221 38       		.byte	0x38
 602 0222 09       		.uleb128 0x9
 603 0223 44060000 		.4byte	.LASF44
 604 0227 08       		.byte	0x8
 605 0228 4D01     		.2byte	0x14d
 606 022a E5070000 		.4byte	0x7e5
 607 022e 3C       		.byte	0x3c
 608 022f 09       		.uleb128 0x9
 609 0230 06080000 		.4byte	.LASF45
 610 0234 08       		.byte	0x8
 611 0235 5101     		.2byte	0x151
 612 0237 F9000000 		.4byte	0xf9
 613 023b 40       		.byte	0x40
 614 023c 09       		.uleb128 0x9
 615 023d 36060000 		.4byte	.LASF46
 616 0241 08       		.byte	0x8
 617 0242 5801     		.2byte	0x158
 618 0244 4C030000 		.4byte	0x34c
 619 0248 44       		.byte	0x44
 620 0249 09       		.uleb128 0x9
 621 024a 20060000 		.4byte	.LASF47
 622 024e 08       		.byte	0x8
 623 024f 5E01     		.2byte	0x15e
 624 0251 D7060000 		.4byte	0x6d7
 625 0255 48       		.byte	0x48
 626 0256 09       		.uleb128 0x9
 627 0257 B00A0000 		.4byte	.LASF48
 628 025b 08       		.byte	0x8
 629 025c 6201     		.2byte	0x162
 630 025e 4C030000 		.4byte	0x34c
 631 0262 60       		.byte	0x60
 632 0263 00       		.byte	0
 633 0264 03       		.uleb128 0x3
 634 0265 90000000 		.4byte	.LASF49
 635 0269 07       		.byte	0x7
 636 026a 44       		.byte	0x44
 637 026b 6F020000 		.4byte	0x26f
 638 026f 0A       		.uleb128 0xa
 639 0270 04       		.byte	0x4
 640 0271 46010000 		.4byte	0x146
 641 0275 03       		.uleb128 0x3
 642 0276 55010000 		.4byte	.LASF50
 643 027a 07       		.byte	0x7
 644 027b 49       		.byte	0x49
 645 027c 80020000 		.4byte	0x280
 646 0280 06       		.uleb128 0x6
 647 0281 43000000 		.4byte	.LASF52
 648 0285 04       		.byte	0x4
 649 0286 08       		.byte	0x8
 650 0287 B0       		.byte	0xb0
 651 0288 99020000 		.4byte	0x299
 652 028c 07       		.uleb128 0x7
 653 028d 8A080000 		.4byte	.LASF29
 654 0291 08       		.byte	0x8
 655 0292 B1       		.byte	0xb1
 656 0293 6F020000 		.4byte	0x26f
 657 0297 00       		.byte	0
ARM GAS  C:\Users\Luis\AppData\Local\Temp\ccb1FswK.s 			page 13


 658 0298 00       		.byte	0
 659 0299 03       		.uleb128 0x3
 660 029a 53000000 		.4byte	.LASF53
 661 029e 07       		.byte	0x7
 662 029f 50       		.byte	0x50
 663 02a0 A4020000 		.4byte	0x2a4
 664 02a4 06       		.uleb128 0x6
 665 02a5 90060000 		.4byte	.LASF54
 666 02a9 08       		.byte	0x8
 667 02aa 08       		.byte	0x8
 668 02ab B7       		.byte	0xb7
 669 02ac C9020000 		.4byte	0x2c9
 670 02b0 07       		.uleb128 0x7
 671 02b1 8A080000 		.4byte	.LASF29
 672 02b5 08       		.byte	0x8
 673 02b6 B8       		.byte	0xb8
 674 02b7 6F020000 		.4byte	0x26f
 675 02bb 00       		.byte	0
 676 02bc 07       		.uleb128 0x7
 677 02bd 10090000 		.4byte	.LASF30
 678 02c1 08       		.byte	0x8
 679 02c2 B9       		.byte	0xb9
 680 02c3 6F020000 		.4byte	0x26f
 681 02c7 04       		.byte	0x4
 682 02c8 00       		.byte	0
 683 02c9 03       		.uleb128 0x3
 684 02ca 3B090000 		.4byte	.LASF55
 685 02ce 07       		.byte	0x7
 686 02cf 57       		.byte	0x57
 687 02d0 D4020000 		.4byte	0x2d4
 688 02d4 0B       		.uleb128 0xb
 689 02d5 A5020000 		.4byte	.LASF56
 690 02d9 1C       		.byte	0x1c
 691 02da 08       		.byte	0x8
 692 02db 9001     		.2byte	0x190
 693 02dd 30030000 		.4byte	0x330
 694 02e1 09       		.uleb128 0x9
 695 02e2 B6060000 		.4byte	.LASF57
 696 02e6 08       		.byte	0x8
 697 02e7 9101     		.2byte	0x191
 698 02e9 99020000 		.4byte	0x299
 699 02ed 00       		.byte	0
 700 02ee 09       		.uleb128 0x9
 701 02ef 49030000 		.4byte	.LASF58
 702 02f3 08       		.byte	0x8
 703 02f4 9201     		.2byte	0x192
 704 02f6 F9000000 		.4byte	0xf9
 705 02fa 08       		.byte	0x8
 706 02fb 09       		.uleb128 0x9
 707 02fc AA0A0000 		.4byte	.LASF59
 708 0300 08       		.byte	0x8
 709 0301 9401     		.2byte	0x194
 710 0303 47050000 		.4byte	0x547
 711 0307 0C       		.byte	0xc
 712 0308 09       		.uleb128 0x9
 713 0309 BE060000 		.4byte	.LASF60
 714 030d 08       		.byte	0x8
ARM GAS  C:\Users\Luis\AppData\Local\Temp\ccb1FswK.s 			page 14


 715 030e 9701     		.2byte	0x197
 716 0310 6F020000 		.4byte	0x26f
 717 0314 10       		.byte	0x10
 718 0315 09       		.uleb128 0x9
 719 0316 2F070000 		.4byte	.LASF61
 720 031a 08       		.byte	0x8
 721 031b 9801     		.2byte	0x198
 722 031d 6F020000 		.4byte	0x26f
 723 0321 14       		.byte	0x14
 724 0322 09       		.uleb128 0x9
 725 0323 2A080000 		.4byte	.LASF62
 726 0327 08       		.byte	0x8
 727 0328 9B01     		.2byte	0x19b
 728 032a 6F020000 		.4byte	0x26f
 729 032e 18       		.byte	0x18
 730 032f 00       		.byte	0
 731 0330 03       		.uleb128 0x3
 732 0331 D7020000 		.4byte	.LASF63
 733 0335 07       		.byte	0x7
 734 0336 5C       		.byte	0x5c
 735 0337 3B030000 		.4byte	0x33b
 736 033b 0A       		.uleb128 0xa
 737 033c 04       		.byte	0x4
 738 033d 41030000 		.4byte	0x341
 739 0341 0C       		.uleb128 0xc
 740 0342 4C030000 		.4byte	0x34c
 741 0346 0D       		.uleb128 0xd
 742 0347 4C030000 		.4byte	0x34c
 743 034b 00       		.byte	0
 744 034c 0E       		.uleb128 0xe
 745 034d 04       		.byte	0x4
 746 034e 03       		.uleb128 0x3
 747 034f EC060000 		.4byte	.LASF64
 748 0353 07       		.byte	0x7
 749 0354 61       		.byte	0x61
 750 0355 59030000 		.4byte	0x359
 751 0359 0B       		.uleb128 0xb
 752 035a 9B030000 		.4byte	.LASF65
 753 035e 14       		.byte	0x14
 754 035f 08       		.byte	0x8
 755 0360 6B01     		.2byte	0x16b
 756 0362 A8030000 		.4byte	0x3a8
 757 0366 09       		.uleb128 0x9
 758 0367 2A0A0000 		.4byte	.LASF66
 759 036b 08       		.byte	0x8
 760 036c 6C01     		.2byte	0x16c
 761 036e 03080000 		.4byte	0x803
 762 0372 00       		.byte	0
 763 0373 09       		.uleb128 0x9
 764 0374 E80A0000 		.4byte	.LASF67
 765 0378 08       		.byte	0x8
 766 0379 6D01     		.2byte	0x16d
 767 037b 03080000 		.4byte	0x803
 768 037f 04       		.byte	0x4
 769 0380 09       		.uleb128 0x9
 770 0381 A8050000 		.4byte	.LASF68
 771 0385 08       		.byte	0x8
ARM GAS  C:\Users\Luis\AppData\Local\Temp\ccb1FswK.s 			page 15


 772 0386 6E01     		.2byte	0x16e
 773 0388 3B010000 		.4byte	0x13b
 774 038c 08       		.byte	0x8
 775 038d 09       		.uleb128 0x9
 776 038e D30A0000 		.4byte	.LASF69
 777 0392 08       		.byte	0x8
 778 0393 6F01     		.2byte	0x16f
 779 0395 30030000 		.4byte	0x330
 780 0399 0C       		.byte	0xc
 781 039a 09       		.uleb128 0x9
 782 039b 5D030000 		.4byte	.LASF70
 783 039f 08       		.byte	0x8
 784 03a0 7101     		.2byte	0x171
 785 03a2 4C030000 		.4byte	0x34c
 786 03a6 10       		.byte	0x10
 787 03a7 00       		.byte	0
 788 03a8 03       		.uleb128 0x3
 789 03a9 B0090000 		.4byte	.LASF71
 790 03ad 07       		.byte	0x7
 791 03ae 66       		.byte	0x66
 792 03af B3030000 		.4byte	0x3b3
 793 03b3 0B       		.uleb128 0xb
 794 03b4 33040000 		.4byte	.LASF72
 795 03b8 10       		.byte	0x10
 796 03b9 08       		.byte	0x8
 797 03ba 7B01     		.2byte	0x17b
 798 03bc F5030000 		.4byte	0x3f5
 799 03c0 09       		.uleb128 0x9
 800 03c1 2A0A0000 		.4byte	.LASF66
 801 03c5 08       		.byte	0x8
 802 03c6 7C01     		.2byte	0x17c
 803 03c8 03080000 		.4byte	0x803
 804 03cc 00       		.byte	0
 805 03cd 09       		.uleb128 0x9
 806 03ce E80A0000 		.4byte	.LASF67
 807 03d2 08       		.byte	0x8
 808 03d3 7E01     		.2byte	0x17e
 809 03d5 03080000 		.4byte	0x803
 810 03d9 04       		.byte	0x4
 811 03da 09       		.uleb128 0x9
 812 03db A8050000 		.4byte	.LASF68
 813 03df 08       		.byte	0x8
 814 03e0 8001     		.2byte	0x180
 815 03e2 3B010000 		.4byte	0x13b
 816 03e6 08       		.byte	0x8
 817 03e7 09       		.uleb128 0x9
 818 03e8 BA050000 		.4byte	.LASF73
 819 03ec 08       		.byte	0x8
 820 03ed 8801     		.2byte	0x188
 821 03ef 3B010000 		.4byte	0x13b
 822 03f3 0C       		.byte	0xc
 823 03f4 00       		.byte	0
 824 03f5 03       		.uleb128 0x3
 825 03f6 79060000 		.4byte	.LASF74
 826 03fa 07       		.byte	0x7
 827 03fb 6B       		.byte	0x6b
 828 03fc 00040000 		.4byte	0x400
ARM GAS  C:\Users\Luis\AppData\Local\Temp\ccb1FswK.s 			page 16


 829 0400 0F       		.uleb128 0xf
 830 0401 ED020000 		.4byte	.LASF75
 831 0405 1404     		.2byte	0x414
 832 0407 08       		.byte	0x8
 833 0408 A201     		.2byte	0x1a2
 834 040a 43040000 		.4byte	0x443
 835 040e 09       		.uleb128 0x9
 836 040f 5F070000 		.4byte	.LASF76
 837 0413 08       		.byte	0x8
 838 0414 AA01     		.2byte	0x1aa
 839 0416 09080000 		.4byte	0x809
 840 041a 00       		.byte	0
 841 041b 09       		.uleb128 0x9
 842 041c 11040000 		.4byte	.LASF77
 843 0420 08       		.byte	0x8
 844 0421 AF01     		.2byte	0x1af
 845 0423 25010000 		.4byte	0x125
 846 0427 04       		.byte	0x4
 847 0428 09       		.uleb128 0x9
 848 0429 E2070000 		.4byte	.LASF78
 849 042d 08       		.byte	0x8
 850 042e B301     		.2byte	0x1b3
 851 0430 25010000 		.4byte	0x125
 852 0434 08       		.byte	0x8
 853 0435 09       		.uleb128 0x9
 854 0436 55090000 		.4byte	.LASF79
 855 043a 08       		.byte	0x8
 856 043b B901     		.2byte	0x1b9
 857 043d 69060000 		.4byte	0x669
 858 0441 0C       		.byte	0xc
 859 0442 00       		.byte	0
 860 0443 03       		.uleb128 0x3
 861 0444 320A0000 		.4byte	.LASF80
 862 0448 07       		.byte	0x7
 863 0449 70       		.byte	0x70
 864 044a 4E040000 		.4byte	0x44e
 865 044e 0F       		.uleb128 0xf
 866 044f 69080000 		.4byte	.LASF81
 867 0453 E805     		.2byte	0x5e8
 868 0455 08       		.byte	0x8
 869 0456 C201     		.2byte	0x1c2
 870 0458 BB040000 		.4byte	0x4bb
 871 045c 09       		.uleb128 0x9
 872 045d A0080000 		.4byte	.LASF82
 873 0461 08       		.byte	0x8
 874 0462 C601     		.2byte	0x1c6
 875 0464 C9020000 		.4byte	0x2c9
 876 0468 00       		.byte	0
 877 0469 09       		.uleb128 0x9
 878 046a 97020000 		.4byte	.LASF83
 879 046e 08       		.byte	0x8
 880 046f CA01     		.2byte	0x1ca
 881 0471 A8030000 		.4byte	0x3a8
 882 0475 1C       		.byte	0x1c
 883 0476 08       		.uleb128 0x8
 884 0477 64626700 		.ascii	"dbg\000"
 885 047b 08       		.byte	0x8
ARM GAS  C:\Users\Luis\AppData\Local\Temp\ccb1FswK.s 			page 17


 886 047c CE01     		.2byte	0x1ce
 887 047e F5030000 		.4byte	0x3f5
 888 0482 2C       		.byte	0x2c
 889 0483 10       		.uleb128 0x10
 890 0484 86070000 		.4byte	.LASF84
 891 0488 08       		.byte	0x8
 892 0489 D201     		.2byte	0x1d2
 893 048b 46010000 		.4byte	0x146
 894 048f 4004     		.2byte	0x440
 895 0491 11       		.uleb128 0x11
 896 0492 746D00   		.ascii	"tm\000"
 897 0495 08       		.byte	0x8
 898 0496 D701     		.2byte	0x1d7
 899 0498 89060000 		.4byte	0x689
 900 049c A804     		.2byte	0x4a8
 901 049e 10       		.uleb128 0x10
 902 049f 50030000 		.4byte	.LASF85
 903 04a3 08       		.byte	0x8
 904 04a4 DD01     		.2byte	0x1dd
 905 04a6 1B070000 		.4byte	0x71b
 906 04aa B004     		.2byte	0x4b0
 907 04ac 10       		.uleb128 0x10
 908 04ad B3020000 		.4byte	.LASF86
 909 04b1 08       		.byte	0x8
 910 04b2 E301     		.2byte	0x1e3
 911 04b4 0E080000 		.4byte	0x80e
 912 04b8 E804     		.2byte	0x4e8
 913 04ba 00       		.byte	0
 914 04bb 04       		.uleb128 0x4
 915 04bc 04       		.byte	0x4
 916 04bd 07       		.byte	0x7
 917 04be FD070000 		.4byte	.LASF87
 918 04c2 12       		.uleb128 0x12
 919 04c3 1C       		.byte	0x1c
 920 04c4 09       		.byte	0x9
 921 04c5 0903     		.2byte	0x309
 922 04c7 25050000 		.4byte	0x525
 923 04cb 08       		.uleb128 0x8
 924 04cc 535200   		.ascii	"SR\000"
 925 04cf 09       		.byte	0x9
 926 04d0 0B03     		.2byte	0x30b
 927 04d2 BD000000 		.4byte	0xbd
 928 04d6 00       		.byte	0
 929 04d7 08       		.uleb128 0x8
 930 04d8 445200   		.ascii	"DR\000"
 931 04db 09       		.byte	0x9
 932 04dc 0C03     		.2byte	0x30c
 933 04de BD000000 		.4byte	0xbd
 934 04e2 04       		.byte	0x4
 935 04e3 08       		.uleb128 0x8
 936 04e4 42525200 		.ascii	"BRR\000"
 937 04e8 09       		.byte	0x9
 938 04e9 0D03     		.2byte	0x30d
 939 04eb BD000000 		.4byte	0xbd
 940 04ef 08       		.byte	0x8
 941 04f0 08       		.uleb128 0x8
 942 04f1 43523100 		.ascii	"CR1\000"
ARM GAS  C:\Users\Luis\AppData\Local\Temp\ccb1FswK.s 			page 18


 943 04f5 09       		.byte	0x9
 944 04f6 0E03     		.2byte	0x30e
 945 04f8 BD000000 		.4byte	0xbd
 946 04fc 0C       		.byte	0xc
 947 04fd 08       		.uleb128 0x8
 948 04fe 43523200 		.ascii	"CR2\000"
 949 0502 09       		.byte	0x9
 950 0503 0F03     		.2byte	0x30f
 951 0505 BD000000 		.4byte	0xbd
 952 0509 10       		.byte	0x10
 953 050a 08       		.uleb128 0x8
 954 050b 43523300 		.ascii	"CR3\000"
 955 050f 09       		.byte	0x9
 956 0510 1003     		.2byte	0x310
 957 0512 BD000000 		.4byte	0xbd
 958 0516 14       		.byte	0x14
 959 0517 09       		.uleb128 0x9
 960 0518 FD020000 		.4byte	.LASF88
 961 051c 09       		.byte	0x9
 962 051d 1103     		.2byte	0x311
 963 051f BD000000 		.4byte	0xbd
 964 0523 18       		.byte	0x18
 965 0524 00       		.byte	0
 966 0525 13       		.uleb128 0x13
 967 0526 02050000 		.4byte	.LASF89
 968 052a 09       		.byte	0x9
 969 052b 1203     		.2byte	0x312
 970 052d C2040000 		.4byte	0x4c2
 971 0531 03       		.uleb128 0x3
 972 0532 A8000000 		.4byte	.LASF90
 973 0536 0A       		.byte	0xa
 974 0537 65       		.byte	0x65
 975 0538 4C030000 		.4byte	0x34c
 976 053c 03       		.uleb128 0x3
 977 053d F7090000 		.4byte	.LASF91
 978 0541 0A       		.byte	0xa
 979 0542 6D       		.byte	0x6d
 980 0543 A6000000 		.4byte	0xa6
 981 0547 06       		.uleb128 0x6
 982 0548 D2060000 		.4byte	.LASF92
 983 054c 04       		.byte	0x4
 984 054d 0A       		.byte	0xa
 985 054e 89       		.byte	0x89
 986 054f 60050000 		.4byte	0x560
 987 0553 14       		.uleb128 0x14
 988 0554 72313300 		.ascii	"r13\000"
 989 0558 0A       		.byte	0xa
 990 0559 8A       		.byte	0x8a
 991 055a DB050000 		.4byte	0x5db
 992 055e 00       		.byte	0
 993 055f 00       		.byte	0
 994 0560 06       		.uleb128 0x6
 995 0561 50080000 		.4byte	.LASF93
 996 0565 24       		.byte	0x24
 997 0566 0B       		.byte	0xb
 998 0567 F4       		.byte	0xf4
 999 0568 DB050000 		.4byte	0x5db
ARM GAS  C:\Users\Luis\AppData\Local\Temp\ccb1FswK.s 			page 19


 1000 056c 08       		.uleb128 0x8
 1001 056d 723400   		.ascii	"r4\000"
 1002 0570 0B       		.byte	0xb
 1003 0571 0701     		.2byte	0x107
 1004 0573 31050000 		.4byte	0x531
 1005 0577 00       		.byte	0
 1006 0578 08       		.uleb128 0x8
 1007 0579 723500   		.ascii	"r5\000"
 1008 057c 0B       		.byte	0xb
 1009 057d 0801     		.2byte	0x108
 1010 057f 31050000 		.4byte	0x531
 1011 0583 04       		.byte	0x4
 1012 0584 08       		.uleb128 0x8
 1013 0585 723600   		.ascii	"r6\000"
 1014 0588 0B       		.byte	0xb
 1015 0589 0901     		.2byte	0x109
 1016 058b 31050000 		.4byte	0x531
 1017 058f 08       		.byte	0x8
 1018 0590 08       		.uleb128 0x8
 1019 0591 723700   		.ascii	"r7\000"
 1020 0594 0B       		.byte	0xb
 1021 0595 0A01     		.2byte	0x10a
 1022 0597 31050000 		.4byte	0x531
 1023 059b 0C       		.byte	0xc
 1024 059c 08       		.uleb128 0x8
 1025 059d 723800   		.ascii	"r8\000"
 1026 05a0 0B       		.byte	0xb
 1027 05a1 0B01     		.2byte	0x10b
 1028 05a3 31050000 		.4byte	0x531
 1029 05a7 10       		.byte	0x10
 1030 05a8 08       		.uleb128 0x8
 1031 05a9 723900   		.ascii	"r9\000"
 1032 05ac 0B       		.byte	0xb
 1033 05ad 0C01     		.2byte	0x10c
 1034 05af 31050000 		.4byte	0x531
 1035 05b3 14       		.byte	0x14
 1036 05b4 08       		.uleb128 0x8
 1037 05b5 72313000 		.ascii	"r10\000"
 1038 05b9 0B       		.byte	0xb
 1039 05ba 0D01     		.2byte	0x10d
 1040 05bc 31050000 		.4byte	0x531
 1041 05c0 18       		.byte	0x18
 1042 05c1 08       		.uleb128 0x8
 1043 05c2 72313100 		.ascii	"r11\000"
 1044 05c6 0B       		.byte	0xb
 1045 05c7 0E01     		.2byte	0x10e
 1046 05c9 31050000 		.4byte	0x531
 1047 05cd 1C       		.byte	0x1c
 1048 05ce 08       		.uleb128 0x8
 1049 05cf 6C7200   		.ascii	"lr\000"
 1050 05d2 0B       		.byte	0xb
 1051 05d3 0F01     		.2byte	0x10f
 1052 05d5 31050000 		.4byte	0x531
 1053 05d9 20       		.byte	0x20
 1054 05da 00       		.byte	0
 1055 05db 0A       		.uleb128 0xa
 1056 05dc 04       		.byte	0x4
ARM GAS  C:\Users\Luis\AppData\Local\Temp\ccb1FswK.s 			page 20


 1057 05dd 60050000 		.4byte	0x560
 1058 05e1 15       		.uleb128 0x15
 1059 05e2 10       		.byte	0x10
 1060 05e3 0C       		.byte	0xc
 1061 05e4 51       		.byte	0x51
 1062 05e5 1A060000 		.4byte	0x61a
 1063 05e9 07       		.uleb128 0x7
 1064 05ea 5E040000 		.4byte	.LASF94
 1065 05ee 0C       		.byte	0xc
 1066 05ef 55       		.byte	0x55
 1067 05f0 3B010000 		.4byte	0x13b
 1068 05f4 00       		.byte	0
 1069 05f5 07       		.uleb128 0x7
 1070 05f6 D7050000 		.4byte	.LASF95
 1071 05fa 0C       		.byte	0xc
 1072 05fb 59       		.byte	0x59
 1073 05fc 6F020000 		.4byte	0x26f
 1074 0600 04       		.byte	0x4
 1075 0601 07       		.uleb128 0x7
 1076 0602 CB030000 		.4byte	.LASF96
 1077 0606 0C       		.byte	0xc
 1078 0607 5D       		.byte	0x5d
 1079 0608 4C030000 		.4byte	0x34c
 1080 060c 08       		.byte	0x8
 1081 060d 07       		.uleb128 0x7
 1082 060e 9F010000 		.4byte	.LASF97
 1083 0612 0C       		.byte	0xc
 1084 0613 61       		.byte	0x61
 1085 0614 50000000 		.4byte	0x50
 1086 0618 0C       		.byte	0xc
 1087 0619 00       		.byte	0
 1088 061a 03       		.uleb128 0x3
 1089 061b 86090000 		.4byte	.LASF98
 1090 061f 0C       		.byte	0xc
 1091 0620 62       		.byte	0x62
 1092 0621 E1050000 		.4byte	0x5e1
 1093 0625 16       		.uleb128 0x16
 1094 0626 0804     		.2byte	0x408
 1095 0628 0C       		.byte	0xc
 1096 0629 67       		.byte	0x67
 1097 062a 53060000 		.4byte	0x653
 1098 062e 07       		.uleb128 0x7
 1099 062f 63060000 		.4byte	.LASF99
 1100 0633 0C       		.byte	0xc
 1101 0634 6B       		.byte	0x6b
 1102 0635 37000000 		.4byte	0x37
 1103 0639 00       		.byte	0
 1104 063a 07       		.uleb128 0x7
 1105 063b 28070000 		.4byte	.LASF100
 1106 063f 0C       		.byte	0xc
 1107 0640 6F       		.byte	0x6f
 1108 0641 53060000 		.4byte	0x653
 1109 0645 04       		.byte	0x4
 1110 0646 07       		.uleb128 0x7
 1111 0647 17070000 		.4byte	.LASF101
 1112 064b 0C       		.byte	0xc
 1113 064c 73       		.byte	0x73
ARM GAS  C:\Users\Luis\AppData\Local\Temp\ccb1FswK.s 			page 21


 1114 064d 59060000 		.4byte	0x659
 1115 0651 08       		.byte	0x8
 1116 0652 00       		.byte	0
 1117 0653 0A       		.uleb128 0xa
 1118 0654 04       		.byte	0x4
 1119 0655 1A060000 		.4byte	0x61a
 1120 0659 17       		.uleb128 0x17
 1121 065a 1A060000 		.4byte	0x61a
 1122 065e 69060000 		.4byte	0x669
 1123 0662 18       		.uleb128 0x18
 1124 0663 BB040000 		.4byte	0x4bb
 1125 0667 3F       		.byte	0x3f
 1126 0668 00       		.byte	0
 1127 0669 03       		.uleb128 0x3
 1128 066a 5C0A0000 		.4byte	.LASF102
 1129 066e 0C       		.byte	0xc
 1130 066f 74       		.byte	0x74
 1131 0670 25060000 		.4byte	0x625
 1132 0674 15       		.uleb128 0x15
 1133 0675 04       		.byte	0x4
 1134 0676 0D       		.byte	0xd
 1135 0677 38       		.byte	0x38
 1136 0678 89060000 		.4byte	0x689
 1137 067c 07       		.uleb128 0x7
 1138 067d B7040000 		.4byte	.LASF103
 1139 0681 0D       		.byte	0xd
 1140 0682 3C       		.byte	0x3c
 1141 0683 C2000000 		.4byte	0xc2
 1142 0687 00       		.byte	0
 1143 0688 00       		.byte	0
 1144 0689 03       		.uleb128 0x3
 1145 068a 7F000000 		.4byte	.LASF104
 1146 068e 0D       		.byte	0xd
 1147 068f 3D       		.byte	0x3d
 1148 0690 74060000 		.4byte	0x674
 1149 0694 15       		.uleb128 0x15
 1150 0695 18       		.byte	0x18
 1151 0696 0D       		.byte	0xd
 1152 0697 48       		.byte	0x48
 1153 0698 D7060000 		.4byte	0x6d7
 1154 069c 07       		.uleb128 0x7
 1155 069d 9D090000 		.4byte	.LASF105
 1156 06a1 0D       		.byte	0xd
 1157 06a2 49       		.byte	0x49
 1158 06a3 C2000000 		.4byte	0xc2
 1159 06a7 00       		.byte	0
 1160 06a8 07       		.uleb128 0x7
 1161 06a9 19040000 		.4byte	.LASF106
 1162 06ad 0D       		.byte	0xd
 1163 06ae 4A       		.byte	0x4a
 1164 06af C2000000 		.4byte	0xc2
 1165 06b3 04       		.byte	0x4
 1166 06b4 07       		.uleb128 0x7
 1167 06b5 10050000 		.4byte	.LASF107
 1168 06b9 0D       		.byte	0xd
 1169 06ba 4B       		.byte	0x4b
 1170 06bb C2000000 		.4byte	0xc2
ARM GAS  C:\Users\Luis\AppData\Local\Temp\ccb1FswK.s 			page 22


 1171 06bf 08       		.byte	0x8
 1172 06c0 14       		.uleb128 0x14
 1173 06c1 6E00     		.ascii	"n\000"
 1174 06c3 0D       		.byte	0xd
 1175 06c4 4C       		.byte	0x4c
 1176 06c5 30010000 		.4byte	0x130
 1177 06c9 0C       		.byte	0xc
 1178 06ca 07       		.uleb128 0x7
 1179 06cb 6A010000 		.4byte	.LASF108
 1180 06cf 0D       		.byte	0xd
 1181 06d0 4D       		.byte	0x4d
 1182 06d1 CD000000 		.4byte	0xcd
 1183 06d5 10       		.byte	0x10
 1184 06d6 00       		.byte	0
 1185 06d7 03       		.uleb128 0x3
 1186 06d8 54050000 		.4byte	.LASF109
 1187 06dc 0D       		.byte	0xd
 1188 06dd 4E       		.byte	0x4e
 1189 06de 94060000 		.4byte	0x694
 1190 06e2 15       		.uleb128 0x15
 1191 06e3 38       		.byte	0x38
 1192 06e4 0E       		.byte	0xe
 1193 06e5 38       		.byte	0x38
 1194 06e6 1B070000 		.4byte	0x71b
 1195 06ea 07       		.uleb128 0x7
 1196 06eb F7070000 		.4byte	.LASF110
 1197 06ef 0E       		.byte	0xe
 1198 06f0 39       		.byte	0x39
 1199 06f1 30010000 		.4byte	0x130
 1200 06f5 00       		.byte	0
 1201 06f6 07       		.uleb128 0x7
 1202 06f7 37070000 		.4byte	.LASF111
 1203 06fb 0E       		.byte	0xe
 1204 06fc 3A       		.byte	0x3a
 1205 06fd 30010000 		.4byte	0x130
 1206 0701 04       		.byte	0x4
 1207 0702 07       		.uleb128 0x7
 1208 0703 7F080000 		.4byte	.LASF112
 1209 0707 0E       		.byte	0xe
 1210 0708 3B       		.byte	0x3b
 1211 0709 D7060000 		.4byte	0x6d7
 1212 070d 08       		.byte	0x8
 1213 070e 07       		.uleb128 0x7
 1214 070f 36010000 		.4byte	.LASF113
 1215 0713 0E       		.byte	0xe
 1216 0714 3D       		.byte	0x3d
 1217 0715 D7060000 		.4byte	0x6d7
 1218 0719 20       		.byte	0x20
 1219 071a 00       		.byte	0
 1220 071b 03       		.uleb128 0x3
 1221 071c 2E030000 		.4byte	.LASF114
 1222 0720 0E       		.byte	0xe
 1223 0721 3F       		.byte	0x3f
 1224 0722 E2060000 		.4byte	0x6e2
 1225 0726 19       		.uleb128 0x19
 1226 0727 04       		.byte	0x4
 1227 0728 08       		.byte	0x8
ARM GAS  C:\Users\Luis\AppData\Local\Temp\ccb1FswK.s 			page 23


 1228 0729 FA       		.byte	0xfa
 1229 072a 83070000 		.4byte	0x783
 1230 072e 1A       		.uleb128 0x1a
 1231 072f A8040000 		.4byte	.LASF115
 1232 0733 08       		.byte	0x8
 1233 0734 0101     		.2byte	0x101
 1234 0736 04010000 		.4byte	0x104
 1235 073a 1A       		.uleb128 0x1a
 1236 073b 240B0000 		.4byte	.LASF116
 1237 073f 08       		.byte	0x8
 1238 0740 0801     		.2byte	0x108
 1239 0742 04010000 		.4byte	0x104
 1240 0746 1A       		.uleb128 0x1a
 1241 0747 90020000 		.4byte	.LASF117
 1242 074b 08       		.byte	0x8
 1243 074c 0F01     		.2byte	0x10f
 1244 074e 4C030000 		.4byte	0x34c
 1245 0752 1A       		.uleb128 0x1a
 1246 0753 3E0A0000 		.4byte	.LASF118
 1247 0757 08       		.byte	0x8
 1248 0758 1601     		.2byte	0x116
 1249 075a 83070000 		.4byte	0x783
 1250 075e 1A       		.uleb128 0x1a
 1251 075f 62090000 		.4byte	.LASF119
 1252 0763 08       		.byte	0x8
 1253 0764 1E01     		.2byte	0x11e
 1254 0766 AE070000 		.4byte	0x7ae
 1255 076a 1A       		.uleb128 0x1a
 1256 076b 78000000 		.4byte	.LASF120
 1257 076f 08       		.byte	0x8
 1258 0770 2701     		.2byte	0x127
 1259 0772 E5070000 		.4byte	0x7e5
 1260 0776 1A       		.uleb128 0x1a
 1261 0777 C2020000 		.4byte	.LASF121
 1262 077b 08       		.byte	0x8
 1263 077c 2F01     		.2byte	0x12f
 1264 077e 0F010000 		.4byte	0x10f
 1265 0782 00       		.byte	0
 1266 0783 0A       		.uleb128 0xa
 1267 0784 04       		.byte	0x4
 1268 0785 64020000 		.4byte	0x264
 1269 0789 06       		.uleb128 0x6
 1270 078a 86030000 		.4byte	.LASF122
 1271 078e 0C       		.byte	0xc
 1272 078f 0F       		.byte	0xf
 1273 0790 34       		.byte	0x34
 1274 0791 AE070000 		.4byte	0x7ae
 1275 0795 07       		.uleb128 0x7
 1276 0796 F2000000 		.4byte	.LASF123
 1277 079a 0F       		.byte	0xf
 1278 079b 35       		.byte	0x35
 1279 079c 99020000 		.4byte	0x299
 1280 07a0 00       		.byte	0
 1281 07a1 07       		.uleb128 0x7
 1282 07a2 E7020000 		.4byte	.LASF124
 1283 07a6 0F       		.byte	0xf
 1284 07a7 37       		.byte	0x37
ARM GAS  C:\Users\Luis\AppData\Local\Temp\ccb1FswK.s 			page 24


 1285 07a8 25010000 		.4byte	0x125
 1286 07ac 08       		.byte	0x8
 1287 07ad 00       		.byte	0
 1288 07ae 0A       		.uleb128 0xa
 1289 07af 04       		.byte	0x4
 1290 07b0 89070000 		.4byte	0x789
 1291 07b4 06       		.uleb128 0x6
 1292 07b5 E4040000 		.4byte	.LASF125
 1293 07b9 10       		.byte	0x10
 1294 07ba 10       		.byte	0x10
 1295 07bb 39       		.byte	0x39
 1296 07bc E5070000 		.4byte	0x7e5
 1297 07c0 07       		.uleb128 0x7
 1298 07c1 3F080000 		.4byte	.LASF126
 1299 07c5 10       		.byte	0x10
 1300 07c6 3A       		.byte	0x3a
 1301 07c7 99020000 		.4byte	0x299
 1302 07cb 00       		.byte	0
 1303 07cc 07       		.uleb128 0x7
 1304 07cd EA000000 		.4byte	.LASF127
 1305 07d1 10       		.byte	0x10
 1306 07d2 3C       		.byte	0x3c
 1307 07d3 6F020000 		.4byte	0x26f
 1308 07d7 08       		.byte	0x8
 1309 07d8 07       		.uleb128 0x7
 1310 07d9 6E0A0000 		.4byte	.LASF128
 1311 07dd 10       		.byte	0x10
 1312 07de 3E       		.byte	0x3e
 1313 07df 34080000 		.4byte	0x834
 1314 07e3 0C       		.byte	0xc
 1315 07e4 00       		.byte	0
 1316 07e5 0A       		.uleb128 0xa
 1317 07e6 04       		.byte	0x4
 1318 07e7 B4070000 		.4byte	0x7b4
 1319 07eb 0A       		.uleb128 0xa
 1320 07ec 04       		.byte	0x4
 1321 07ed F1070000 		.4byte	0x7f1
 1322 07f1 1B       		.uleb128 0x1b
 1323 07f2 F6070000 		.4byte	0x7f6
 1324 07f6 04       		.uleb128 0x4
 1325 07f7 01       		.byte	0x1
 1326 07f8 08       		.byte	0x8
 1327 07f9 A3000000 		.4byte	.LASF129
 1328 07fd 0A       		.uleb128 0xa
 1329 07fe 04       		.byte	0x4
 1330 07ff 3C050000 		.4byte	0x53c
 1331 0803 0A       		.uleb128 0xa
 1332 0804 04       		.byte	0x4
 1333 0805 4E030000 		.4byte	0x34e
 1334 0809 05       		.uleb128 0x5
 1335 080a EB070000 		.4byte	0x7eb
 1336 080e 17       		.uleb128 0x17
 1337 080f 3C050000 		.4byte	0x53c
 1338 0813 1E080000 		.4byte	0x81e
 1339 0817 18       		.uleb128 0x18
 1340 0818 BB040000 		.4byte	0x4bb
 1341 081c 1F       		.byte	0x1f
ARM GAS  C:\Users\Luis\AppData\Local\Temp\ccb1FswK.s 			page 25


 1342 081d 00       		.byte	0
 1343 081e 03       		.uleb128 0x3
 1344 081f 1F040000 		.4byte	.LASF130
 1345 0823 0F       		.byte	0xf
 1346 0824 38       		.byte	0x38
 1347 0825 89070000 		.4byte	0x789
 1348 0829 03       		.uleb128 0x3
 1349 082a 95090000 		.4byte	.LASF131
 1350 082e 10       		.byte	0x10
 1351 082f 34       		.byte	0x34
 1352 0830 B4070000 		.4byte	0x7b4
 1353 0834 0A       		.uleb128 0xa
 1354 0835 04       		.byte	0x4
 1355 0836 29080000 		.4byte	0x829
 1356 083a 03       		.uleb128 0x3
 1357 083b 2A090000 		.4byte	.LASF132
 1358 083f 11       		.byte	0x11
 1359 0840 34       		.byte	0x34
 1360 0841 45080000 		.4byte	0x845
 1361 0845 06       		.uleb128 0x6
 1362 0846 A7060000 		.4byte	.LASF133
 1363 084a 14       		.byte	0x14
 1364 084b 11       		.byte	0x11
 1365 084c 39       		.byte	0x39
 1366 084d 8E080000 		.4byte	0x88e
 1367 0851 07       		.uleb128 0x7
 1368 0852 69070000 		.4byte	.LASF134
 1369 0856 11       		.byte	0x11
 1370 0857 3A       		.byte	0x3a
 1371 0858 8E080000 		.4byte	0x88e
 1372 085c 00       		.byte	0
 1373 085d 07       		.uleb128 0x7
 1374 085e DB080000 		.4byte	.LASF135
 1375 0862 11       		.byte	0x11
 1376 0863 3D       		.byte	0x3d
 1377 0864 6F020000 		.4byte	0x26f
 1378 0868 04       		.byte	0x4
 1379 0869 07       		.uleb128 0x7
 1380 086a C6090000 		.4byte	.LASF136
 1381 086e 11       		.byte	0x11
 1382 086f 3F       		.byte	0x3f
 1383 0870 0F010000 		.4byte	0x10f
 1384 0874 08       		.byte	0x8
 1385 0875 07       		.uleb128 0x7
 1386 0876 1B0B0000 		.4byte	.LASF137
 1387 087a 11       		.byte	0x11
 1388 087b 41       		.byte	0x41
 1389 087c 1A010000 		.4byte	0x11a
 1390 0880 0C       		.byte	0xc
 1391 0881 07       		.uleb128 0x7
 1392 0882 7B040000 		.4byte	.LASF138
 1393 0886 11       		.byte	0x11
 1394 0887 43       		.byte	0x43
 1395 0888 1A010000 		.4byte	0x11a
 1396 088c 10       		.byte	0x10
 1397 088d 00       		.byte	0
 1398 088e 0A       		.uleb128 0xa
ARM GAS  C:\Users\Luis\AppData\Local\Temp\ccb1FswK.s 			page 26


 1399 088f 04       		.byte	0x4
 1400 0890 3A080000 		.4byte	0x83a
 1401 0894 06       		.uleb128 0x6
 1402 0895 CD000000 		.4byte	.LASF139
 1403 0899 04       		.byte	0x4
 1404 089a 11       		.byte	0x11
 1405 089b 4A       		.byte	0x4a
 1406 089c AD080000 		.4byte	0x8ad
 1407 08a0 07       		.uleb128 0x7
 1408 08a1 AC030000 		.4byte	.LASF140
 1409 08a5 11       		.byte	0x11
 1410 08a6 4B       		.byte	0x4b
 1411 08a7 8E080000 		.4byte	0x88e
 1412 08ab 00       		.byte	0
 1413 08ac 00       		.byte	0
 1414 08ad 03       		.uleb128 0x3
 1415 08ae EC030000 		.4byte	.LASF141
 1416 08b2 11       		.byte	0x11
 1417 08b3 4E       		.byte	0x4e
 1418 08b4 94080000 		.4byte	0x894
 1419 08b8 15       		.uleb128 0x15
 1420 08b9 28       		.byte	0x28
 1421 08ba 12       		.byte	0x12
 1422 08bb 38       		.byte	0x38
 1423 08bc 09090000 		.4byte	0x909
 1424 08c0 07       		.uleb128 0x7
 1425 08c1 F3050000 		.4byte	.LASF142
 1426 08c5 12       		.byte	0x12
 1427 08c6 39       		.byte	0x39
 1428 08c7 09090000 		.4byte	0x909
 1429 08cb 00       		.byte	0
 1430 08cc 07       		.uleb128 0x7
 1431 08cd 21070000 		.4byte	.LASF143
 1432 08d1 12       		.byte	0x12
 1433 08d2 3B       		.byte	0x3b
 1434 08d3 09090000 		.4byte	0x909
 1435 08d7 04       		.byte	0x4
 1436 08d8 07       		.uleb128 0x7
 1437 08d9 21080000 		.4byte	.LASF144
 1438 08dd 12       		.byte	0x12
 1439 08de 3D       		.byte	0x3d
 1440 08df 09090000 		.4byte	0x909
 1441 08e3 08       		.byte	0x8
 1442 08e4 07       		.uleb128 0x7
 1443 08e5 CC040000 		.4byte	.LASF145
 1444 08e9 12       		.byte	0x12
 1445 08ea 3E       		.byte	0x3e
 1446 08eb 09090000 		.4byte	0x909
 1447 08ef 0C       		.byte	0xc
 1448 08f0 07       		.uleb128 0x7
 1449 08f1 10060000 		.4byte	.LASF146
 1450 08f5 12       		.byte	0x12
 1451 08f6 3F       		.byte	0x3f
 1452 08f7 1E080000 		.4byte	0x81e
 1453 08fb 10       		.byte	0x10
 1454 08fc 07       		.uleb128 0x7
 1455 08fd 15050000 		.4byte	.LASF147
ARM GAS  C:\Users\Luis\AppData\Local\Temp\ccb1FswK.s 			page 27


 1456 0901 12       		.byte	0x12
 1457 0902 41       		.byte	0x41
 1458 0903 1E080000 		.4byte	0x81e
 1459 0907 1C       		.byte	0x1c
 1460 0908 00       		.byte	0
 1461 0909 0A       		.uleb128 0xa
 1462 090a 04       		.byte	0x4
 1463 090b 04010000 		.4byte	0x104
 1464 090f 03       		.uleb128 0x3
 1465 0910 DA040000 		.4byte	.LASF148
 1466 0914 12       		.byte	0x12
 1467 0915 43       		.byte	0x43
 1468 0916 B8080000 		.4byte	0x8b8
 1469 091a 03       		.uleb128 0x3
 1470 091b 02030000 		.4byte	.LASF149
 1471 091f 13       		.byte	0x13
 1472 0920 3F       		.byte	0x3f
 1473 0921 25090000 		.4byte	0x925
 1474 0925 06       		.uleb128 0x6
 1475 0926 890A0000 		.4byte	.LASF150
 1476 092a 24       		.byte	0x24
 1477 092b 13       		.byte	0x13
 1478 092c 4D       		.byte	0x4d
 1479 092d 92090000 		.4byte	0x992
 1480 0931 07       		.uleb128 0x7
 1481 0932 24030000 		.4byte	.LASF151
 1482 0936 13       		.byte	0x13
 1483 0937 4E       		.byte	0x4e
 1484 0938 99020000 		.4byte	0x299
 1485 093c 00       		.byte	0
 1486 093d 07       		.uleb128 0x7
 1487 093e F1080000 		.4byte	.LASF152
 1488 0942 13       		.byte	0x13
 1489 0943 4F       		.byte	0x4f
 1490 0944 B4090000 		.4byte	0x9b4
 1491 0948 08       		.byte	0x8
 1492 0949 07       		.uleb128 0x7
 1493 094a 2D0B0000 		.4byte	.LASF153
 1494 094e 13       		.byte	0x13
 1495 094f 50       		.byte	0x50
 1496 0950 B9090000 		.4byte	0x9b9
 1497 0954 0C       		.byte	0xc
 1498 0955 07       		.uleb128 0x7
 1499 0956 0A090000 		.4byte	.LASF154
 1500 095a 13       		.byte	0x13
 1501 095b 51       		.byte	0x51
 1502 095c B9090000 		.4byte	0x9b9
 1503 0960 10       		.byte	0x10
 1504 0961 07       		.uleb128 0x7
 1505 0962 C6050000 		.4byte	.LASF155
 1506 0966 13       		.byte	0x13
 1507 0967 53       		.byte	0x53
 1508 0968 B9090000 		.4byte	0x9b9
 1509 096c 14       		.byte	0x14
 1510 096d 07       		.uleb128 0x7
 1511 096e 7F010000 		.4byte	.LASF156
 1512 0972 13       		.byte	0x13
ARM GAS  C:\Users\Luis\AppData\Local\Temp\ccb1FswK.s 			page 28


 1513 0973 54       		.byte	0x54
 1514 0974 B9090000 		.4byte	0x9b9
 1515 0978 18       		.byte	0x18
 1516 0979 07       		.uleb128 0x7
 1517 097a 120B0000 		.4byte	.LASF157
 1518 097e 13       		.byte	0x13
 1519 097f 55       		.byte	0x55
 1520 0980 92090000 		.4byte	0x992
 1521 0984 1C       		.byte	0x1c
 1522 0985 07       		.uleb128 0x7
 1523 0986 9E020000 		.4byte	.LASF158
 1524 098a 13       		.byte	0x13
 1525 098b 56       		.byte	0x56
 1526 098c 4C030000 		.4byte	0x34c
 1527 0990 20       		.byte	0x20
 1528 0991 00       		.byte	0
 1529 0992 03       		.uleb128 0x3
 1530 0993 A8010000 		.4byte	.LASF159
 1531 0997 13       		.byte	0x13
 1532 0998 42       		.byte	0x42
 1533 0999 9D090000 		.4byte	0x99d
 1534 099d 0A       		.uleb128 0xa
 1535 099e 04       		.byte	0x4
 1536 099f A3090000 		.4byte	0x9a3
 1537 09a3 0C       		.uleb128 0xc
 1538 09a4 AE090000 		.4byte	0x9ae
 1539 09a8 0D       		.uleb128 0xd
 1540 09a9 AE090000 		.4byte	0x9ae
 1541 09ad 00       		.byte	0
 1542 09ae 0A       		.uleb128 0xa
 1543 09af 04       		.byte	0x4
 1544 09b0 1A090000 		.4byte	0x91a
 1545 09b4 05       		.uleb128 0x5
 1546 09b5 2C000000 		.4byte	0x2c
 1547 09b9 0A       		.uleb128 0xa
 1548 09ba 04       		.byte	0x4
 1549 09bb 50000000 		.4byte	0x50
 1550 09bf 03       		.uleb128 0x3
 1551 09c0 28060000 		.4byte	.LASF160
 1552 09c4 13       		.byte	0x13
 1553 09c5 64       		.byte	0x64
 1554 09c6 1A090000 		.4byte	0x91a
 1555 09ca 03       		.uleb128 0x3
 1556 09cb 08070000 		.4byte	.LASF161
 1557 09cf 13       		.byte	0x13
 1558 09d0 71       		.byte	0x71
 1559 09d1 1A090000 		.4byte	0x91a
 1560 09d5 06       		.uleb128 0x6
 1561 09d6 87010000 		.4byte	.LASF162
 1562 09da 10       		.byte	0x10
 1563 09db 14       		.byte	0x14
 1564 09dc 40       		.byte	0x40
 1565 09dd 120A0000 		.4byte	0xa12
 1566 09e1 07       		.uleb128 0x7
 1567 09e2 A1060000 		.4byte	.LASF163
 1568 09e6 14       		.byte	0x14
 1569 09e7 41       		.byte	0x41
ARM GAS  C:\Users\Luis\AppData\Local\Temp\ccb1FswK.s 			page 29


 1570 09e8 360A0000 		.4byte	0xa36
 1571 09ec 00       		.byte	0
 1572 09ed 07       		.uleb128 0x7
 1573 09ee D6080000 		.4byte	.LASF164
 1574 09f2 14       		.byte	0x14
 1575 09f3 41       		.byte	0x41
 1576 09f4 550A0000 		.4byte	0xa55
 1577 09f8 04       		.byte	0x4
 1578 09f9 14       		.uleb128 0x14
 1579 09fa 70757400 		.ascii	"put\000"
 1580 09fe 14       		.byte	0x14
 1581 09ff 41       		.byte	0x41
 1582 0a00 6F0A0000 		.4byte	0xa6f
 1583 0a04 08       		.byte	0x8
 1584 0a05 14       		.uleb128 0x14
 1585 0a06 67657400 		.ascii	"get\000"
 1586 0a0a 14       		.byte	0x14
 1587 0a0b 41       		.byte	0x41
 1588 0a0c 840A0000 		.4byte	0xa84
 1589 0a10 0C       		.byte	0xc
 1590 0a11 00       		.byte	0
 1591 0a12 1C       		.uleb128 0x1c
 1592 0a13 2C000000 		.4byte	0x2c
 1593 0a17 2B0A0000 		.4byte	0xa2b
 1594 0a1b 0D       		.uleb128 0xd
 1595 0a1c 4C030000 		.4byte	0x34c
 1596 0a20 0D       		.uleb128 0xd
 1597 0a21 2B0A0000 		.4byte	0xa2b
 1598 0a25 0D       		.uleb128 0xd
 1599 0a26 2C000000 		.4byte	0x2c
 1600 0a2a 00       		.byte	0
 1601 0a2b 0A       		.uleb128 0xa
 1602 0a2c 04       		.byte	0x4
 1603 0a2d 310A0000 		.4byte	0xa31
 1604 0a31 1B       		.uleb128 0x1b
 1605 0a32 50000000 		.4byte	0x50
 1606 0a36 0A       		.uleb128 0xa
 1607 0a37 04       		.byte	0x4
 1608 0a38 120A0000 		.4byte	0xa12
 1609 0a3c 1C       		.uleb128 0x1c
 1610 0a3d 2C000000 		.4byte	0x2c
 1611 0a41 550A0000 		.4byte	0xa55
 1612 0a45 0D       		.uleb128 0xd
 1613 0a46 4C030000 		.4byte	0x34c
 1614 0a4a 0D       		.uleb128 0xd
 1615 0a4b B9090000 		.4byte	0x9b9
 1616 0a4f 0D       		.uleb128 0xd
 1617 0a50 2C000000 		.4byte	0x2c
 1618 0a54 00       		.byte	0
 1619 0a55 0A       		.uleb128 0xa
 1620 0a56 04       		.byte	0x4
 1621 0a57 3C0A0000 		.4byte	0xa3c
 1622 0a5b 1C       		.uleb128 0x1c
 1623 0a5c 04010000 		.4byte	0x104
 1624 0a60 6F0A0000 		.4byte	0xa6f
 1625 0a64 0D       		.uleb128 0xd
 1626 0a65 4C030000 		.4byte	0x34c
ARM GAS  C:\Users\Luis\AppData\Local\Temp\ccb1FswK.s 			page 30


 1627 0a69 0D       		.uleb128 0xd
 1628 0a6a 50000000 		.4byte	0x50
 1629 0a6e 00       		.byte	0
 1630 0a6f 0A       		.uleb128 0xa
 1631 0a70 04       		.byte	0x4
 1632 0a71 5B0A0000 		.4byte	0xa5b
 1633 0a75 1C       		.uleb128 0x1c
 1634 0a76 04010000 		.4byte	0x104
 1635 0a7a 840A0000 		.4byte	0xa84
 1636 0a7e 0D       		.uleb128 0xd
 1637 0a7f 4C030000 		.4byte	0x34c
 1638 0a83 00       		.byte	0
 1639 0a84 0A       		.uleb128 0xa
 1640 0a85 04       		.byte	0x4
 1641 0a86 750A0000 		.4byte	0xa75
 1642 0a8a 15       		.uleb128 0x15
 1643 0a8b 04       		.byte	0x4
 1644 0a8c 14       		.byte	0x14
 1645 0a8d 49       		.byte	0x49
 1646 0a8e 9F0A0000 		.4byte	0xa9f
 1647 0a92 14       		.uleb128 0x14
 1648 0a93 766D7400 		.ascii	"vmt\000"
 1649 0a97 14       		.byte	0x14
 1650 0a98 4B       		.byte	0x4b
 1651 0a99 9F0A0000 		.4byte	0xa9f
 1652 0a9d 00       		.byte	0
 1653 0a9e 00       		.byte	0
 1654 0a9f 0A       		.uleb128 0xa
 1655 0aa0 04       		.byte	0x4
 1656 0aa1 A50A0000 		.4byte	0xaa5
 1657 0aa5 1B       		.uleb128 0x1b
 1658 0aa6 D5090000 		.4byte	0x9d5
 1659 0aaa 03       		.uleb128 0x3
 1660 0aab 83050000 		.4byte	.LASF165
 1661 0aaf 14       		.byte	0x14
 1662 0ab0 4D       		.byte	0x4d
 1663 0ab1 8A0A0000 		.4byte	0xa8a
 1664 0ab5 1C       		.uleb128 0x1c
 1665 0ab6 04010000 		.4byte	0x104
 1666 0aba CE0A0000 		.4byte	0xace
 1667 0abe 0D       		.uleb128 0xd
 1668 0abf 4C030000 		.4byte	0x34c
 1669 0ac3 0D       		.uleb128 0xd
 1670 0ac4 50000000 		.4byte	0x50
 1671 0ac8 0D       		.uleb128 0xd
 1672 0ac9 3B010000 		.4byte	0x13b
 1673 0acd 00       		.byte	0
 1674 0ace 0A       		.uleb128 0xa
 1675 0acf 04       		.byte	0x4
 1676 0ad0 B50A0000 		.4byte	0xab5
 1677 0ad4 1C       		.uleb128 0x1c
 1678 0ad5 04010000 		.4byte	0x104
 1679 0ad9 E80A0000 		.4byte	0xae8
 1680 0add 0D       		.uleb128 0xd
 1681 0ade 4C030000 		.4byte	0x34c
 1682 0ae2 0D       		.uleb128 0xd
 1683 0ae3 3B010000 		.4byte	0x13b
ARM GAS  C:\Users\Luis\AppData\Local\Temp\ccb1FswK.s 			page 31


 1684 0ae7 00       		.byte	0
 1685 0ae8 0A       		.uleb128 0xa
 1686 0ae9 04       		.byte	0x4
 1687 0aea D40A0000 		.4byte	0xad4
 1688 0aee 1C       		.uleb128 0x1c
 1689 0aef 2C000000 		.4byte	0x2c
 1690 0af3 0C0B0000 		.4byte	0xb0c
 1691 0af7 0D       		.uleb128 0xd
 1692 0af8 4C030000 		.4byte	0x34c
 1693 0afc 0D       		.uleb128 0xd
 1694 0afd 2B0A0000 		.4byte	0xa2b
 1695 0b01 0D       		.uleb128 0xd
 1696 0b02 2C000000 		.4byte	0x2c
 1697 0b06 0D       		.uleb128 0xd
 1698 0b07 3B010000 		.4byte	0x13b
 1699 0b0b 00       		.byte	0
 1700 0b0c 0A       		.uleb128 0xa
 1701 0b0d 04       		.byte	0x4
 1702 0b0e EE0A0000 		.4byte	0xaee
 1703 0b12 1C       		.uleb128 0x1c
 1704 0b13 2C000000 		.4byte	0x2c
 1705 0b17 300B0000 		.4byte	0xb30
 1706 0b1b 0D       		.uleb128 0xd
 1707 0b1c 4C030000 		.4byte	0x34c
 1708 0b20 0D       		.uleb128 0xd
 1709 0b21 B9090000 		.4byte	0x9b9
 1710 0b25 0D       		.uleb128 0xd
 1711 0b26 2C000000 		.4byte	0x2c
 1712 0b2a 0D       		.uleb128 0xd
 1713 0b2b 3B010000 		.4byte	0x13b
 1714 0b2f 00       		.byte	0
 1715 0b30 0A       		.uleb128 0xa
 1716 0b31 04       		.byte	0x4
 1717 0b32 120B0000 		.4byte	0xb12
 1718 0b36 04       		.uleb128 0x4
 1719 0b37 01       		.byte	0x1
 1720 0b38 02       		.byte	0x2
 1721 0b39 BE040000 		.4byte	.LASF166
 1722 0b3d 1D       		.uleb128 0x1d
 1723 0b3e 01       		.byte	0x1
 1724 0b3f 15       		.byte	0x15
 1725 0b40 55       		.byte	0x55
 1726 0b41 580B0000 		.4byte	0xb58
 1727 0b45 1E       		.uleb128 0x1e
 1728 0b46 E7080000 		.4byte	.LASF167
 1729 0b4a 00       		.sleb128 0
 1730 0b4b 1E       		.uleb128 0x1e
 1731 0b4c C4040000 		.4byte	.LASF168
 1732 0b50 01       		.sleb128 1
 1733 0b51 1E       		.uleb128 0x1e
 1734 0b52 D9070000 		.4byte	.LASF169
 1735 0b56 02       		.sleb128 2
 1736 0b57 00       		.byte	0
 1737 0b58 03       		.uleb128 0x3
 1738 0b59 76030000 		.4byte	.LASF170
 1739 0b5d 15       		.byte	0x15
 1740 0b5e 59       		.byte	0x59
ARM GAS  C:\Users\Luis\AppData\Local\Temp\ccb1FswK.s 			page 32


 1741 0b5f 3D0B0000 		.4byte	0xb3d
 1742 0b63 03       		.uleb128 0x3
 1743 0b64 63000000 		.4byte	.LASF171
 1744 0b68 15       		.byte	0x15
 1745 0b69 5E       		.byte	0x5e
 1746 0b6a 6E0B0000 		.4byte	0xb6e
 1747 0b6e 1F       		.uleb128 0x1f
 1748 0b6f 63000000 		.4byte	.LASF171
 1749 0b73 5820     		.2byte	0x2058
 1750 0b75 15       		.byte	0x15
 1751 0b76 78       		.byte	0x78
 1752 0b77 DC0B0000 		.4byte	0xbdc
 1753 0b7b 14       		.uleb128 0x14
 1754 0b7c 766D7400 		.ascii	"vmt\000"
 1755 0b80 15       		.byte	0x15
 1756 0b81 7A       		.byte	0x7a
 1757 0b82 490C0000 		.4byte	0xc49
 1758 0b86 00       		.byte	0
 1759 0b87 07       		.uleb128 0x7
 1760 0b88 80030000 		.4byte	.LASF172
 1761 0b8c 15       		.byte	0x15
 1762 0b8d 7B       		.byte	0x7b
 1763 0b8e AD080000 		.4byte	0x8ad
 1764 0b92 04       		.byte	0x4
 1765 0b93 07       		.uleb128 0x7
 1766 0b94 1B0A0000 		.4byte	.LASF173
 1767 0b98 15       		.byte	0x15
 1768 0b99 7B       		.byte	0x7b
 1769 0b9a 580B0000 		.4byte	0xb58
 1770 0b9e 08       		.byte	0x8
 1771 0b9f 07       		.uleb128 0x7
 1772 0ba0 0D030000 		.4byte	.LASF174
 1773 0ba4 15       		.byte	0x15
 1774 0ba5 7B       		.byte	0x7b
 1775 0ba6 BF090000 		.4byte	0x9bf
 1776 0baa 0C       		.byte	0xc
 1777 0bab 07       		.uleb128 0x7
 1778 0bac A4070000 		.4byte	.LASF175
 1779 0bb0 15       		.byte	0x15
 1780 0bb1 7B       		.byte	0x7b
 1781 0bb2 CA090000 		.4byte	0x9ca
 1782 0bb6 30       		.byte	0x30
 1783 0bb7 14       		.uleb128 0x14
 1784 0bb8 696200   		.ascii	"ib\000"
 1785 0bbb 15       		.byte	0x15
 1786 0bbc 7B       		.byte	0x7b
 1787 0bbd 540C0000 		.4byte	0xc54
 1788 0bc1 54       		.byte	0x54
 1789 0bc2 20       		.uleb128 0x20
 1790 0bc3 6F6200   		.ascii	"ob\000"
 1791 0bc6 15       		.byte	0x15
 1792 0bc7 7B       		.byte	0x7b
 1793 0bc8 540C0000 		.4byte	0xc54
 1794 0bcc 5410     		.2byte	0x1054
 1795 0bce 21       		.uleb128 0x21
 1796 0bcf 6B060000 		.4byte	.LASF176
 1797 0bd3 15       		.byte	0x15
ARM GAS  C:\Users\Luis\AppData\Local\Temp\ccb1FswK.s 			page 33


 1798 0bd4 7B       		.byte	0x7b
 1799 0bd5 650C0000 		.4byte	0xc65
 1800 0bd9 5420     		.2byte	0x2054
 1801 0bdb 00       		.byte	0
 1802 0bdc 06       		.uleb128 0x6
 1803 0bdd 9A0A0000 		.4byte	.LASF177
 1804 0be1 20       		.byte	0x20
 1805 0be2 15       		.byte	0x15
 1806 0be3 6D       		.byte	0x6d
 1807 0be4 490C0000 		.4byte	0xc49
 1808 0be8 07       		.uleb128 0x7
 1809 0be9 A1060000 		.4byte	.LASF163
 1810 0bed 15       		.byte	0x15
 1811 0bee 6E       		.byte	0x6e
 1812 0bef 360A0000 		.4byte	0xa36
 1813 0bf3 00       		.byte	0
 1814 0bf4 07       		.uleb128 0x7
 1815 0bf5 D6080000 		.4byte	.LASF164
 1816 0bf9 15       		.byte	0x15
 1817 0bfa 6E       		.byte	0x6e
 1818 0bfb 550A0000 		.4byte	0xa55
 1819 0bff 04       		.byte	0x4
 1820 0c00 14       		.uleb128 0x14
 1821 0c01 70757400 		.ascii	"put\000"
 1822 0c05 15       		.byte	0x15
 1823 0c06 6E       		.byte	0x6e
 1824 0c07 6F0A0000 		.4byte	0xa6f
 1825 0c0b 08       		.byte	0x8
 1826 0c0c 14       		.uleb128 0x14
 1827 0c0d 67657400 		.ascii	"get\000"
 1828 0c11 15       		.byte	0x15
 1829 0c12 6E       		.byte	0x6e
 1830 0c13 840A0000 		.4byte	0xa84
 1831 0c17 0C       		.byte	0xc
 1832 0c18 07       		.uleb128 0x7
 1833 0c19 94040000 		.4byte	.LASF178
 1834 0c1d 15       		.byte	0x15
 1835 0c1e 6E       		.byte	0x6e
 1836 0c1f CE0A0000 		.4byte	0xace
 1837 0c23 10       		.byte	0x10
 1838 0c24 07       		.uleb128 0x7
 1839 0c25 05090000 		.4byte	.LASF179
 1840 0c29 15       		.byte	0x15
 1841 0c2a 6E       		.byte	0x6e
 1842 0c2b E80A0000 		.4byte	0xae8
 1843 0c2f 14       		.byte	0x14
 1844 0c30 07       		.uleb128 0x7
 1845 0c31 E0020000 		.4byte	.LASF180
 1846 0c35 15       		.byte	0x15
 1847 0c36 6E       		.byte	0x6e
 1848 0c37 0C0B0000 		.4byte	0xb0c
 1849 0c3b 18       		.byte	0x18
 1850 0c3c 07       		.uleb128 0x7
 1851 0c3d B8010000 		.4byte	.LASF181
 1852 0c41 15       		.byte	0x15
 1853 0c42 6E       		.byte	0x6e
 1854 0c43 300B0000 		.4byte	0xb30
ARM GAS  C:\Users\Luis\AppData\Local\Temp\ccb1FswK.s 			page 34


 1855 0c47 1C       		.byte	0x1c
 1856 0c48 00       		.byte	0
 1857 0c49 0A       		.uleb128 0xa
 1858 0c4a 04       		.byte	0x4
 1859 0c4b 4F0C0000 		.4byte	0xc4f
 1860 0c4f 1B       		.uleb128 0x1b
 1861 0c50 DC0B0000 		.4byte	0xbdc
 1862 0c54 17       		.uleb128 0x17
 1863 0c55 50000000 		.4byte	0x50
 1864 0c59 650C0000 		.4byte	0xc65
 1865 0c5d 22       		.uleb128 0x22
 1866 0c5e BB040000 		.4byte	0x4bb
 1867 0c62 FF0F     		.2byte	0xfff
 1868 0c64 00       		.byte	0
 1869 0c65 0A       		.uleb128 0xa
 1870 0c66 04       		.byte	0x4
 1871 0c67 25050000 		.4byte	0x525
 1872 0c6b 03       		.uleb128 0x3
 1873 0c6c DA060000 		.4byte	.LASF182
 1874 0c70 16       		.byte	0x16
 1875 0c71 38       		.byte	0x38
 1876 0c72 50000000 		.4byte	0x50
 1877 0c76 03       		.uleb128 0x3
 1878 0c77 FD040000 		.4byte	.LASF183
 1879 0c7b 16       		.byte	0x16
 1880 0c7c 39       		.byte	0x39
 1881 0c7d 3E000000 		.4byte	0x3e
 1882 0c81 03       		.uleb128 0x3
 1883 0c82 B2010000 		.4byte	.LASF184
 1884 0c86 16       		.byte	0x16
 1885 0c87 3A       		.byte	0x3a
 1886 0c88 69000000 		.4byte	0x69
 1887 0c8c 03       		.uleb128 0x3
 1888 0c8d 11080000 		.4byte	.LASF185
 1889 0c91 16       		.byte	0x16
 1890 0c92 3C       		.byte	0x3c
 1891 0c93 8D000000 		.4byte	0x8d
 1892 0c97 03       		.uleb128 0x3
 1893 0c98 64010000 		.4byte	.LASF186
 1894 0c9c 17       		.byte	0x17
 1895 0c9d 2F       		.byte	0x2f
 1896 0c9e 760C0000 		.4byte	0xc76
 1897 0ca2 06       		.uleb128 0x6
 1898 0ca3 E3090000 		.4byte	.LASF187
 1899 0ca7 10       		.byte	0x10
 1900 0ca8 18       		.byte	0x18
 1901 0ca9 4F       		.byte	0x4f
 1902 0caa 030D0000 		.4byte	0xd03
 1903 0cae 07       		.uleb128 0x7
 1904 0caf 31010000 		.4byte	.LASF188
 1905 0cb3 18       		.byte	0x18
 1906 0cb4 51       		.byte	0x51
 1907 0cb5 030D0000 		.4byte	0xd03
 1908 0cb9 00       		.byte	0
 1909 0cba 07       		.uleb128 0x7
 1910 0cbb AF040000 		.4byte	.LASF189
 1911 0cbf 18       		.byte	0x18
ARM GAS  C:\Users\Luis\AppData\Local\Temp\ccb1FswK.s 			page 35


 1912 0cc0 54       		.byte	0x54
 1913 0cc1 4C030000 		.4byte	0x34c
 1914 0cc5 04       		.byte	0x4
 1915 0cc6 07       		.uleb128 0x7
 1916 0cc7 99040000 		.4byte	.LASF190
 1917 0ccb 18       		.byte	0x18
 1918 0ccc 5D       		.byte	0x5d
 1919 0ccd 810C0000 		.4byte	0xc81
 1920 0cd1 08       		.byte	0x8
 1921 0cd2 14       		.uleb128 0x14
 1922 0cd3 6C656E00 		.ascii	"len\000"
 1923 0cd7 18       		.byte	0x18
 1924 0cd8 60       		.byte	0x60
 1925 0cd9 810C0000 		.4byte	0xc81
 1926 0cdd 0A       		.byte	0xa
 1927 0cde 07       		.uleb128 0x7
 1928 0cdf 1B060000 		.4byte	.LASF191
 1929 0ce3 18       		.byte	0x18
 1930 0ce4 63       		.byte	0x63
 1931 0ce5 6B0C0000 		.4byte	0xc6b
 1932 0ce9 0C       		.byte	0xc
 1933 0cea 07       		.uleb128 0x7
 1934 0ceb DA000000 		.4byte	.LASF192
 1935 0cef 18       		.byte	0x18
 1936 0cf0 66       		.byte	0x66
 1937 0cf1 6B0C0000 		.4byte	0xc6b
 1938 0cf5 0D       		.byte	0xd
 1939 0cf6 14       		.uleb128 0x14
 1940 0cf7 72656600 		.ascii	"ref\000"
 1941 0cfb 18       		.byte	0x18
 1942 0cfc 6D       		.byte	0x6d
 1943 0cfd 810C0000 		.4byte	0xc81
 1944 0d01 0E       		.byte	0xe
 1945 0d02 00       		.byte	0
 1946 0d03 0A       		.uleb128 0xa
 1947 0d04 04       		.byte	0x4
 1948 0d05 A20C0000 		.4byte	0xca2
 1949 0d09 06       		.uleb128 0x6
 1950 0d0a 360B0000 		.4byte	.LASF193
 1951 0d0e 04       		.byte	0x4
 1952 0d0f 19       		.byte	0x19
 1953 0d10 2C       		.byte	0x2c
 1954 0d11 220D0000 		.4byte	0xd22
 1955 0d15 07       		.uleb128 0x7
 1956 0d16 0F0A0000 		.4byte	.LASF194
 1957 0d1a 19       		.byte	0x19
 1958 0d1b 2D       		.byte	0x2d
 1959 0d1c 8C0C0000 		.4byte	0xc8c
 1960 0d20 00       		.byte	0
 1961 0d21 00       		.byte	0
 1962 0d22 03       		.uleb128 0x3
 1963 0d23 000B0000 		.4byte	.LASF195
 1964 0d27 19       		.byte	0x19
 1965 0d28 40       		.byte	0x40
 1966 0d29 090D0000 		.4byte	0xd09
 1967 0d2d 06       		.uleb128 0x6
 1968 0d2e A1050000 		.4byte	.LASF196
ARM GAS  C:\Users\Luis\AppData\Local\Temp\ccb1FswK.s 			page 36


 1969 0d32 10       		.byte	0x10
 1970 0d33 1A       		.byte	0x1a
 1971 0d34 30       		.byte	0x30
 1972 0d35 680D0000 		.4byte	0xd68
 1973 0d39 14       		.uleb128 0x14
 1974 0d3a 7000     		.ascii	"p\000"
 1975 0d3c 1A       		.byte	0x1a
 1976 0d3d 31       		.byte	0x31
 1977 0d3e 030D0000 		.4byte	0xd03
 1978 0d42 00       		.byte	0
 1979 0d43 14       		.uleb128 0x14
 1980 0d44 70747200 		.ascii	"ptr\000"
 1981 0d48 1A       		.byte	0x1a
 1982 0d49 31       		.byte	0x31
 1983 0d4a 030D0000 		.4byte	0xd03
 1984 0d4e 04       		.byte	0x4
 1985 0d4f 07       		.uleb128 0x7
 1986 0d50 0F0A0000 		.4byte	.LASF194
 1987 0d54 1A       		.byte	0x1a
 1988 0d55 32       		.byte	0x32
 1989 0d56 220D0000 		.4byte	0xd22
 1990 0d5a 08       		.byte	0x8
 1991 0d5b 07       		.uleb128 0x7
 1992 0d5c 50090000 		.4byte	.LASF197
 1993 0d60 1A       		.byte	0x1a
 1994 0d61 33       		.byte	0x33
 1995 0d62 810C0000 		.4byte	0xc81
 1996 0d66 0C       		.byte	0xc
 1997 0d67 00       		.byte	0
 1998 0d68 03       		.uleb128 0x3
 1999 0d69 A6080000 		.4byte	.LASF198
 2000 0d6d 1B       		.byte	0x1b
 2001 0d6e 38       		.byte	0x38
 2002 0d6f 730D0000 		.4byte	0xd73
 2003 0d73 0A       		.uleb128 0xa
 2004 0d74 04       		.byte	0x4
 2005 0d75 1E080000 		.4byte	0x81e
 2006 0d79 03       		.uleb128 0x3
 2007 0d7a 17090000 		.4byte	.LASF199
 2008 0d7e 1B       		.byte	0x1b
 2009 0d7f 39       		.byte	0x39
 2010 0d80 840D0000 		.4byte	0xd84
 2011 0d84 0A       		.uleb128 0xa
 2012 0d85 04       		.byte	0x4
 2013 0d86 0F090000 		.4byte	0x90f
 2014 0d8a 23       		.uleb128 0x23
 2015 0d8b B8000000 		.4byte	.LASF206
 2016 0d8f 01       		.byte	0x1
 2017 0d90 1C       		.byte	0x1c
 2018 0d91 53       		.byte	0x53
 2019 0d92 BC0D0000 		.4byte	0xdbc
 2020 0d96 1E       		.uleb128 0x1e
 2021 0d97 DC030000 		.4byte	.LASF200
 2022 0d9b 00       		.sleb128 0
 2023 0d9c 1E       		.uleb128 0x1e
 2024 0d9d D7090000 		.4byte	.LASF201
 2025 0da1 10       		.sleb128 16
ARM GAS  C:\Users\Luis\AppData\Local\Temp\ccb1FswK.s 			page 37


 2026 0da2 1E       		.uleb128 0x1e
 2027 0da3 6F040000 		.4byte	.LASF202
 2028 0da7 20       		.sleb128 32
 2029 0da8 1E       		.uleb128 0x1e
 2030 0da9 C30A0000 		.4byte	.LASF203
 2031 0dad 21       		.sleb128 33
 2032 0dae 1E       		.uleb128 0x1e
 2033 0daf 41010000 		.4byte	.LASF204
 2034 0db3 22       		.sleb128 34
 2035 0db4 1E       		.uleb128 0x1e
 2036 0db5 B70A0000 		.4byte	.LASF205
 2037 0db9 C000     		.sleb128 64
 2038 0dbb 00       		.byte	0
 2039 0dbc 23       		.uleb128 0x23
 2040 0dbd C9020000 		.4byte	.LASF207
 2041 0dc1 01       		.byte	0x1
 2042 0dc2 1C       		.byte	0x1c
 2043 0dc3 61       		.byte	0x61
 2044 0dc4 E70D0000 		.4byte	0xde7
 2045 0dc8 1E       		.uleb128 0x1e
 2046 0dc9 B4070000 		.4byte	.LASF208
 2047 0dcd 00       		.sleb128 0
 2048 0dce 1E       		.uleb128 0x1e
 2049 0dcf 23010000 		.4byte	.LASF209
 2050 0dd3 01       		.sleb128 1
 2051 0dd4 1E       		.uleb128 0x1e
 2052 0dd5 E8090000 		.4byte	.LASF210
 2053 0dd9 02       		.sleb128 2
 2054 0dda 1E       		.uleb128 0x1e
 2055 0ddb C9070000 		.4byte	.LASF211
 2056 0ddf 03       		.sleb128 3
 2057 0de0 1E       		.uleb128 0x1e
 2058 0de1 4E0A0000 		.4byte	.LASF212
 2059 0de5 04       		.sleb128 4
 2060 0de6 00       		.byte	0
 2061 0de7 23       		.uleb128 0x23
 2062 0de8 69090000 		.4byte	.LASF213
 2063 0dec 01       		.byte	0x1
 2064 0ded 1C       		.byte	0x1c
 2065 0dee 6A       		.byte	0x6a
 2066 0def 120E0000 		.4byte	0xe12
 2067 0df3 1E       		.uleb128 0x1e
 2068 0df4 4A040000 		.4byte	.LASF214
 2069 0df8 00       		.sleb128 0
 2070 0df9 1E       		.uleb128 0x1e
 2071 0dfa 67050000 		.4byte	.LASF215
 2072 0dfe 01       		.sleb128 1
 2073 0dff 1E       		.uleb128 0x1e
 2074 0e00 21050000 		.4byte	.LASF216
 2075 0e04 02       		.sleb128 2
 2076 0e05 1E       		.uleb128 0x1e
 2077 0e06 FB030000 		.4byte	.LASF217
 2078 0e0a 03       		.sleb128 3
 2079 0e0b 1E       		.uleb128 0x1e
 2080 0e0c 64030000 		.4byte	.LASF218
 2081 0e10 04       		.sleb128 4
 2082 0e11 00       		.byte	0
ARM GAS  C:\Users\Luis\AppData\Local\Temp\ccb1FswK.s 			page 38


 2083 0e12 03       		.uleb128 0x3
 2084 0e13 75090000 		.4byte	.LASF219
 2085 0e17 1C       		.byte	0x1c
 2086 0e18 83       		.byte	0x83
 2087 0e19 1D0E0000 		.4byte	0xe1d
 2088 0e1d 0A       		.uleb128 0xa
 2089 0e1e 04       		.byte	0x4
 2090 0e1f 230E0000 		.4byte	0xe23
 2091 0e23 0C       		.uleb128 0xc
 2092 0e24 380E0000 		.4byte	0xe38
 2093 0e28 0D       		.uleb128 0xd
 2094 0e29 380E0000 		.4byte	0xe38
 2095 0e2d 0D       		.uleb128 0xd
 2096 0e2e E70D0000 		.4byte	0xde7
 2097 0e32 0D       		.uleb128 0xd
 2098 0e33 810C0000 		.4byte	0xc81
 2099 0e37 00       		.byte	0
 2100 0e38 0A       		.uleb128 0xa
 2101 0e39 04       		.byte	0x4
 2102 0e3a 3E0E0000 		.4byte	0xe3e
 2103 0e3e 06       		.uleb128 0x6
 2104 0e3f 0A0B0000 		.4byte	.LASF220
 2105 0e43 2C       		.byte	0x2c
 2106 0e44 1C       		.byte	0x1c
 2107 0e45 86       		.byte	0x86
 2108 0e46 DB0E0000 		.4byte	0xedb
 2109 0e4a 07       		.uleb128 0x7
 2110 0e4b 1B060000 		.4byte	.LASF191
 2111 0e4f 1C       		.byte	0x1c
 2112 0e50 88       		.byte	0x88
 2113 0e51 8A0D0000 		.4byte	0xd8a
 2114 0e55 00       		.byte	0
 2115 0e56 07       		.uleb128 0x7
 2116 0e57 1B0A0000 		.4byte	.LASF173
 2117 0e5b 1C       		.byte	0x1c
 2118 0e5c 8A       		.byte	0x8a
 2119 0e5d BC0D0000 		.4byte	0xdbc
 2120 0e61 01       		.byte	0x1
 2121 0e62 14       		.uleb128 0x14
 2122 0e63 70636200 		.ascii	"pcb\000"
 2123 0e67 1C       		.byte	0x1c
 2124 0e68 91       		.byte	0x91
 2125 0e69 DB0E0000 		.4byte	0xedb
 2126 0e6d 04       		.byte	0x4
 2127 0e6e 07       		.uleb128 0x7
 2128 0e6f ED040000 		.4byte	.LASF221
 2129 0e73 1C       		.byte	0x1c
 2130 0e74 93       		.byte	0x93
 2131 0e75 970C0000 		.4byte	0xc97
 2132 0e79 08       		.byte	0x8
 2133 0e7a 07       		.uleb128 0x7
 2134 0e7b DB0A0000 		.4byte	.LASF222
 2135 0e7f 1C       		.byte	0x1c
 2136 0e80 95       		.byte	0x95
 2137 0e81 680D0000 		.4byte	0xd68
 2138 0e85 0C       		.byte	0xc
 2139 0e86 07       		.uleb128 0x7
ARM GAS  C:\Users\Luis\AppData\Local\Temp\ccb1FswK.s 			page 39


 2140 0e87 FA000000 		.4byte	.LASF223
 2141 0e8b 1C       		.byte	0x1c
 2142 0e8c 98       		.byte	0x98
 2143 0e8d 790D0000 		.4byte	0xd79
 2144 0e91 10       		.byte	0x10
 2145 0e92 07       		.uleb128 0x7
 2146 0e93 4E060000 		.4byte	.LASF224
 2147 0e97 1C       		.byte	0x1c
 2148 0e98 9C       		.byte	0x9c
 2149 0e99 790D0000 		.4byte	0xd79
 2150 0e9d 14       		.byte	0x14
 2151 0e9e 07       		.uleb128 0x7
 2152 0e9f B0080000 		.4byte	.LASF225
 2153 0ea3 1C       		.byte	0x1c
 2154 0ea4 A0       		.byte	0xa0
 2155 0ea5 25000000 		.4byte	0x25
 2156 0ea9 18       		.byte	0x18
 2157 0eaa 07       		.uleb128 0x7
 2158 0eab DA000000 		.4byte	.LASF192
 2159 0eaf 1C       		.byte	0x1c
 2160 0eb0 B6       		.byte	0xb6
 2161 0eb1 6B0C0000 		.4byte	0xc6b
 2162 0eb5 1C       		.byte	0x1c
 2163 0eb6 07       		.uleb128 0x7
 2164 0eb7 020A0000 		.4byte	.LASF226
 2165 0ebb 1C       		.byte	0x1c
 2166 0ebc BA       		.byte	0xba
 2167 0ebd 2C000000 		.4byte	0x2c
 2168 0ec1 20       		.byte	0x20
 2169 0ec2 07       		.uleb128 0x7
 2170 0ec3 73080000 		.4byte	.LASF227
 2171 0ec7 1C       		.byte	0x1c
 2172 0ec8 BE       		.byte	0xbe
 2173 0ec9 400F0000 		.4byte	0xf40
 2174 0ecd 24       		.byte	0x24
 2175 0ece 07       		.uleb128 0x7
 2176 0ecf 210A0000 		.4byte	.LASF228
 2177 0ed3 1C       		.byte	0x1c
 2178 0ed4 C1       		.byte	0xc1
 2179 0ed5 120E0000 		.4byte	0xe12
 2180 0ed9 28       		.byte	0x28
 2181 0eda 00       		.byte	0
 2182 0edb 19       		.uleb128 0x19
 2183 0edc 04       		.byte	0x4
 2184 0edd 1C       		.byte	0x1c
 2185 0ede 8C       		.byte	0x8c
 2186 0edf 0F0F0000 		.4byte	0xf0f
 2187 0ee3 24       		.uleb128 0x24
 2188 0ee4 697000   		.ascii	"ip\000"
 2189 0ee7 1C       		.byte	0x1c
 2190 0ee8 8D       		.byte	0x8d
 2191 0ee9 140F0000 		.4byte	0xf14
 2192 0eed 24       		.uleb128 0x24
 2193 0eee 74637000 		.ascii	"tcp\000"
 2194 0ef2 1C       		.byte	0x1c
 2195 0ef3 8E       		.byte	0x8e
 2196 0ef4 1F0F0000 		.4byte	0xf1f
ARM GAS  C:\Users\Luis\AppData\Local\Temp\ccb1FswK.s 			page 40


 2197 0ef8 24       		.uleb128 0x24
 2198 0ef9 75647000 		.ascii	"udp\000"
 2199 0efd 1C       		.byte	0x1c
 2200 0efe 8F       		.byte	0x8f
 2201 0eff 2A0F0000 		.4byte	0xf2a
 2202 0f03 24       		.uleb128 0x24
 2203 0f04 72617700 		.ascii	"raw\000"
 2204 0f08 1C       		.byte	0x1c
 2205 0f09 90       		.byte	0x90
 2206 0f0a 350F0000 		.4byte	0xf35
 2207 0f0e 00       		.byte	0
 2208 0f0f 25       		.uleb128 0x25
 2209 0f10 D0090000 		.4byte	.LASF229
 2210 0f14 0A       		.uleb128 0xa
 2211 0f15 04       		.byte	0x4
 2212 0f16 0F0F0000 		.4byte	0xf0f
 2213 0f1a 25       		.uleb128 0x25
 2214 0f1b 920A0000 		.4byte	.LASF230
 2215 0f1f 0A       		.uleb128 0xa
 2216 0f20 04       		.byte	0x4
 2217 0f21 1A0F0000 		.4byte	0xf1a
 2218 0f25 25       		.uleb128 0x25
 2219 0f26 70000000 		.4byte	.LASF231
 2220 0f2a 0A       		.uleb128 0xa
 2221 0f2b 04       		.byte	0x4
 2222 0f2c 250F0000 		.4byte	0xf25
 2223 0f30 25       		.uleb128 0x25
 2224 0f31 03010000 		.4byte	.LASF232
 2225 0f35 0A       		.uleb128 0xa
 2226 0f36 04       		.byte	0x4
 2227 0f37 300F0000 		.4byte	0xf30
 2228 0f3b 25       		.uleb128 0x25
 2229 0f3c 36050000 		.4byte	.LASF233
 2230 0f40 0A       		.uleb128 0xa
 2231 0f41 04       		.byte	0x4
 2232 0f42 3B0F0000 		.4byte	0xf3b
 2233 0f46 03       		.uleb128 0x3
 2234 0f47 85040000 		.4byte	.LASF234
 2235 0f4b 1D       		.byte	0x1d
 2236 0f4c 28       		.byte	0x28
 2237 0f4d 510F0000 		.4byte	0xf51
 2238 0f51 06       		.uleb128 0x6
 2239 0f52 440A0000 		.4byte	.LASF235
 2240 0f56 04       		.byte	0x4
 2241 0f57 1E       		.byte	0x1e
 2242 0f58 00       		.byte	0
 2243 0f59 680F0000 		.4byte	0xf68
 2244 0f5d 26       		.uleb128 0x26
 2245 0f5e E7060000 		.4byte	.LASF236
 2246 0f62 4C030000 		.4byte	0x34c
 2247 0f66 00       		.byte	0
 2248 0f67 00       		.byte	0
 2249 0f68 0A       		.uleb128 0xa
 2250 0f69 04       		.byte	0x4
 2251 0f6a F6070000 		.4byte	0x7f6
 2252 0f6e 03       		.uleb128 0x3
 2253 0f6f 71060000 		.4byte	.LASF237
ARM GAS  C:\Users\Luis\AppData\Local\Temp\ccb1FswK.s 			page 41


 2254 0f73 1D       		.byte	0x1d
 2255 0f74 62       		.byte	0x62
 2256 0f75 460F0000 		.4byte	0xf46
 2257 0f79 27       		.uleb128 0x27
 2258 0f7a FC060000 		.4byte	.LASF240
 2259 0f7e 01       		.byte	0x1
 2260 0f7f CC01     		.2byte	0x1cc
 2261 0f81 00000000 		.4byte	.LFB230
 2262 0f85 14000000 		.4byte	.LFE230-.LFB230
 2263 0f89 01       		.uleb128 0x1
 2264 0f8a 9C       		.byte	0x9c
 2265 0f8b 9F0F0000 		.4byte	0xf9f
 2266 0f8f 28       		.uleb128 0x28
 2267 0f90 D5030000 		.4byte	.LASF238
 2268 0f94 01       		.byte	0x1
 2269 0f95 CC01     		.2byte	0x1cc
 2270 0f97 EB070000 		.4byte	0x7eb
 2271 0f9b 02       		.uleb128 0x2
 2272 0f9c 91       		.byte	0x91
 2273 0f9d 74       		.sleb128 -12
 2274 0f9e 00       		.byte	0
 2275 0f9f 29       		.uleb128 0x29
 2276 0fa0 98050000 		.4byte	.LASF252
 2277 0fa4 02       		.byte	0x2
 2278 0fa5 45       		.byte	0x45
 2279 0fa6 25000000 		.4byte	0x25
 2280 0faa 00000000 		.4byte	.LFB260
 2281 0fae 2C000000 		.4byte	.LFE260-.LFB260
 2282 0fb2 01       		.uleb128 0x1
 2283 0fb3 9C       		.byte	0x9c
 2284 0fb4 F10F0000 		.4byte	0xff1
 2285 0fb8 2A       		.uleb128 0x2a
 2286 0fb9 63687000 		.ascii	"chp\000"
 2287 0fbd 02       		.byte	0x2
 2288 0fbe 45       		.byte	0x45
 2289 0fbf F10F0000 		.4byte	0xff1
 2290 0fc3 02       		.uleb128 0x2
 2291 0fc4 91       		.byte	0x91
 2292 0fc5 5C       		.sleb128 -36
 2293 0fc6 2A       		.uleb128 0x2a
 2294 0fc7 666D7400 		.ascii	"fmt\000"
 2295 0fcb 02       		.byte	0x2
 2296 0fcc 45       		.byte	0x45
 2297 0fcd EB070000 		.4byte	0x7eb
 2298 0fd1 02       		.uleb128 0x2
 2299 0fd2 91       		.byte	0x91
 2300 0fd3 74       		.sleb128 -12
 2301 0fd4 2B       		.uleb128 0x2b
 2302 0fd5 2C       		.uleb128 0x2c
 2303 0fd6 617000   		.ascii	"ap\000"
 2304 0fd9 02       		.byte	0x2
 2305 0fda 46       		.byte	0x46
 2306 0fdb 6E0F0000 		.4byte	0xf6e
 2307 0fdf 02       		.uleb128 0x2
 2308 0fe0 91       		.byte	0x91
 2309 0fe1 60       		.sleb128 -32
 2310 0fe2 2D       		.uleb128 0x2d
ARM GAS  C:\Users\Luis\AppData\Local\Temp\ccb1FswK.s 			page 42


 2311 0fe3 F00A0000 		.4byte	.LASF239
 2312 0fe7 02       		.byte	0x2
 2313 0fe8 47       		.byte	0x47
 2314 0fe9 25000000 		.4byte	0x25
 2315 0fed 02       		.uleb128 0x2
 2316 0fee 91       		.byte	0x91
 2317 0fef 64       		.sleb128 -28
 2318 0ff0 00       		.byte	0
 2319 0ff1 0A       		.uleb128 0xa
 2320 0ff2 04       		.byte	0x4
 2321 0ff3 AA0A0000 		.4byte	0xaaa
 2322 0ff7 2E       		.uleb128 0x2e
 2323 0ff8 42050000 		.4byte	.LASF241
 2324 0ffc 03       		.byte	0x3
 2325 0ffd 2E       		.byte	0x2e
 2326 0ffe 00000000 		.4byte	.LFB261
 2327 1002 78000000 		.4byte	.LFE261-.LFB261
 2328 1006 01       		.uleb128 0x1
 2329 1007 9C       		.byte	0x9c
 2330 1008 6A100000 		.4byte	0x106a
 2331 100c 2F       		.uleb128 0x2f
 2332 100d D5040000 		.4byte	.LASF242
 2333 1011 03       		.byte	0x3
 2334 1012 2E       		.byte	0x2e
 2335 1013 380E0000 		.4byte	0xe38
 2336 1017 02       		.uleb128 0x2
 2337 1018 91       		.byte	0x91
 2338 1019 64       		.sleb128 -28
 2339 101a 2D       		.uleb128 0x2d
 2340 101b 3E060000 		.4byte	.LASF243
 2341 101f 03       		.byte	0x3
 2342 1020 2F       		.byte	0x2f
 2343 1021 6A100000 		.4byte	0x106a
 2344 1025 02       		.uleb128 0x2
 2345 1026 91       		.byte	0x91
 2346 1027 70       		.sleb128 -16
 2347 1028 2C       		.uleb128 0x2c
 2348 1029 62756600 		.ascii	"buf\000"
 2349 102d 03       		.byte	0x3
 2350 102e 30       		.byte	0x30
 2351 102f 680F0000 		.4byte	0xf68
 2352 1033 02       		.uleb128 0x2
 2353 1034 91       		.byte	0x91
 2354 1035 6C       		.sleb128 -20
 2355 1036 2D       		.uleb128 0x2d
 2356 1037 F6040000 		.4byte	.LASF244
 2357 103b 03       		.byte	0x3
 2358 103c 31       		.byte	0x31
 2359 103d 810C0000 		.4byte	0xc81
 2360 1041 02       		.uleb128 0x2
 2361 1042 91       		.byte	0x91
 2362 1043 6A       		.sleb128 -22
 2363 1044 2C       		.uleb128 0x2c
 2364 1045 65727200 		.ascii	"err\000"
 2365 1049 03       		.byte	0x3
 2366 104a 32       		.byte	0x32
 2367 104b 970C0000 		.4byte	0xc97
ARM GAS  C:\Users\Luis\AppData\Local\Temp\ccb1FswK.s 			page 43


 2368 104f 02       		.uleb128 0x2
 2369 1050 91       		.byte	0x91
 2370 1051 77       		.sleb128 -9
 2371 1052 30       		.uleb128 0x30
 2372 1053 20000000 		.4byte	.LBB2
 2373 1057 3C000000 		.4byte	.LBE2-.LBB2
 2374 105b 31       		.uleb128 0x31
 2375 105c C5000000 		.4byte	.LASF253
 2376 1060 1E       		.byte	0x1e
 2377 1061 00       		.byte	0
 2378 1062 25000000 		.4byte	0x25
 2379 1066 2B       		.uleb128 0x2b
 2380 1067 00       		.byte	0
 2381 1068 00       		.byte	0
 2382 1069 00       		.byte	0
 2383 106a 0A       		.uleb128 0xa
 2384 106b 04       		.byte	0x4
 2385 106c 2D0D0000 		.4byte	0xd2d
 2386 1070 32       		.uleb128 0x32
 2387 1071 EB070000 		.4byte	.LASF254
 2388 1075 03       		.byte	0x3
 2389 1076 53       		.byte	0x53
 2390 1077 00000000 		.4byte	.LFB262
 2391 107b 90000000 		.4byte	.LFE262-.LFB262
 2392 107f 01       		.uleb128 0x1
 2393 1080 9C       		.byte	0x9c
 2394 1081 C9100000 		.4byte	0x10c9
 2395 1085 2A       		.uleb128 0x2a
 2396 1086 7000     		.ascii	"p\000"
 2397 1088 03       		.byte	0x3
 2398 1089 53       		.byte	0x53
 2399 108a 4C030000 		.4byte	0x34c
 2400 108e 02       		.uleb128 0x2
 2401 108f 91       		.byte	0x91
 2402 1090 64       		.sleb128 -28
 2403 1091 2D       		.uleb128 0x2d
 2404 1092 D5040000 		.4byte	.LASF242
 2405 1096 03       		.byte	0x3
 2406 1097 54       		.byte	0x54
 2407 1098 380E0000 		.4byte	0xe38
 2408 109c 02       		.uleb128 0x2
 2409 109d 91       		.byte	0x91
 2410 109e 74       		.sleb128 -12
 2411 109f 2D       		.uleb128 0x2d
 2412 10a0 750A0000 		.4byte	.LASF245
 2413 10a4 03       		.byte	0x3
 2414 10a5 54       		.byte	0x54
 2415 10a6 380E0000 		.4byte	0xe38
 2416 10aa 02       		.uleb128 0x2
 2417 10ab 91       		.byte	0x91
 2418 10ac 68       		.sleb128 -24
 2419 10ad 2C       		.uleb128 0x2c
 2420 10ae 65727200 		.ascii	"err\000"
 2421 10b2 03       		.byte	0x3
 2422 10b3 55       		.byte	0x55
 2423 10b4 970C0000 		.4byte	0xc97
 2424 10b8 02       		.uleb128 0x2
ARM GAS  C:\Users\Luis\AppData\Local\Temp\ccb1FswK.s 			page 44


 2425 10b9 91       		.byte	0x91
 2426 10ba 6F       		.sleb128 -17
 2427 10bb 2C       		.uleb128 0x2c
 2428 10bc 697000   		.ascii	"ip\000"
 2429 10bf 03       		.byte	0x3
 2430 10c0 5E       		.byte	0x5e
 2431 10c1 C9100000 		.4byte	0x10c9
 2432 10c5 02       		.uleb128 0x2
 2433 10c6 91       		.byte	0x91
 2434 10c7 70       		.sleb128 -16
 2435 10c8 00       		.byte	0
 2436 10c9 0A       		.uleb128 0xa
 2437 10ca 04       		.byte	0x4
 2438 10cb 220D0000 		.4byte	0xd22
 2439 10cf 17       		.uleb128 0x17
 2440 10d0 F6070000 		.4byte	0x7f6
 2441 10d4 DF100000 		.4byte	0x10df
 2442 10d8 18       		.uleb128 0x18
 2443 10d9 BB040000 		.4byte	0x4bb
 2444 10dd 79       		.byte	0x79
 2445 10de 00       		.byte	0
 2446 10df 2D       		.uleb128 0x2d
 2447 10e0 C6080000 		.4byte	.LASF246
 2448 10e4 03       		.byte	0x3
 2449 10e5 2C       		.byte	0x2c
 2450 10e6 F0100000 		.4byte	0x10f0
 2451 10ea 05       		.uleb128 0x5
 2452 10eb 03       		.byte	0x3
 2453 10ec 00000000 		.4byte	http_index_html
 2454 10f0 1B       		.uleb128 0x1b
 2455 10f1 CF100000 		.4byte	0x10cf
 2456 10f5 33       		.uleb128 0x33
 2457 10f6 5C080000 		.4byte	.LASF247
 2458 10fa 20       		.byte	0x20
 2459 10fb A706     		.2byte	0x6a7
 2460 10fd B8000000 		.4byte	0xb8
 2461 1101 34       		.uleb128 0x34
 2462 1102 636800   		.ascii	"ch\000"
 2463 1105 08       		.byte	0x8
 2464 1106 0902     		.2byte	0x209
 2465 1108 43040000 		.4byte	0x443
 2466 110c 34       		.uleb128 0x34
 2467 110d 53443100 		.ascii	"SD1\000"
 2468 1111 1F       		.byte	0x1f
 2469 1112 0F01     		.2byte	0x10f
 2470 1114 630B0000 		.4byte	0xb63
 2471 1118 17       		.uleb128 0x17
 2472 1119 3C050000 		.4byte	0x53c
 2473 111d 28110000 		.4byte	0x1128
 2474 1121 18       		.uleb128 0x18
 2475 1122 BB040000 		.4byte	0x4bb
 2476 1126 9D       		.byte	0x9d
 2477 1127 00       		.byte	0
 2478 1128 35       		.uleb128 0x35
 2479 1129 B7080000 		.4byte	.LASF248
 2480 112d 03       		.byte	0x3
 2481 112e 4E       		.byte	0x4e
ARM GAS  C:\Users\Luis\AppData\Local\Temp\ccb1FswK.s 			page 45


 2482 112f 18110000 		.4byte	0x1118
 2483 1133 05       		.uleb128 0x5
 2484 1134 03       		.byte	0x3
 2485 1135 00000000 		.4byte	wa_http_server
 2486 1139 00       		.byte	0
 2487              		.section	.debug_abbrev,"",%progbits
 2488              	.Ldebug_abbrev0:
 2489 0000 01       		.uleb128 0x1
 2490 0001 11       		.uleb128 0x11
 2491 0002 01       		.byte	0x1
 2492 0003 25       		.uleb128 0x25
 2493 0004 0E       		.uleb128 0xe
 2494 0005 13       		.uleb128 0x13
 2495 0006 0B       		.uleb128 0xb
 2496 0007 03       		.uleb128 0x3
 2497 0008 0E       		.uleb128 0xe
 2498 0009 1B       		.uleb128 0x1b
 2499 000a 0E       		.uleb128 0xe
 2500 000b 55       		.uleb128 0x55
 2501 000c 17       		.uleb128 0x17
 2502 000d 11       		.uleb128 0x11
 2503 000e 01       		.uleb128 0x1
 2504 000f 10       		.uleb128 0x10
 2505 0010 17       		.uleb128 0x17
 2506 0011 00       		.byte	0
 2507 0012 00       		.byte	0
 2508 0013 02       		.uleb128 0x2
 2509 0014 24       		.uleb128 0x24
 2510 0015 00       		.byte	0
 2511 0016 0B       		.uleb128 0xb
 2512 0017 0B       		.uleb128 0xb
 2513 0018 3E       		.uleb128 0x3e
 2514 0019 0B       		.uleb128 0xb
 2515 001a 03       		.uleb128 0x3
 2516 001b 08       		.uleb128 0x8
 2517 001c 00       		.byte	0
 2518 001d 00       		.byte	0
 2519 001e 03       		.uleb128 0x3
 2520 001f 16       		.uleb128 0x16
 2521 0020 00       		.byte	0
 2522 0021 03       		.uleb128 0x3
 2523 0022 0E       		.uleb128 0xe
 2524 0023 3A       		.uleb128 0x3a
 2525 0024 0B       		.uleb128 0xb
 2526 0025 3B       		.uleb128 0x3b
 2527 0026 0B       		.uleb128 0xb
 2528 0027 49       		.uleb128 0x49
 2529 0028 13       		.uleb128 0x13
 2530 0029 00       		.byte	0
 2531 002a 00       		.byte	0
 2532 002b 04       		.uleb128 0x4
 2533 002c 24       		.uleb128 0x24
 2534 002d 00       		.byte	0
 2535 002e 0B       		.uleb128 0xb
 2536 002f 0B       		.uleb128 0xb
 2537 0030 3E       		.uleb128 0x3e
 2538 0031 0B       		.uleb128 0xb
ARM GAS  C:\Users\Luis\AppData\Local\Temp\ccb1FswK.s 			page 46


 2539 0032 03       		.uleb128 0x3
 2540 0033 0E       		.uleb128 0xe
 2541 0034 00       		.byte	0
 2542 0035 00       		.byte	0
 2543 0036 05       		.uleb128 0x5
 2544 0037 35       		.uleb128 0x35
 2545 0038 00       		.byte	0
 2546 0039 49       		.uleb128 0x49
 2547 003a 13       		.uleb128 0x13
 2548 003b 00       		.byte	0
 2549 003c 00       		.byte	0
 2550 003d 06       		.uleb128 0x6
 2551 003e 13       		.uleb128 0x13
 2552 003f 01       		.byte	0x1
 2553 0040 03       		.uleb128 0x3
 2554 0041 0E       		.uleb128 0xe
 2555 0042 0B       		.uleb128 0xb
 2556 0043 0B       		.uleb128 0xb
 2557 0044 3A       		.uleb128 0x3a
 2558 0045 0B       		.uleb128 0xb
 2559 0046 3B       		.uleb128 0x3b
 2560 0047 0B       		.uleb128 0xb
 2561 0048 01       		.uleb128 0x1
 2562 0049 13       		.uleb128 0x13
 2563 004a 00       		.byte	0
 2564 004b 00       		.byte	0
 2565 004c 07       		.uleb128 0x7
 2566 004d 0D       		.uleb128 0xd
 2567 004e 00       		.byte	0
 2568 004f 03       		.uleb128 0x3
 2569 0050 0E       		.uleb128 0xe
 2570 0051 3A       		.uleb128 0x3a
 2571 0052 0B       		.uleb128 0xb
 2572 0053 3B       		.uleb128 0x3b
 2573 0054 0B       		.uleb128 0xb
 2574 0055 49       		.uleb128 0x49
 2575 0056 13       		.uleb128 0x13
 2576 0057 38       		.uleb128 0x38
 2577 0058 0B       		.uleb128 0xb
 2578 0059 00       		.byte	0
 2579 005a 00       		.byte	0
 2580 005b 08       		.uleb128 0x8
 2581 005c 0D       		.uleb128 0xd
 2582 005d 00       		.byte	0
 2583 005e 03       		.uleb128 0x3
 2584 005f 08       		.uleb128 0x8
 2585 0060 3A       		.uleb128 0x3a
 2586 0061 0B       		.uleb128 0xb
 2587 0062 3B       		.uleb128 0x3b
 2588 0063 05       		.uleb128 0x5
 2589 0064 49       		.uleb128 0x49
 2590 0065 13       		.uleb128 0x13
 2591 0066 38       		.uleb128 0x38
 2592 0067 0B       		.uleb128 0xb
 2593 0068 00       		.byte	0
 2594 0069 00       		.byte	0
 2595 006a 09       		.uleb128 0x9
ARM GAS  C:\Users\Luis\AppData\Local\Temp\ccb1FswK.s 			page 47


 2596 006b 0D       		.uleb128 0xd
 2597 006c 00       		.byte	0
 2598 006d 03       		.uleb128 0x3
 2599 006e 0E       		.uleb128 0xe
 2600 006f 3A       		.uleb128 0x3a
 2601 0070 0B       		.uleb128 0xb
 2602 0071 3B       		.uleb128 0x3b
 2603 0072 05       		.uleb128 0x5
 2604 0073 49       		.uleb128 0x49
 2605 0074 13       		.uleb128 0x13
 2606 0075 38       		.uleb128 0x38
 2607 0076 0B       		.uleb128 0xb
 2608 0077 00       		.byte	0
 2609 0078 00       		.byte	0
 2610 0079 0A       		.uleb128 0xa
 2611 007a 0F       		.uleb128 0xf
 2612 007b 00       		.byte	0
 2613 007c 0B       		.uleb128 0xb
 2614 007d 0B       		.uleb128 0xb
 2615 007e 49       		.uleb128 0x49
 2616 007f 13       		.uleb128 0x13
 2617 0080 00       		.byte	0
 2618 0081 00       		.byte	0
 2619 0082 0B       		.uleb128 0xb
 2620 0083 13       		.uleb128 0x13
 2621 0084 01       		.byte	0x1
 2622 0085 03       		.uleb128 0x3
 2623 0086 0E       		.uleb128 0xe
 2624 0087 0B       		.uleb128 0xb
 2625 0088 0B       		.uleb128 0xb
 2626 0089 3A       		.uleb128 0x3a
 2627 008a 0B       		.uleb128 0xb
 2628 008b 3B       		.uleb128 0x3b
 2629 008c 05       		.uleb128 0x5
 2630 008d 01       		.uleb128 0x1
 2631 008e 13       		.uleb128 0x13
 2632 008f 00       		.byte	0
 2633 0090 00       		.byte	0
 2634 0091 0C       		.uleb128 0xc
 2635 0092 15       		.uleb128 0x15
 2636 0093 01       		.byte	0x1
 2637 0094 27       		.uleb128 0x27
 2638 0095 19       		.uleb128 0x19
 2639 0096 01       		.uleb128 0x1
 2640 0097 13       		.uleb128 0x13
 2641 0098 00       		.byte	0
 2642 0099 00       		.byte	0
 2643 009a 0D       		.uleb128 0xd
 2644 009b 05       		.uleb128 0x5
 2645 009c 00       		.byte	0
 2646 009d 49       		.uleb128 0x49
 2647 009e 13       		.uleb128 0x13
 2648 009f 00       		.byte	0
 2649 00a0 00       		.byte	0
 2650 00a1 0E       		.uleb128 0xe
 2651 00a2 0F       		.uleb128 0xf
 2652 00a3 00       		.byte	0
ARM GAS  C:\Users\Luis\AppData\Local\Temp\ccb1FswK.s 			page 48


 2653 00a4 0B       		.uleb128 0xb
 2654 00a5 0B       		.uleb128 0xb
 2655 00a6 00       		.byte	0
 2656 00a7 00       		.byte	0
 2657 00a8 0F       		.uleb128 0xf
 2658 00a9 13       		.uleb128 0x13
 2659 00aa 01       		.byte	0x1
 2660 00ab 03       		.uleb128 0x3
 2661 00ac 0E       		.uleb128 0xe
 2662 00ad 0B       		.uleb128 0xb
 2663 00ae 05       		.uleb128 0x5
 2664 00af 3A       		.uleb128 0x3a
 2665 00b0 0B       		.uleb128 0xb
 2666 00b1 3B       		.uleb128 0x3b
 2667 00b2 05       		.uleb128 0x5
 2668 00b3 01       		.uleb128 0x1
 2669 00b4 13       		.uleb128 0x13
 2670 00b5 00       		.byte	0
 2671 00b6 00       		.byte	0
 2672 00b7 10       		.uleb128 0x10
 2673 00b8 0D       		.uleb128 0xd
 2674 00b9 00       		.byte	0
 2675 00ba 03       		.uleb128 0x3
 2676 00bb 0E       		.uleb128 0xe
 2677 00bc 3A       		.uleb128 0x3a
 2678 00bd 0B       		.uleb128 0xb
 2679 00be 3B       		.uleb128 0x3b
 2680 00bf 05       		.uleb128 0x5
 2681 00c0 49       		.uleb128 0x49
 2682 00c1 13       		.uleb128 0x13
 2683 00c2 38       		.uleb128 0x38
 2684 00c3 05       		.uleb128 0x5
 2685 00c4 00       		.byte	0
 2686 00c5 00       		.byte	0
 2687 00c6 11       		.uleb128 0x11
 2688 00c7 0D       		.uleb128 0xd
 2689 00c8 00       		.byte	0
 2690 00c9 03       		.uleb128 0x3
 2691 00ca 08       		.uleb128 0x8
 2692 00cb 3A       		.uleb128 0x3a
 2693 00cc 0B       		.uleb128 0xb
 2694 00cd 3B       		.uleb128 0x3b
 2695 00ce 05       		.uleb128 0x5
 2696 00cf 49       		.uleb128 0x49
 2697 00d0 13       		.uleb128 0x13
 2698 00d1 38       		.uleb128 0x38
 2699 00d2 05       		.uleb128 0x5
 2700 00d3 00       		.byte	0
 2701 00d4 00       		.byte	0
 2702 00d5 12       		.uleb128 0x12
 2703 00d6 13       		.uleb128 0x13
 2704 00d7 01       		.byte	0x1
 2705 00d8 0B       		.uleb128 0xb
 2706 00d9 0B       		.uleb128 0xb
 2707 00da 3A       		.uleb128 0x3a
 2708 00db 0B       		.uleb128 0xb
 2709 00dc 3B       		.uleb128 0x3b
ARM GAS  C:\Users\Luis\AppData\Local\Temp\ccb1FswK.s 			page 49


 2710 00dd 05       		.uleb128 0x5
 2711 00de 01       		.uleb128 0x1
 2712 00df 13       		.uleb128 0x13
 2713 00e0 00       		.byte	0
 2714 00e1 00       		.byte	0
 2715 00e2 13       		.uleb128 0x13
 2716 00e3 16       		.uleb128 0x16
 2717 00e4 00       		.byte	0
 2718 00e5 03       		.uleb128 0x3
 2719 00e6 0E       		.uleb128 0xe
 2720 00e7 3A       		.uleb128 0x3a
 2721 00e8 0B       		.uleb128 0xb
 2722 00e9 3B       		.uleb128 0x3b
 2723 00ea 05       		.uleb128 0x5
 2724 00eb 49       		.uleb128 0x49
 2725 00ec 13       		.uleb128 0x13
 2726 00ed 00       		.byte	0
 2727 00ee 00       		.byte	0
 2728 00ef 14       		.uleb128 0x14
 2729 00f0 0D       		.uleb128 0xd
 2730 00f1 00       		.byte	0
 2731 00f2 03       		.uleb128 0x3
 2732 00f3 08       		.uleb128 0x8
 2733 00f4 3A       		.uleb128 0x3a
 2734 00f5 0B       		.uleb128 0xb
 2735 00f6 3B       		.uleb128 0x3b
 2736 00f7 0B       		.uleb128 0xb
 2737 00f8 49       		.uleb128 0x49
 2738 00f9 13       		.uleb128 0x13
 2739 00fa 38       		.uleb128 0x38
 2740 00fb 0B       		.uleb128 0xb
 2741 00fc 00       		.byte	0
 2742 00fd 00       		.byte	0
 2743 00fe 15       		.uleb128 0x15
 2744 00ff 13       		.uleb128 0x13
 2745 0100 01       		.byte	0x1
 2746 0101 0B       		.uleb128 0xb
 2747 0102 0B       		.uleb128 0xb
 2748 0103 3A       		.uleb128 0x3a
 2749 0104 0B       		.uleb128 0xb
 2750 0105 3B       		.uleb128 0x3b
 2751 0106 0B       		.uleb128 0xb
 2752 0107 01       		.uleb128 0x1
 2753 0108 13       		.uleb128 0x13
 2754 0109 00       		.byte	0
 2755 010a 00       		.byte	0
 2756 010b 16       		.uleb128 0x16
 2757 010c 13       		.uleb128 0x13
 2758 010d 01       		.byte	0x1
 2759 010e 0B       		.uleb128 0xb
 2760 010f 05       		.uleb128 0x5
 2761 0110 3A       		.uleb128 0x3a
 2762 0111 0B       		.uleb128 0xb
 2763 0112 3B       		.uleb128 0x3b
 2764 0113 0B       		.uleb128 0xb
 2765 0114 01       		.uleb128 0x1
 2766 0115 13       		.uleb128 0x13
ARM GAS  C:\Users\Luis\AppData\Local\Temp\ccb1FswK.s 			page 50


 2767 0116 00       		.byte	0
 2768 0117 00       		.byte	0
 2769 0118 17       		.uleb128 0x17
 2770 0119 01       		.uleb128 0x1
 2771 011a 01       		.byte	0x1
 2772 011b 49       		.uleb128 0x49
 2773 011c 13       		.uleb128 0x13
 2774 011d 01       		.uleb128 0x1
 2775 011e 13       		.uleb128 0x13
 2776 011f 00       		.byte	0
 2777 0120 00       		.byte	0
 2778 0121 18       		.uleb128 0x18
 2779 0122 21       		.uleb128 0x21
 2780 0123 00       		.byte	0
 2781 0124 49       		.uleb128 0x49
 2782 0125 13       		.uleb128 0x13
 2783 0126 2F       		.uleb128 0x2f
 2784 0127 0B       		.uleb128 0xb
 2785 0128 00       		.byte	0
 2786 0129 00       		.byte	0
 2787 012a 19       		.uleb128 0x19
 2788 012b 17       		.uleb128 0x17
 2789 012c 01       		.byte	0x1
 2790 012d 0B       		.uleb128 0xb
 2791 012e 0B       		.uleb128 0xb
 2792 012f 3A       		.uleb128 0x3a
 2793 0130 0B       		.uleb128 0xb
 2794 0131 3B       		.uleb128 0x3b
 2795 0132 0B       		.uleb128 0xb
 2796 0133 01       		.uleb128 0x1
 2797 0134 13       		.uleb128 0x13
 2798 0135 00       		.byte	0
 2799 0136 00       		.byte	0
 2800 0137 1A       		.uleb128 0x1a
 2801 0138 0D       		.uleb128 0xd
 2802 0139 00       		.byte	0
 2803 013a 03       		.uleb128 0x3
 2804 013b 0E       		.uleb128 0xe
 2805 013c 3A       		.uleb128 0x3a
 2806 013d 0B       		.uleb128 0xb
 2807 013e 3B       		.uleb128 0x3b
 2808 013f 05       		.uleb128 0x5
 2809 0140 49       		.uleb128 0x49
 2810 0141 13       		.uleb128 0x13
 2811 0142 00       		.byte	0
 2812 0143 00       		.byte	0
 2813 0144 1B       		.uleb128 0x1b
 2814 0145 26       		.uleb128 0x26
 2815 0146 00       		.byte	0
 2816 0147 49       		.uleb128 0x49
 2817 0148 13       		.uleb128 0x13
 2818 0149 00       		.byte	0
 2819 014a 00       		.byte	0
 2820 014b 1C       		.uleb128 0x1c
 2821 014c 15       		.uleb128 0x15
 2822 014d 01       		.byte	0x1
 2823 014e 27       		.uleb128 0x27
ARM GAS  C:\Users\Luis\AppData\Local\Temp\ccb1FswK.s 			page 51


 2824 014f 19       		.uleb128 0x19
 2825 0150 49       		.uleb128 0x49
 2826 0151 13       		.uleb128 0x13
 2827 0152 01       		.uleb128 0x1
 2828 0153 13       		.uleb128 0x13
 2829 0154 00       		.byte	0
 2830 0155 00       		.byte	0
 2831 0156 1D       		.uleb128 0x1d
 2832 0157 04       		.uleb128 0x4
 2833 0158 01       		.byte	0x1
 2834 0159 0B       		.uleb128 0xb
 2835 015a 0B       		.uleb128 0xb
 2836 015b 3A       		.uleb128 0x3a
 2837 015c 0B       		.uleb128 0xb
 2838 015d 3B       		.uleb128 0x3b
 2839 015e 0B       		.uleb128 0xb
 2840 015f 01       		.uleb128 0x1
 2841 0160 13       		.uleb128 0x13
 2842 0161 00       		.byte	0
 2843 0162 00       		.byte	0
 2844 0163 1E       		.uleb128 0x1e
 2845 0164 28       		.uleb128 0x28
 2846 0165 00       		.byte	0
 2847 0166 03       		.uleb128 0x3
 2848 0167 0E       		.uleb128 0xe
 2849 0168 1C       		.uleb128 0x1c
 2850 0169 0D       		.uleb128 0xd
 2851 016a 00       		.byte	0
 2852 016b 00       		.byte	0
 2853 016c 1F       		.uleb128 0x1f
 2854 016d 13       		.uleb128 0x13
 2855 016e 01       		.byte	0x1
 2856 016f 03       		.uleb128 0x3
 2857 0170 0E       		.uleb128 0xe
 2858 0171 0B       		.uleb128 0xb
 2859 0172 05       		.uleb128 0x5
 2860 0173 3A       		.uleb128 0x3a
 2861 0174 0B       		.uleb128 0xb
 2862 0175 3B       		.uleb128 0x3b
 2863 0176 0B       		.uleb128 0xb
 2864 0177 01       		.uleb128 0x1
 2865 0178 13       		.uleb128 0x13
 2866 0179 00       		.byte	0
 2867 017a 00       		.byte	0
 2868 017b 20       		.uleb128 0x20
 2869 017c 0D       		.uleb128 0xd
 2870 017d 00       		.byte	0
 2871 017e 03       		.uleb128 0x3
 2872 017f 08       		.uleb128 0x8
 2873 0180 3A       		.uleb128 0x3a
 2874 0181 0B       		.uleb128 0xb
 2875 0182 3B       		.uleb128 0x3b
 2876 0183 0B       		.uleb128 0xb
 2877 0184 49       		.uleb128 0x49
 2878 0185 13       		.uleb128 0x13
 2879 0186 38       		.uleb128 0x38
 2880 0187 05       		.uleb128 0x5
ARM GAS  C:\Users\Luis\AppData\Local\Temp\ccb1FswK.s 			page 52


 2881 0188 00       		.byte	0
 2882 0189 00       		.byte	0
 2883 018a 21       		.uleb128 0x21
 2884 018b 0D       		.uleb128 0xd
 2885 018c 00       		.byte	0
 2886 018d 03       		.uleb128 0x3
 2887 018e 0E       		.uleb128 0xe
 2888 018f 3A       		.uleb128 0x3a
 2889 0190 0B       		.uleb128 0xb
 2890 0191 3B       		.uleb128 0x3b
 2891 0192 0B       		.uleb128 0xb
 2892 0193 49       		.uleb128 0x49
 2893 0194 13       		.uleb128 0x13
 2894 0195 38       		.uleb128 0x38
 2895 0196 05       		.uleb128 0x5
 2896 0197 00       		.byte	0
 2897 0198 00       		.byte	0
 2898 0199 22       		.uleb128 0x22
 2899 019a 21       		.uleb128 0x21
 2900 019b 00       		.byte	0
 2901 019c 49       		.uleb128 0x49
 2902 019d 13       		.uleb128 0x13
 2903 019e 2F       		.uleb128 0x2f
 2904 019f 05       		.uleb128 0x5
 2905 01a0 00       		.byte	0
 2906 01a1 00       		.byte	0
 2907 01a2 23       		.uleb128 0x23
 2908 01a3 04       		.uleb128 0x4
 2909 01a4 01       		.byte	0x1
 2910 01a5 03       		.uleb128 0x3
 2911 01a6 0E       		.uleb128 0xe
 2912 01a7 0B       		.uleb128 0xb
 2913 01a8 0B       		.uleb128 0xb
 2914 01a9 3A       		.uleb128 0x3a
 2915 01aa 0B       		.uleb128 0xb
 2916 01ab 3B       		.uleb128 0x3b
 2917 01ac 0B       		.uleb128 0xb
 2918 01ad 01       		.uleb128 0x1
 2919 01ae 13       		.uleb128 0x13
 2920 01af 00       		.byte	0
 2921 01b0 00       		.byte	0
 2922 01b1 24       		.uleb128 0x24
 2923 01b2 0D       		.uleb128 0xd
 2924 01b3 00       		.byte	0
 2925 01b4 03       		.uleb128 0x3
 2926 01b5 08       		.uleb128 0x8
 2927 01b6 3A       		.uleb128 0x3a
 2928 01b7 0B       		.uleb128 0xb
 2929 01b8 3B       		.uleb128 0x3b
 2930 01b9 0B       		.uleb128 0xb
 2931 01ba 49       		.uleb128 0x49
 2932 01bb 13       		.uleb128 0x13
 2933 01bc 00       		.byte	0
 2934 01bd 00       		.byte	0
 2935 01be 25       		.uleb128 0x25
 2936 01bf 13       		.uleb128 0x13
 2937 01c0 00       		.byte	0
ARM GAS  C:\Users\Luis\AppData\Local\Temp\ccb1FswK.s 			page 53


 2938 01c1 03       		.uleb128 0x3
 2939 01c2 0E       		.uleb128 0xe
 2940 01c3 3C       		.uleb128 0x3c
 2941 01c4 19       		.uleb128 0x19
 2942 01c5 00       		.byte	0
 2943 01c6 00       		.byte	0
 2944 01c7 26       		.uleb128 0x26
 2945 01c8 0D       		.uleb128 0xd
 2946 01c9 00       		.byte	0
 2947 01ca 03       		.uleb128 0x3
 2948 01cb 0E       		.uleb128 0xe
 2949 01cc 49       		.uleb128 0x49
 2950 01cd 13       		.uleb128 0x13
 2951 01ce 38       		.uleb128 0x38
 2952 01cf 0B       		.uleb128 0xb
 2953 01d0 34       		.uleb128 0x34
 2954 01d1 19       		.uleb128 0x19
 2955 01d2 00       		.byte	0
 2956 01d3 00       		.byte	0
 2957 01d4 27       		.uleb128 0x27
 2958 01d5 2E       		.uleb128 0x2e
 2959 01d6 01       		.byte	0x1
 2960 01d7 03       		.uleb128 0x3
 2961 01d8 0E       		.uleb128 0xe
 2962 01d9 3A       		.uleb128 0x3a
 2963 01da 0B       		.uleb128 0xb
 2964 01db 3B       		.uleb128 0x3b
 2965 01dc 05       		.uleb128 0x5
 2966 01dd 27       		.uleb128 0x27
 2967 01de 19       		.uleb128 0x19
 2968 01df 11       		.uleb128 0x11
 2969 01e0 01       		.uleb128 0x1
 2970 01e1 12       		.uleb128 0x12
 2971 01e2 06       		.uleb128 0x6
 2972 01e3 40       		.uleb128 0x40
 2973 01e4 18       		.uleb128 0x18
 2974 01e5 9642     		.uleb128 0x2116
 2975 01e7 19       		.uleb128 0x19
 2976 01e8 01       		.uleb128 0x1
 2977 01e9 13       		.uleb128 0x13
 2978 01ea 00       		.byte	0
 2979 01eb 00       		.byte	0
 2980 01ec 28       		.uleb128 0x28
 2981 01ed 05       		.uleb128 0x5
 2982 01ee 00       		.byte	0
 2983 01ef 03       		.uleb128 0x3
 2984 01f0 0E       		.uleb128 0xe
 2985 01f1 3A       		.uleb128 0x3a
 2986 01f2 0B       		.uleb128 0xb
 2987 01f3 3B       		.uleb128 0x3b
 2988 01f4 05       		.uleb128 0x5
 2989 01f5 49       		.uleb128 0x49
 2990 01f6 13       		.uleb128 0x13
 2991 01f7 02       		.uleb128 0x2
 2992 01f8 18       		.uleb128 0x18
 2993 01f9 00       		.byte	0
 2994 01fa 00       		.byte	0
ARM GAS  C:\Users\Luis\AppData\Local\Temp\ccb1FswK.s 			page 54


 2995 01fb 29       		.uleb128 0x29
 2996 01fc 2E       		.uleb128 0x2e
 2997 01fd 01       		.byte	0x1
 2998 01fe 03       		.uleb128 0x3
 2999 01ff 0E       		.uleb128 0xe
 3000 0200 3A       		.uleb128 0x3a
 3001 0201 0B       		.uleb128 0xb
 3002 0202 3B       		.uleb128 0x3b
 3003 0203 0B       		.uleb128 0xb
 3004 0204 27       		.uleb128 0x27
 3005 0205 19       		.uleb128 0x19
 3006 0206 49       		.uleb128 0x49
 3007 0207 13       		.uleb128 0x13
 3008 0208 11       		.uleb128 0x11
 3009 0209 01       		.uleb128 0x1
 3010 020a 12       		.uleb128 0x12
 3011 020b 06       		.uleb128 0x6
 3012 020c 40       		.uleb128 0x40
 3013 020d 18       		.uleb128 0x18
 3014 020e 9642     		.uleb128 0x2116
 3015 0210 19       		.uleb128 0x19
 3016 0211 01       		.uleb128 0x1
 3017 0212 13       		.uleb128 0x13
 3018 0213 00       		.byte	0
 3019 0214 00       		.byte	0
 3020 0215 2A       		.uleb128 0x2a
 3021 0216 05       		.uleb128 0x5
 3022 0217 00       		.byte	0
 3023 0218 03       		.uleb128 0x3
 3024 0219 08       		.uleb128 0x8
 3025 021a 3A       		.uleb128 0x3a
 3026 021b 0B       		.uleb128 0xb
 3027 021c 3B       		.uleb128 0x3b
 3028 021d 0B       		.uleb128 0xb
 3029 021e 49       		.uleb128 0x49
 3030 021f 13       		.uleb128 0x13
 3031 0220 02       		.uleb128 0x2
 3032 0221 18       		.uleb128 0x18
 3033 0222 00       		.byte	0
 3034 0223 00       		.byte	0
 3035 0224 2B       		.uleb128 0x2b
 3036 0225 18       		.uleb128 0x18
 3037 0226 00       		.byte	0
 3038 0227 00       		.byte	0
 3039 0228 00       		.byte	0
 3040 0229 2C       		.uleb128 0x2c
 3041 022a 34       		.uleb128 0x34
 3042 022b 00       		.byte	0
 3043 022c 03       		.uleb128 0x3
 3044 022d 08       		.uleb128 0x8
 3045 022e 3A       		.uleb128 0x3a
 3046 022f 0B       		.uleb128 0xb
 3047 0230 3B       		.uleb128 0x3b
 3048 0231 0B       		.uleb128 0xb
 3049 0232 49       		.uleb128 0x49
 3050 0233 13       		.uleb128 0x13
 3051 0234 02       		.uleb128 0x2
ARM GAS  C:\Users\Luis\AppData\Local\Temp\ccb1FswK.s 			page 55


 3052 0235 18       		.uleb128 0x18
 3053 0236 00       		.byte	0
 3054 0237 00       		.byte	0
 3055 0238 2D       		.uleb128 0x2d
 3056 0239 34       		.uleb128 0x34
 3057 023a 00       		.byte	0
 3058 023b 03       		.uleb128 0x3
 3059 023c 0E       		.uleb128 0xe
 3060 023d 3A       		.uleb128 0x3a
 3061 023e 0B       		.uleb128 0xb
 3062 023f 3B       		.uleb128 0x3b
 3063 0240 0B       		.uleb128 0xb
 3064 0241 49       		.uleb128 0x49
 3065 0242 13       		.uleb128 0x13
 3066 0243 02       		.uleb128 0x2
 3067 0244 18       		.uleb128 0x18
 3068 0245 00       		.byte	0
 3069 0246 00       		.byte	0
 3070 0247 2E       		.uleb128 0x2e
 3071 0248 2E       		.uleb128 0x2e
 3072 0249 01       		.byte	0x1
 3073 024a 03       		.uleb128 0x3
 3074 024b 0E       		.uleb128 0xe
 3075 024c 3A       		.uleb128 0x3a
 3076 024d 0B       		.uleb128 0xb
 3077 024e 3B       		.uleb128 0x3b
 3078 024f 0B       		.uleb128 0xb
 3079 0250 27       		.uleb128 0x27
 3080 0251 19       		.uleb128 0x19
 3081 0252 11       		.uleb128 0x11
 3082 0253 01       		.uleb128 0x1
 3083 0254 12       		.uleb128 0x12
 3084 0255 06       		.uleb128 0x6
 3085 0256 40       		.uleb128 0x40
 3086 0257 18       		.uleb128 0x18
 3087 0258 9642     		.uleb128 0x2116
 3088 025a 19       		.uleb128 0x19
 3089 025b 01       		.uleb128 0x1
 3090 025c 13       		.uleb128 0x13
 3091 025d 00       		.byte	0
 3092 025e 00       		.byte	0
 3093 025f 2F       		.uleb128 0x2f
 3094 0260 05       		.uleb128 0x5
 3095 0261 00       		.byte	0
 3096 0262 03       		.uleb128 0x3
 3097 0263 0E       		.uleb128 0xe
 3098 0264 3A       		.uleb128 0x3a
 3099 0265 0B       		.uleb128 0xb
 3100 0266 3B       		.uleb128 0x3b
 3101 0267 0B       		.uleb128 0xb
 3102 0268 49       		.uleb128 0x49
 3103 0269 13       		.uleb128 0x13
 3104 026a 02       		.uleb128 0x2
 3105 026b 18       		.uleb128 0x18
 3106 026c 00       		.byte	0
 3107 026d 00       		.byte	0
 3108 026e 30       		.uleb128 0x30
ARM GAS  C:\Users\Luis\AppData\Local\Temp\ccb1FswK.s 			page 56


 3109 026f 0B       		.uleb128 0xb
 3110 0270 01       		.byte	0x1
 3111 0271 11       		.uleb128 0x11
 3112 0272 01       		.uleb128 0x1
 3113 0273 12       		.uleb128 0x12
 3114 0274 06       		.uleb128 0x6
 3115 0275 00       		.byte	0
 3116 0276 00       		.byte	0
 3117 0277 31       		.uleb128 0x31
 3118 0278 2E       		.uleb128 0x2e
 3119 0279 01       		.byte	0x1
 3120 027a 3F       		.uleb128 0x3f
 3121 027b 19       		.uleb128 0x19
 3122 027c 03       		.uleb128 0x3
 3123 027d 0E       		.uleb128 0xe
 3124 027e 3A       		.uleb128 0x3a
 3125 027f 0B       		.uleb128 0xb
 3126 0280 3B       		.uleb128 0x3b
 3127 0281 0B       		.uleb128 0xb
 3128 0282 49       		.uleb128 0x49
 3129 0283 13       		.uleb128 0x13
 3130 0284 3C       		.uleb128 0x3c
 3131 0285 19       		.uleb128 0x19
 3132 0286 00       		.byte	0
 3133 0287 00       		.byte	0
 3134 0288 32       		.uleb128 0x32
 3135 0289 2E       		.uleb128 0x2e
 3136 028a 01       		.byte	0x1
 3137 028b 3F       		.uleb128 0x3f
 3138 028c 19       		.uleb128 0x19
 3139 028d 03       		.uleb128 0x3
 3140 028e 0E       		.uleb128 0xe
 3141 028f 3A       		.uleb128 0x3a
 3142 0290 0B       		.uleb128 0xb
 3143 0291 3B       		.uleb128 0x3b
 3144 0292 0B       		.uleb128 0xb
 3145 0293 27       		.uleb128 0x27
 3146 0294 19       		.uleb128 0x19
 3147 0295 11       		.uleb128 0x11
 3148 0296 01       		.uleb128 0x1
 3149 0297 12       		.uleb128 0x12
 3150 0298 06       		.uleb128 0x6
 3151 0299 40       		.uleb128 0x40
 3152 029a 18       		.uleb128 0x18
 3153 029b 9642     		.uleb128 0x2116
 3154 029d 19       		.uleb128 0x19
 3155 029e 01       		.uleb128 0x1
 3156 029f 13       		.uleb128 0x13
 3157 02a0 00       		.byte	0
 3158 02a1 00       		.byte	0
 3159 02a2 33       		.uleb128 0x33
 3160 02a3 34       		.uleb128 0x34
 3161 02a4 00       		.byte	0
 3162 02a5 03       		.uleb128 0x3
 3163 02a6 0E       		.uleb128 0xe
 3164 02a7 3A       		.uleb128 0x3a
 3165 02a8 0B       		.uleb128 0xb
ARM GAS  C:\Users\Luis\AppData\Local\Temp\ccb1FswK.s 			page 57


 3166 02a9 3B       		.uleb128 0x3b
 3167 02aa 05       		.uleb128 0x5
 3168 02ab 49       		.uleb128 0x49
 3169 02ac 13       		.uleb128 0x13
 3170 02ad 3F       		.uleb128 0x3f
 3171 02ae 19       		.uleb128 0x19
 3172 02af 3C       		.uleb128 0x3c
 3173 02b0 19       		.uleb128 0x19
 3174 02b1 00       		.byte	0
 3175 02b2 00       		.byte	0
 3176 02b3 34       		.uleb128 0x34
 3177 02b4 34       		.uleb128 0x34
 3178 02b5 00       		.byte	0
 3179 02b6 03       		.uleb128 0x3
 3180 02b7 08       		.uleb128 0x8
 3181 02b8 3A       		.uleb128 0x3a
 3182 02b9 0B       		.uleb128 0xb
 3183 02ba 3B       		.uleb128 0x3b
 3184 02bb 05       		.uleb128 0x5
 3185 02bc 49       		.uleb128 0x49
 3186 02bd 13       		.uleb128 0x13
 3187 02be 3F       		.uleb128 0x3f
 3188 02bf 19       		.uleb128 0x19
 3189 02c0 3C       		.uleb128 0x3c
 3190 02c1 19       		.uleb128 0x19
 3191 02c2 00       		.byte	0
 3192 02c3 00       		.byte	0
 3193 02c4 35       		.uleb128 0x35
 3194 02c5 34       		.uleb128 0x34
 3195 02c6 00       		.byte	0
 3196 02c7 03       		.uleb128 0x3
 3197 02c8 0E       		.uleb128 0xe
 3198 02c9 3A       		.uleb128 0x3a
 3199 02ca 0B       		.uleb128 0xb
 3200 02cb 3B       		.uleb128 0x3b
 3201 02cc 0B       		.uleb128 0xb
 3202 02cd 49       		.uleb128 0x49
 3203 02ce 13       		.uleb128 0x13
 3204 02cf 3F       		.uleb128 0x3f
 3205 02d0 19       		.uleb128 0x19
 3206 02d1 02       		.uleb128 0x2
 3207 02d2 18       		.uleb128 0x18
 3208 02d3 00       		.byte	0
 3209 02d4 00       		.byte	0
 3210 02d5 00       		.byte	0
 3211              		.section	.debug_aranges,"",%progbits
 3212 0000 34000000 		.4byte	0x34
 3213 0004 0200     		.2byte	0x2
 3214 0006 00000000 		.4byte	.Ldebug_info0
 3215 000a 04       		.byte	0x4
 3216 000b 00       		.byte	0
 3217 000c 0000     		.2byte	0
 3218 000e 0000     		.2byte	0
 3219 0010 00000000 		.4byte	.LFB230
 3220 0014 14000000 		.4byte	.LFE230-.LFB230
 3221 0018 00000000 		.4byte	.LFB260
 3222 001c 2C000000 		.4byte	.LFE260-.LFB260
ARM GAS  C:\Users\Luis\AppData\Local\Temp\ccb1FswK.s 			page 58


 3223 0020 00000000 		.4byte	.LFB261
 3224 0024 78000000 		.4byte	.LFE261-.LFB261
 3225 0028 00000000 		.4byte	.LFB262
 3226 002c 90000000 		.4byte	.LFE262-.LFB262
 3227 0030 00000000 		.4byte	0
 3228 0034 00000000 		.4byte	0
 3229              		.section	.debug_ranges,"",%progbits
 3230              	.Ldebug_ranges0:
 3231 0000 00000000 		.4byte	.LFB230
 3232 0004 14000000 		.4byte	.LFE230
 3233 0008 00000000 		.4byte	.LFB260
 3234 000c 2C000000 		.4byte	.LFE260
 3235 0010 00000000 		.4byte	.LFB261
 3236 0014 78000000 		.4byte	.LFE261
 3237 0018 00000000 		.4byte	.LFB262
 3238 001c 90000000 		.4byte	.LFE262
 3239 0020 00000000 		.4byte	0
 3240 0024 00000000 		.4byte	0
 3241              		.section	.debug_line,"",%progbits
 3242              	.Ldebug_line0:
 3243 0000 31040000 		.section	.debug_str,"MS",%progbits,1
 3243      0200BC03 
 3243      00000201 
 3243      FB0E0D00 
 3243      01010101 
 3244              	.LASF251:
 3245 0000 433A5C55 		.ascii	"C:\\Users\\Luis\\git\\DSP-Library-Lanin\\examples\\"
 3245      73657273 
 3245      5C4C7569 
 3245      735C6769 
 3245      745C4453 
 3246 002d 53544D33 		.ascii	"STM32F407_EMTECH-LWIP\000"
 3246      32463430 
 3246      375F454D 
 3246      54454348 
 3246      2D4C5749 
 3247              	.LASF52:
 3248 0043 63685F74 		.ascii	"ch_threads_list\000"
 3248      68726561 
 3248      64735F6C 
 3248      69737400 
 3249              	.LASF53:
 3250 0053 74687265 		.ascii	"threads_queue_t\000"
 3250      6164735F 
 3250      71756575 
 3250      655F7400 
 3251              	.LASF171:
 3252 0063 53657269 		.ascii	"SerialDriver\000"
 3252      616C4472 
 3252      69766572 
 3252      00
 3253              	.LASF231:
 3254 0070 7564705F 		.ascii	"udp_pcb\000"
 3254      70636200 
 3255              	.LASF120:
 3256 0078 77746D74 		.ascii	"wtmtxp\000"
 3256      787000
ARM GAS  C:\Users\Luis\AppData\Local\Temp\ccb1FswK.s 			page 59


 3257              	.LASF104:
 3258 007f 746D5F63 		.ascii	"tm_calibration_t\000"
 3258      616C6962 
 3258      72617469 
 3258      6F6E5F74 
 3258      00
 3259              	.LASF49:
 3260 0090 74687265 		.ascii	"thread_reference_t\000"
 3260      61645F72 
 3260      65666572 
 3260      656E6365 
 3260      5F7400
 3261              	.LASF129:
 3262 00a3 63686172 		.ascii	"char\000"
 3262      00
 3263              	.LASF90:
 3264 00a8 72656761 		.ascii	"regarm_t\000"
 3264      726D5F74 
 3264      00
 3265              	.LASF31:
 3266 00b1 705F7072 		.ascii	"p_prio\000"
 3266      696F00
 3267              	.LASF206:
 3268 00b8 6E657463 		.ascii	"netconn_type\000"
 3268      6F6E6E5F 
 3268      74797065 
 3268      00
 3269              	.LASF253:
 3270 00c5 7374726E 		.ascii	"strncmp\000"
 3270      636D7000 
 3271              	.LASF139:
 3272 00cd 6576656E 		.ascii	"event_source\000"
 3272      745F736F 
 3272      75726365 
 3272      00
 3273              	.LASF192:
 3274 00da 666C6167 		.ascii	"flags\000"
 3274      7300
 3275              	.LASF27:
 3276 00e0 73797374 		.ascii	"systime_t\000"
 3276      696D655F 
 3276      7400
 3277              	.LASF127:
 3278 00ea 6D5F6F77 		.ascii	"m_owner\000"
 3278      6E657200 
 3279              	.LASF123:
 3280 00f2 735F7175 		.ascii	"s_queue\000"
 3280      65756500 
 3281              	.LASF223:
 3282 00fa 72656376 		.ascii	"recvmbox\000"
 3282      6D626F78 
 3282      00
 3283              	.LASF232:
 3284 0103 7261775F 		.ascii	"raw_pcb\000"
 3284      70636200 
 3285              	.LASF41:
 3286 010b 705F6D73 		.ascii	"p_msgqueue\000"
ARM GAS  C:\Users\Luis\AppData\Local\Temp\ccb1FswK.s 			page 60


 3286      67717565 
 3286      756500
 3287              	.LASF0:
 3288 0116 756E7369 		.ascii	"unsigned int\000"
 3288      676E6564 
 3288      20696E74 
 3288      00
 3289              	.LASF209:
 3290 0123 4E455443 		.ascii	"NETCONN_WRITE\000"
 3290      4F4E4E5F 
 3290      57524954 
 3290      4500
 3291              	.LASF188:
 3292 0131 6E657874 		.ascii	"next\000"
 3292      00
 3293              	.LASF113:
 3294 0136 6D5F6372 		.ascii	"m_crit_isr\000"
 3294      69745F69 
 3294      737200
 3295              	.LASF204:
 3296 0141 4E455443 		.ascii	"NETCONN_UDPNOCHKSUM\000"
 3296      4F4E4E5F 
 3296      5544504E 
 3296      4F43484B 
 3296      53554D00 
 3297              	.LASF50:
 3298 0155 74687265 		.ascii	"threads_list_t\000"
 3298      6164735F 
 3298      6C697374 
 3298      5F7400
 3299              	.LASF186:
 3300 0164 6572725F 		.ascii	"err_t\000"
 3300      7400
 3301              	.LASF108:
 3302 016a 63756D75 		.ascii	"cumulative\000"
 3302      6C617469 
 3302      766500
 3303              	.LASF40:
 3304 0175 705F7761 		.ascii	"p_waiting\000"
 3304      6974696E 
 3304      6700
 3305              	.LASF156:
 3306 017f 715F7264 		.ascii	"q_rdptr\000"
 3306      70747200 
 3307              	.LASF162:
 3308 0187 42617365 		.ascii	"BaseSequentialStreamVMT\000"
 3308      53657175 
 3308      656E7469 
 3308      616C5374 
 3308      7265616D 
 3309              	.LASF97:
 3310 019f 73655F73 		.ascii	"se_state\000"
 3310      74617465 
 3310      00
 3311              	.LASF159:
 3312 01a8 716E6F74 		.ascii	"qnotify_t\000"
 3312      6966795F 
ARM GAS  C:\Users\Luis\AppData\Local\Temp\ccb1FswK.s 			page 61


 3312      7400
 3313              	.LASF184:
 3314 01b2 7531365F 		.ascii	"u16_t\000"
 3314      7400
 3315              	.LASF181:
 3316 01b8 72656164 		.ascii	"readt\000"
 3316      7400
 3317              	.LASF249:
 3318 01be 474E5520 		.ascii	"GNU C 4.8.3 20131129 (release) [ARM/embedded-4_8-br"
 3318      4320342E 
 3318      382E3320 
 3318      32303133 
 3318      31313239 
 3319 01f1 616E6368 		.ascii	"anch revision 205641] -mcpu=cortex-m4 -mapcs-frame "
 3319      20726576 
 3319      6973696F 
 3319      6E203230 
 3319      35363431 
 3320 0224 2D6D6E6F 		.ascii	"-mno-thumb-interwork -mthumb -ggdb -O0 -falign-func"
 3320      2D746875 
 3320      6D622D69 
 3320      6E746572 
 3320      776F726B 
 3321 0257 74696F6E 		.ascii	"tions=16 -ffunction-sections -fdata-sections -fno-c"
 3321      733D3136 
 3321      202D6666 
 3321      756E6374 
 3321      696F6E2D 
 3322 028a 6F6D6D6F 		.ascii	"ommon\000"
 3322      6E00
 3323              	.LASF117:
 3324 0290 77746F62 		.ascii	"wtobjp\000"
 3324      6A7000
 3325              	.LASF83:
 3326 0297 76746C69 		.ascii	"vtlist\000"
 3326      737400
 3327              	.LASF158:
 3328 029e 715F6C69 		.ascii	"q_link\000"
 3328      6E6B00
 3329              	.LASF56:
 3330 02a5 63685F72 		.ascii	"ch_ready_list\000"
 3330      65616479 
 3330      5F6C6973 
 3330      7400
 3331              	.LASF86:
 3332 02b3 69646C65 		.ascii	"idle_thread_wa\000"
 3332      5F746872 
 3332      6561645F 
 3332      776100
 3333              	.LASF121:
 3334 02c2 65776D61 		.ascii	"ewmask\000"
 3334      736B00
 3335              	.LASF207:
 3336 02c9 6E657463 		.ascii	"netconn_state\000"
 3336      6F6E6E5F 
 3336      73746174 
 3336      6500
ARM GAS  C:\Users\Luis\AppData\Local\Temp\ccb1FswK.s 			page 62


 3337              	.LASF63:
 3338 02d7 76746675 		.ascii	"vtfunc_t\000"
 3338      6E635F74 
 3338      00
 3339              	.LASF180:
 3340 02e0 77726974 		.ascii	"writet\000"
 3340      657400
 3341              	.LASF124:
 3342 02e7 735F636E 		.ascii	"s_cnt\000"
 3342      7400
 3343              	.LASF75:
 3344 02ed 63685F73 		.ascii	"ch_system_debug\000"
 3344      79737465 
 3344      6D5F6465 
 3344      62756700 
 3345              	.LASF88:
 3346 02fd 47545052 		.ascii	"GTPR\000"
 3346      00
 3347              	.LASF149:
 3348 0302 696F5F71 		.ascii	"io_queue_t\000"
 3348      75657565 
 3348      5F7400
 3349              	.LASF174:
 3350 030d 69717565 		.ascii	"iqueue\000"
 3350      756500
 3351              	.LASF11:
 3352 0314 75696E74 		.ascii	"uint32_t\000"
 3352      33325F74 
 3352      00
 3353              	.LASF2:
 3354 031d 696E7438 		.ascii	"int8_t\000"
 3354      5F7400
 3355              	.LASF151:
 3356 0324 715F7761 		.ascii	"q_waiting\000"
 3356      6974696E 
 3356      6700
 3357              	.LASF114:
 3358 032e 6B65726E 		.ascii	"kernel_stats_t\000"
 3358      656C5F73 
 3358      74617473 
 3358      5F7400
 3359              	.LASF23:
 3360 033d 6576656E 		.ascii	"eventmask_t\000"
 3360      746D6173 
 3360      6B5F7400 
 3361              	.LASF58:
 3362 0349 725F7072 		.ascii	"r_prio\000"
 3362      696F00
 3363              	.LASF85:
 3364 0350 6B65726E 		.ascii	"kernel_stats\000"
 3364      656C5F73 
 3364      74617473 
 3364      00
 3365              	.LASF70:
 3366 035d 76745F70 		.ascii	"vt_par\000"
 3366      617200
 3367              	.LASF218:
ARM GAS  C:\Users\Luis\AppData\Local\Temp\ccb1FswK.s 			page 63


 3368 0364 4E455443 		.ascii	"NETCONN_EVT_ERROR\000"
 3368      4F4E4E5F 
 3368      4556545F 
 3368      4552524F 
 3368      5200
 3369              	.LASF170:
 3370 0376 73647374 		.ascii	"sdstate_t\000"
 3370      6174655F 
 3370      7400
 3371              	.LASF172:
 3372 0380 6576656E 		.ascii	"event\000"
 3372      7400
 3373              	.LASF122:
 3374 0386 63685F73 		.ascii	"ch_semaphore\000"
 3374      656D6170 
 3374      686F7265 
 3374      00
 3375              	.LASF21:
 3376 0393 74707269 		.ascii	"tprio_t\000"
 3376      6F5F7400 
 3377              	.LASF65:
 3378 039b 63685F76 		.ascii	"ch_virtual_timer\000"
 3378      69727475 
 3378      616C5F74 
 3378      696D6572 
 3378      00
 3379              	.LASF140:
 3380 03ac 65735F6E 		.ascii	"es_next\000"
 3380      65787400 
 3381              	.LASF15:
 3382 03b4 6C6F6E67 		.ascii	"long long unsigned int\000"
 3382      206C6F6E 
 3382      6720756E 
 3382      7369676E 
 3382      65642069 
 3383              	.LASF96:
 3384 03cb 73655F77 		.ascii	"se_wtobjp\000"
 3384      746F626A 
 3384      7000
 3385              	.LASF238:
 3386 03d5 72656173 		.ascii	"reason\000"
 3386      6F6E00
 3387              	.LASF200:
 3388 03dc 4E455443 		.ascii	"NETCONN_INVALID\000"
 3388      4F4E4E5F 
 3388      494E5641 
 3388      4C494400 
 3389              	.LASF141:
 3390 03ec 6576656E 		.ascii	"event_source_t\000"
 3390      745F736F 
 3390      75726365 
 3390      5F7400
 3391              	.LASF217:
 3392 03fb 4E455443 		.ascii	"NETCONN_EVT_SENDMINUS\000"
 3392      4F4E4E5F 
 3392      4556545F 
 3392      53454E44 
ARM GAS  C:\Users\Luis\AppData\Local\Temp\ccb1FswK.s 			page 64


 3392      4D494E55 
 3393              	.LASF77:
 3394 0411 6973725F 		.ascii	"isr_cnt\000"
 3394      636E7400 
 3395              	.LASF106:
 3396 0419 776F7273 		.ascii	"worst\000"
 3396      7400
 3397              	.LASF130:
 3398 041f 73656D61 		.ascii	"semaphore_t\000"
 3398      70686F72 
 3398      655F7400 
 3399              	.LASF33:
 3400 042b 705F6E65 		.ascii	"p_newer\000"
 3400      77657200 
 3401              	.LASF72:
 3402 0433 63685F76 		.ascii	"ch_virtual_timers_list\000"
 3402      69727475 
 3402      616C5F74 
 3402      696D6572 
 3402      735F6C69 
 3403              	.LASF214:
 3404 044a 4E455443 		.ascii	"NETCONN_EVT_RCVPLUS\000"
 3404      4F4E4E5F 
 3404      4556545F 
 3404      52435650 
 3404      4C555300 
 3405              	.LASF94:
 3406 045e 73655F74 		.ascii	"se_time\000"
 3406      696D6500 
 3407              	.LASF28:
 3408 0466 74687265 		.ascii	"thread_t\000"
 3408      61645F74 
 3408      00
 3409              	.LASF202:
 3410 046f 4E455443 		.ascii	"NETCONN_UDP\000"
 3410      4F4E4E5F 
 3410      55445000 
 3411              	.LASF138:
 3412 047b 656C5F77 		.ascii	"el_wflags\000"
 3412      666C6167 
 3412      7300
 3413              	.LASF234:
 3414 0485 5F5F676E 		.ascii	"__gnuc_va_list\000"
 3414      75635F76 
 3414      615F6C69 
 3414      737400
 3415              	.LASF178:
 3416 0494 70757474 		.ascii	"putt\000"
 3416      00
 3417              	.LASF190:
 3418 0499 746F745F 		.ascii	"tot_len\000"
 3418      6C656E00 
 3419              	.LASF1:
 3420 04a1 73697A65 		.ascii	"size_t\000"
 3420      5F7400
 3421              	.LASF115:
 3422 04a8 7264796D 		.ascii	"rdymsg\000"
ARM GAS  C:\Users\Luis\AppData\Local\Temp\ccb1FswK.s 			page 65


 3422      736700
 3423              	.LASF189:
 3424 04af 7061796C 		.ascii	"payload\000"
 3424      6F616400 
 3425              	.LASF103:
 3426 04b7 6F666673 		.ascii	"offset\000"
 3426      657400
 3427              	.LASF166:
 3428 04be 5F426F6F 		.ascii	"_Bool\000"
 3428      6C00
 3429              	.LASF168:
 3430 04c4 53445F53 		.ascii	"SD_STOP\000"
 3430      544F5000 
 3431              	.LASF145:
 3432 04cc 6D625F72 		.ascii	"mb_rdptr\000"
 3432      64707472 
 3432      00
 3433              	.LASF242:
 3434 04d5 636F6E6E 		.ascii	"conn\000"
 3434      00
 3435              	.LASF148:
 3436 04da 6D61696C 		.ascii	"mailbox_t\000"
 3436      626F785F 
 3436      7400
 3437              	.LASF125:
 3438 04e4 63685F6D 		.ascii	"ch_mutex\000"
 3438      75746578 
 3438      00
 3439              	.LASF221:
 3440 04ed 6C617374 		.ascii	"last_err\000"
 3440      5F657272 
 3440      00
 3441              	.LASF244:
 3442 04f6 6275666C 		.ascii	"buflen\000"
 3442      656E00
 3443              	.LASF183:
 3444 04fd 73385F74 		.ascii	"s8_t\000"
 3444      00
 3445              	.LASF89:
 3446 0502 55534152 		.ascii	"USART_TypeDef\000"
 3446      545F5479 
 3446      70654465 
 3446      6600
 3447              	.LASF107:
 3448 0510 6C617374 		.ascii	"last\000"
 3448      00
 3449              	.LASF147:
 3450 0515 6D625F65 		.ascii	"mb_emptysem\000"
 3450      6D707479 
 3450      73656D00 
 3451              	.LASF216:
 3452 0521 4E455443 		.ascii	"NETCONN_EVT_SENDPLUS\000"
 3452      4F4E4E5F 
 3452      4556545F 
 3452      53454E44 
 3452      504C5553 
 3453              	.LASF233:
ARM GAS  C:\Users\Luis\AppData\Local\Temp\ccb1FswK.s 			page 66


 3454 0536 6170695F 		.ascii	"api_msg_msg\000"
 3454      6D73675F 
 3454      6D736700 
 3455              	.LASF241:
 3456 0542 68747470 		.ascii	"http_server_serve\000"
 3456      5F736572 
 3456      7665725F 
 3456      73657276 
 3456      6500
 3457              	.LASF109:
 3458 0554 74696D65 		.ascii	"time_measurement_t\000"
 3458      5F6D6561 
 3458      73757265 
 3458      6D656E74 
 3458      5F7400
 3459              	.LASF215:
 3460 0567 4E455443 		.ascii	"NETCONN_EVT_RCVMINUS\000"
 3460      4F4E4E5F 
 3460      4556545F 
 3460      5243564D 
 3460      494E5553 
 3461              	.LASF35:
 3462 057c 705F6E61 		.ascii	"p_name\000"
 3462      6D6500
 3463              	.LASF165:
 3464 0583 42617365 		.ascii	"BaseSequentialStream\000"
 3464      53657175 
 3464      656E7469 
 3464      616C5374 
 3464      7265616D 
 3465              	.LASF252:
 3466 0598 63687072 		.ascii	"chprintf\000"
 3466      696E7466 
 3466      00
 3467              	.LASF196:
 3468 05a1 6E657462 		.ascii	"netbuf\000"
 3468      756600
 3469              	.LASF68:
 3470 05a8 76745F64 		.ascii	"vt_delta\000"
 3470      656C7461 
 3470      00
 3471              	.LASF17:
 3472 05b1 72747469 		.ascii	"rttime_t\000"
 3472      6D655F74 
 3472      00
 3473              	.LASF73:
 3474 05ba 76745F6C 		.ascii	"vt_lasttime\000"
 3474      61737474 
 3474      696D6500 
 3475              	.LASF155:
 3476 05c6 715F7772 		.ascii	"q_wrptr\000"
 3476      70747200 
 3477              	.LASF19:
 3478 05ce 74737461 		.ascii	"tstate_t\000"
 3478      74655F74 
 3478      00
 3479              	.LASF95:
ARM GAS  C:\Users\Luis\AppData\Local\Temp\ccb1FswK.s 			page 67


 3480 05d7 73655F74 		.ascii	"se_tp\000"
 3480      7000
 3481              	.LASF13:
 3482 05dd 6C6F6E67 		.ascii	"long long int\000"
 3482      206C6F6E 
 3482      6720696E 
 3482      7400
 3483              	.LASF34:
 3484 05eb 705F6F6C 		.ascii	"p_older\000"
 3484      64657200 
 3485              	.LASF142:
 3486 05f3 6D625F62 		.ascii	"mb_buffer\000"
 3486      75666665 
 3486      7200
 3487              	.LASF36:
 3488 05fd 705F7374 		.ascii	"p_stklimit\000"
 3488      6B6C696D 
 3488      697400
 3489              	.LASF4:
 3490 0608 75696E74 		.ascii	"uint8_t\000"
 3490      385F7400 
 3491              	.LASF146:
 3492 0610 6D625F66 		.ascii	"mb_fullsem\000"
 3492      756C6C73 
 3492      656D00
 3493              	.LASF191:
 3494 061b 74797065 		.ascii	"type\000"
 3494      00
 3495              	.LASF47:
 3496 0620 705F7374 		.ascii	"p_stats\000"
 3496      61747300 
 3497              	.LASF160:
 3498 0628 696E7075 		.ascii	"input_queue_t\000"
 3498      745F7175 
 3498      6575655F 
 3498      7400
 3499              	.LASF46:
 3500 0636 705F6D70 		.ascii	"p_mpool\000"
 3500      6F6F6C00 
 3501              	.LASF243:
 3502 063e 696E6275 		.ascii	"inbuf\000"
 3502      6600
 3503              	.LASF44:
 3504 0644 705F6D74 		.ascii	"p_mtxlist\000"
 3504      786C6973 
 3504      7400
 3505              	.LASF224:
 3506 064e 61636365 		.ascii	"acceptmbox\000"
 3506      70746D62 
 3506      6F7800
 3507              	.LASF51:
 3508 0659 63685F74 		.ascii	"ch_thread\000"
 3508      68726561 
 3508      6400
 3509              	.LASF99:
 3510 0663 74625F73 		.ascii	"tb_size\000"
 3510      697A6500 
ARM GAS  C:\Users\Luis\AppData\Local\Temp\ccb1FswK.s 			page 68


 3511              	.LASF176:
 3512 066b 75736172 		.ascii	"usart\000"
 3512      7400
 3513              	.LASF237:
 3514 0671 76615F6C 		.ascii	"va_list\000"
 3514      69737400 
 3515              	.LASF74:
 3516 0679 73797374 		.ascii	"system_debug_t\000"
 3516      656D5F64 
 3516      65627567 
 3516      5F7400
 3517              	.LASF37:
 3518 0688 705F7374 		.ascii	"p_state\000"
 3518      61746500 
 3519              	.LASF54:
 3520 0690 63685F74 		.ascii	"ch_threads_queue\000"
 3520      68726561 
 3520      64735F71 
 3520      75657565 
 3520      00
 3521              	.LASF163:
 3522 06a1 77726974 		.ascii	"write\000"
 3522      6500
 3523              	.LASF133:
 3524 06a7 6576656E 		.ascii	"event_listener\000"
 3524      745F6C69 
 3524      7374656E 
 3524      657200
 3525              	.LASF57:
 3526 06b6 725F7175 		.ascii	"r_queue\000"
 3526      65756500 
 3527              	.LASF60:
 3528 06be 725F6E65 		.ascii	"r_newer\000"
 3528      77657200 
 3529              	.LASF25:
 3530 06c6 636E745F 		.ascii	"cnt_t\000"
 3530      7400
 3531              	.LASF22:
 3532 06cc 6D73675F 		.ascii	"msg_t\000"
 3532      7400
 3533              	.LASF92:
 3534 06d2 636F6E74 		.ascii	"context\000"
 3534      65787400 
 3535              	.LASF182:
 3536 06da 75385F74 		.ascii	"u8_t\000"
 3536      00
 3537              	.LASF38:
 3538 06df 705F666C 		.ascii	"p_flags\000"
 3538      61677300 
 3539              	.LASF236:
 3540 06e7 5F5F6170 		.ascii	"__ap\000"
 3540      00
 3541              	.LASF64:
 3542 06ec 76697274 		.ascii	"virtual_timer_t\000"
 3542      75616C5F 
 3542      74696D65 
 3542      725F7400 
ARM GAS  C:\Users\Luis\AppData\Local\Temp\ccb1FswK.s 			page 69


 3543              	.LASF240:
 3544 06fc 6F73616C 		.ascii	"osalSysHalt\000"
 3544      53797348 
 3544      616C7400 
 3545              	.LASF161:
 3546 0708 6F757470 		.ascii	"output_queue_t\000"
 3546      75745F71 
 3546      75657565 
 3546      5F7400
 3547              	.LASF101:
 3548 0717 74625F62 		.ascii	"tb_buffer\000"
 3548      75666665 
 3548      7200
 3549              	.LASF143:
 3550 0721 6D625F74 		.ascii	"mb_top\000"
 3550      6F7000
 3551              	.LASF100:
 3552 0728 74625F70 		.ascii	"tb_ptr\000"
 3552      747200
 3553              	.LASF61:
 3554 072f 725F6F6C 		.ascii	"r_older\000"
 3554      64657200 
 3555              	.LASF111:
 3556 0737 6E5F6374 		.ascii	"n_ctxswc\000"
 3556      78737763 
 3556      00
 3557              	.LASF12:
 3558 0740 6C6F6E67 		.ascii	"long unsigned int\000"
 3558      20756E73 
 3558      69676E65 
 3558      6420696E 
 3558      7400
 3559              	.LASF24:
 3560 0752 6576656E 		.ascii	"eventflags_t\000"
 3560      74666C61 
 3560      67735F74 
 3560      00
 3561              	.LASF76:
 3562 075f 70616E69 		.ascii	"panic_msg\000"
 3562      635F6D73 
 3562      6700
 3563              	.LASF134:
 3564 0769 656C5F6E 		.ascii	"el_next\000"
 3564      65787400 
 3565              	.LASF42:
 3566 0771 705F6D73 		.ascii	"p_msg\000"
 3566      6700
 3567              	.LASF18:
 3568 0777 746D6F64 		.ascii	"tmode_t\000"
 3568      655F7400 
 3569              	.LASF26:
 3570 077f 75636E74 		.ascii	"ucnt_t\000"
 3570      5F7400
 3571              	.LASF84:
 3572 0786 6D61696E 		.ascii	"mainthread\000"
 3572      74687265 
 3572      616400
ARM GAS  C:\Users\Luis\AppData\Local\Temp\ccb1FswK.s 			page 70


 3573              	.LASF8:
 3574 0791 73686F72 		.ascii	"short unsigned int\000"
 3574      7420756E 
 3574      7369676E 
 3574      65642069 
 3574      6E7400
 3575              	.LASF175:
 3576 07a4 6F717565 		.ascii	"oqueue\000"
 3576      756500
 3577              	.LASF7:
 3578 07ab 75696E74 		.ascii	"uint16_t\000"
 3578      31365F74 
 3578      00
 3579              	.LASF208:
 3580 07b4 4E455443 		.ascii	"NETCONN_NONE\000"
 3580      4F4E4E5F 
 3580      4E4F4E45 
 3580      00
 3581              	.LASF16:
 3582 07c1 7274636E 		.ascii	"rtcnt_t\000"
 3582      745F7400 
 3583              	.LASF211:
 3584 07c9 4E455443 		.ascii	"NETCONN_CONNECT\000"
 3584      4F4E4E5F 
 3584      434F4E4E 
 3584      45435400 
 3585              	.LASF169:
 3586 07d9 53445F52 		.ascii	"SD_READY\000"
 3586      45414459 
 3586      00
 3587              	.LASF78:
 3588 07e2 6C6F636B 		.ascii	"lock_cnt\000"
 3588      5F636E74 
 3588      00
 3589              	.LASF254:
 3590 07eb 68747470 		.ascii	"http_server\000"
 3590      5F736572 
 3590      76657200 
 3591              	.LASF110:
 3592 07f7 6E5F6972 		.ascii	"n_irq\000"
 3592      7100
 3593              	.LASF87:
 3594 07fd 73697A65 		.ascii	"sizetype\000"
 3594      74797065 
 3594      00
 3595              	.LASF45:
 3596 0806 705F7265 		.ascii	"p_realprio\000"
 3596      616C7072 
 3596      696F00
 3597              	.LASF185:
 3598 0811 7533325F 		.ascii	"u32_t\000"
 3598      7400
 3599              	.LASF6:
 3600 0817 73686F72 		.ascii	"short int\000"
 3600      7420696E 
 3600      7400
 3601              	.LASF144:
ARM GAS  C:\Users\Luis\AppData\Local\Temp\ccb1FswK.s 			page 71


 3602 0821 6D625F77 		.ascii	"mb_wrptr\000"
 3602      72707472 
 3602      00
 3603              	.LASF62:
 3604 082a 725F6375 		.ascii	"r_current\000"
 3604      7272656E 
 3604      7400
 3605              	.LASF43:
 3606 0834 705F6570 		.ascii	"p_epending\000"
 3606      656E6469 
 3606      6E6700
 3607              	.LASF126:
 3608 083f 6D5F7175 		.ascii	"m_queue\000"
 3608      65756500 
 3609              	.LASF10:
 3610 0847 6C6F6E67 		.ascii	"long int\000"
 3610      20696E74 
 3610      00
 3611              	.LASF93:
 3612 0850 706F7274 		.ascii	"port_intctx\000"
 3612      5F696E74 
 3612      63747800 
 3613              	.LASF247:
 3614 085c 49544D5F 		.ascii	"ITM_RxBuffer\000"
 3614      52784275 
 3614      66666572 
 3614      00
 3615              	.LASF81:
 3616 0869 63685F73 		.ascii	"ch_system\000"
 3616      79737465 
 3616      6D00
 3617              	.LASF227:
 3618 0873 63757272 		.ascii	"current_msg\000"
 3618      656E745F 
 3618      6D736700 
 3619              	.LASF112:
 3620 087f 6D5F6372 		.ascii	"m_crit_thd\000"
 3620      69745F74 
 3620      686400
 3621              	.LASF29:
 3622 088a 705F6E65 		.ascii	"p_next\000"
 3622      787400
 3623              	.LASF14:
 3624 0891 75696E74 		.ascii	"uint64_t\000"
 3624      36345F74 
 3624      00
 3625              	.LASF32:
 3626 089a 705F6374 		.ascii	"p_ctx\000"
 3626      7800
 3627              	.LASF82:
 3628 08a0 726C6973 		.ascii	"rlist\000"
 3628      7400
 3629              	.LASF198:
 3630 08a6 7379735F 		.ascii	"sys_sem_t\000"
 3630      73656D5F 
 3630      7400
 3631              	.LASF225:
ARM GAS  C:\Users\Luis\AppData\Local\Temp\ccb1FswK.s 			page 72


 3632 08b0 736F636B 		.ascii	"socket\000"
 3632      657400
 3633              	.LASF248:
 3634 08b7 77615F68 		.ascii	"wa_http_server\000"
 3634      7474705F 
 3634      73657276 
 3634      657200
 3635              	.LASF246:
 3636 08c6 68747470 		.ascii	"http_index_html\000"
 3636      5F696E64 
 3636      65785F68 
 3636      746D6C00 
 3637              	.LASF164:
 3638 08d6 72656164 		.ascii	"read\000"
 3638      00
 3639              	.LASF135:
 3640 08db 656C5F6C 		.ascii	"el_listener\000"
 3640      69737465 
 3640      6E657200 
 3641              	.LASF167:
 3642 08e7 53445F55 		.ascii	"SD_UNINIT\000"
 3642      4E494E49 
 3642      5400
 3643              	.LASF152:
 3644 08f1 715F636F 		.ascii	"q_counter\000"
 3644      756E7465 
 3644      7200
 3645              	.LASF250:
 3646 08fb 7765622F 		.ascii	"web/web.c\000"
 3646      7765622E 
 3646      6300
 3647              	.LASF179:
 3648 0905 67657474 		.ascii	"gett\000"
 3648      00
 3649              	.LASF154:
 3650 090a 715F746F 		.ascii	"q_top\000"
 3650      7000
 3651              	.LASF30:
 3652 0910 705F7072 		.ascii	"p_prev\000"
 3652      657600
 3653              	.LASF199:
 3654 0917 7379735F 		.ascii	"sys_mbox_t\000"
 3654      6D626F78 
 3654      5F7400
 3655              	.LASF20:
 3656 0922 74726566 		.ascii	"trefs_t\000"
 3656      735F7400 
 3657              	.LASF132:
 3658 092a 6576656E 		.ascii	"event_listener_t\000"
 3658      745F6C69 
 3658      7374656E 
 3658      65725F74 
 3658      00
 3659              	.LASF55:
 3660 093b 72656164 		.ascii	"ready_list_t\000"
 3660      795F6C69 
 3660      73745F74 
ARM GAS  C:\Users\Luis\AppData\Local\Temp\ccb1FswK.s 			page 73


 3660      00
 3661              	.LASF9:
 3662 0948 696E7433 		.ascii	"int32_t\000"
 3662      325F7400 
 3663              	.LASF197:
 3664 0950 706F7274 		.ascii	"port\000"
 3664      00
 3665              	.LASF79:
 3666 0955 74726163 		.ascii	"trace_buffer\000"
 3666      655F6275 
 3666      66666572 
 3666      00
 3667              	.LASF119:
 3668 0962 77747365 		.ascii	"wtsemp\000"
 3668      6D7000
 3669              	.LASF213:
 3670 0969 6E657463 		.ascii	"netconn_evt\000"
 3670      6F6E6E5F 
 3670      65767400 
 3671              	.LASF219:
 3672 0975 6E657463 		.ascii	"netconn_callback\000"
 3672      6F6E6E5F 
 3672      63616C6C 
 3672      6261636B 
 3672      00
 3673              	.LASF98:
 3674 0986 63685F73 		.ascii	"ch_swc_event_t\000"
 3674      77635F65 
 3674      76656E74 
 3674      5F7400
 3675              	.LASF131:
 3676 0995 6D757465 		.ascii	"mutex_t\000"
 3676      785F7400 
 3677              	.LASF105:
 3678 099d 62657374 		.ascii	"best\000"
 3678      00
 3679              	.LASF5:
 3680 09a2 756E7369 		.ascii	"unsigned char\000"
 3680      676E6564 
 3680      20636861 
 3680      7200
 3681              	.LASF71:
 3682 09b0 76697274 		.ascii	"virtual_timers_list_t\000"
 3682      75616C5F 
 3682      74696D65 
 3682      72735F6C 
 3682      6973745F 
 3683              	.LASF136:
 3684 09c6 656C5F65 		.ascii	"el_events\000"
 3684      76656E74 
 3684      7300
 3685              	.LASF229:
 3686 09d0 69705F70 		.ascii	"ip_pcb\000"
 3686      636200
 3687              	.LASF201:
 3688 09d7 4E455443 		.ascii	"NETCONN_TCP\000"
 3688      4F4E4E5F 
ARM GAS  C:\Users\Luis\AppData\Local\Temp\ccb1FswK.s 			page 74


 3688      54435000 
 3689              	.LASF187:
 3690 09e3 70627566 		.ascii	"pbuf\000"
 3690      00
 3691              	.LASF210:
 3692 09e8 4E455443 		.ascii	"NETCONN_LISTEN\000"
 3692      4F4E4E5F 
 3692      4C495354 
 3692      454E00
 3693              	.LASF91:
 3694 09f7 73746B61 		.ascii	"stkalign_t\000"
 3694      6C69676E 
 3694      5F7400
 3695              	.LASF226:
 3696 0a02 77726974 		.ascii	"write_offset\000"
 3696      655F6F66 
 3696      66736574 
 3696      00
 3697              	.LASF194:
 3698 0a0f 61646472 		.ascii	"addr\000"
 3698      00
 3699              	.LASF39:
 3700 0a14 705F7265 		.ascii	"p_refs\000"
 3700      667300
 3701              	.LASF173:
 3702 0a1b 73746174 		.ascii	"state\000"
 3702      6500
 3703              	.LASF228:
 3704 0a21 63616C6C 		.ascii	"callback\000"
 3704      6261636B 
 3704      00
 3705              	.LASF66:
 3706 0a2a 76745F6E 		.ascii	"vt_next\000"
 3706      65787400 
 3707              	.LASF80:
 3708 0a32 63685F73 		.ascii	"ch_system_t\000"
 3708      79737465 
 3708      6D5F7400 
 3709              	.LASF118:
 3710 0a3e 77747472 		.ascii	"wttrp\000"
 3710      7000
 3711              	.LASF235:
 3712 0a44 5F5F7661 		.ascii	"__va_list\000"
 3712      5F6C6973 
 3712      7400
 3713              	.LASF212:
 3714 0a4e 4E455443 		.ascii	"NETCONN_CLOSE\000"
 3714      4F4E4E5F 
 3714      434C4F53 
 3714      4500
 3715              	.LASF102:
 3716 0a5c 63685F74 		.ascii	"ch_trace_buffer_t\000"
 3716      72616365 
 3716      5F627566 
 3716      6665725F 
 3716      7400
 3717              	.LASF128:
ARM GAS  C:\Users\Luis\AppData\Local\Temp\ccb1FswK.s 			page 75


 3718 0a6e 6D5F6E65 		.ascii	"m_next\000"
 3718      787400
 3719              	.LASF245:
 3720 0a75 6E657763 		.ascii	"newconn\000"
 3720      6F6E6E00 
 3721              	.LASF3:
 3722 0a7d 7369676E 		.ascii	"signed char\000"
 3722      65642063 
 3722      68617200 
 3723              	.LASF150:
 3724 0a89 696F5F71 		.ascii	"io_queue\000"
 3724      75657565 
 3724      00
 3725              	.LASF230:
 3726 0a92 7463705F 		.ascii	"tcp_pcb\000"
 3726      70636200 
 3727              	.LASF177:
 3728 0a9a 53657269 		.ascii	"SerialDriverVMT\000"
 3728      616C4472 
 3728      69766572 
 3728      564D5400 
 3729              	.LASF59:
 3730 0aaa 725F6374 		.ascii	"r_ctx\000"
 3730      7800
 3731              	.LASF48:
 3732 0ab0 746C7350 		.ascii	"tlsPtr\000"
 3732      747200
 3733              	.LASF205:
 3734 0ab7 4E455443 		.ascii	"NETCONN_RAW\000"
 3734      4F4E4E5F 
 3734      52415700 
 3735              	.LASF203:
 3736 0ac3 4E455443 		.ascii	"NETCONN_UDPLITE\000"
 3736      4F4E4E5F 
 3736      5544504C 
 3736      49544500 
 3737              	.LASF69:
 3738 0ad3 76745F66 		.ascii	"vt_func\000"
 3738      756E6300 
 3739              	.LASF222:
 3740 0adb 6F705F63 		.ascii	"op_completed\000"
 3740      6F6D706C 
 3740      65746564 
 3740      00
 3741              	.LASF67:
 3742 0ae8 76745F70 		.ascii	"vt_prev\000"
 3742      72657600 
 3743              	.LASF239:
 3744 0af0 666F726D 		.ascii	"formatted_bytes\000"
 3744      61747465 
 3744      645F6279 
 3744      74657300 
 3745              	.LASF195:
 3746 0b00 69705F61 		.ascii	"ip_addr_t\000"
 3746      6464725F 
 3746      7400
 3747              	.LASF220:
ARM GAS  C:\Users\Luis\AppData\Local\Temp\ccb1FswK.s 			page 76


 3748 0b0a 6E657463 		.ascii	"netconn\000"
 3748      6F6E6E00 
 3749              	.LASF157:
 3750 0b12 715F6E6F 		.ascii	"q_notify\000"
 3750      74696679 
 3750      00
 3751              	.LASF137:
 3752 0b1b 656C5F66 		.ascii	"el_flags\000"
 3752      6C616773 
 3752      00
 3753              	.LASF116:
 3754 0b24 65786974 		.ascii	"exitcode\000"
 3754      636F6465 
 3754      00
 3755              	.LASF153:
 3756 0b2d 715F6275 		.ascii	"q_buffer\000"
 3756      66666572 
 3756      00
 3757              	.LASF193:
 3758 0b36 69705F61 		.ascii	"ip_addr\000"
 3758      64647200 
 3759              		.ident	"GCC: (GNU Tools for ARM Embedded Processors) 4.8.3 20131129 (release) [ARM/embedded-4_8-br
ARM GAS  C:\Users\Luis\AppData\Local\Temp\ccb1FswK.s 			page 77


DEFINED SYMBOLS
                            *ABS*:00000000 web.c
C:\Users\Luis\AppData\Local\Temp\ccb1FswK.s:19     .text.osalSysHalt:00000000 $t
C:\Users\Luis\AppData\Local\Temp\ccb1FswK.s:24     .text.osalSysHalt:00000000 osalSysHalt
C:\Users\Luis\AppData\Local\Temp\ccb1FswK.s:52     .text.chprintf:00000000 $t
C:\Users\Luis\AppData\Local\Temp\ccb1FswK.s:57     .text.chprintf:00000000 chprintf
C:\Users\Luis\AppData\Local\Temp\ccb1FswK.s:101    .rodata.http_index_html:00000000 $d
C:\Users\Luis\AppData\Local\Temp\ccb1FswK.s:104    .rodata.http_index_html:00000000 http_index_html
C:\Users\Luis\AppData\Local\Temp\ccb1FswK.s:109    .rodata:00000000 $d
C:\Users\Luis\AppData\Local\Temp\ccb1FswK.s:113    .text.http_server_serve:00000000 $t
C:\Users\Luis\AppData\Local\Temp\ccb1FswK.s:118    .text.http_server_serve:00000000 http_server_serve
C:\Users\Luis\AppData\Local\Temp\ccb1FswK.s:192    .text.http_server_serve:00000070 $d
C:\Users\Luis\AppData\Local\Temp\ccb1FswK.s:202    .bss.wa_http_server:00000000 wa_http_server
C:\Users\Luis\AppData\Local\Temp\ccb1FswK.s:199    .bss.wa_http_server:00000000 $d
C:\Users\Luis\AppData\Local\Temp\ccb1FswK.s:215    .text.http_server:00000000 $t
C:\Users\Luis\AppData\Local\Temp\ccb1FswK.s:221    .text.http_server:00000000 http_server
C:\Users\Luis\AppData\Local\Temp\ccb1FswK.s:304    .text.http_server:00000080 $d
                     .debug_frame:00000010 $d
C:\Users\Luis\AppData\Local\Temp\ccb1FswK.s:198    .text.http_server_serve:00000078 $t

UNDEFINED SYMBOLS
chSysHalt
chvprintf
netconn_recv
netbuf_data
strncmp
netconn_write_partly
netconn_close
netbuf_delete
netconn_new_with_proto_and_callback
chThdExit
netconn_bind
netconn_listen_with_backlog
chThdSetPriority
netconn_accept
netconn_delete
SD1
