ARM GAS  C:\Users\Luis\AppData\Local\Temp\ccb1FswK.s 			page 1


   1              		.syntax unified
   2              		.cpu cortex-m4
   3              		.fpu softvfp
   4              		.eabi_attribute 20, 1
   5              		.eabi_attribute 21, 1
   6              		.eabi_attribute 23, 3
   7              		.eabi_attribute 24, 1
   8              		.eabi_attribute 25, 1
   9              		.eabi_attribute 26, 1
  10              		.eabi_attribute 30, 6
  11              		.eabi_attribute 34, 1
  12              		.eabi_attribute 18, 4
  13              		.thumb
  14              		.file	"web.c"
  15              		.text
  16              	.Ltext0:
  17              		.cfi_sections	.debug_frame
  18              		.section	.text.osalSysHalt,"ax",%progbits
  19              		.align	2
  20              		.p2align 4,,15
  21              		.thumb
  22              		.thumb_func
  23              		.type	osalSysHalt, %function
  24              	osalSysHalt:
  25              	.LFB230:
  26              		.file 1 "../../ChibiOS/os/hal/osal/rt/osal.h"
  27              		.loc 1 460 0
  28              		.cfi_startproc
  29              		@ args = 0, pretend = 0, frame = 8
  30              		@ frame_needed = 1, uses_anonymous_args = 0
  31 0000 80B5     		push	{r7, lr}
  32              		.cfi_def_cfa_offset 8
  33              		.cfi_offset 7, -8
  34              		.cfi_offset 14, -4
  35 0002 82B0     		sub	sp, sp, #8
  36              		.cfi_def_cfa_offset 16
  37 0004 00AF     		add	r7, sp, #0
  38              		.cfi_def_cfa_register 7
  39 0006 7860     		str	r0, [r7, #4]
  40              		.loc 1 462 0
  41 0008 7868     		ldr	r0, [r7, #4]
  42 000a FFF7FEFF 		bl	chSysHalt
  43              		.loc 1 463 0
  44 000e 0837     		adds	r7, r7, #8
  45 0010 BD46     		mov	sp, r7
  46              		@ sp needed
  47 0012 80BD     		pop	{r7, pc}
  48              		.cfi_endproc
  49              	.LFE230:
  50              		.size	osalSysHalt, .-osalSysHalt
  51 0014 AFF30080 		.section	.text.chprintf,"ax",%progbits
  51      AFF30080 
  51      AFF30080 
  52              		.align	2
  53              		.p2align 4,,15
  54              		.thumb
  55              		.thumb_func
ARM GAS  C:\Users\Luis\AppData\Local\Temp\ccb1FswK.s 			page 2


  56              		.type	chprintf, %function
  57              	chprintf:
  58              	.LFB260:
  59              		.file 2 "../../ChibiOS/os/hal/lib/streams/chprintf.h"
  60              		.loc 2 69 0
  61              		.cfi_startproc
  62              		@ args = 4, pretend = 12, frame = 16
  63              		@ frame_needed = 1, uses_anonymous_args = 1
  64 0000 0EB4     		push	{r1, r2, r3}
  65              		.cfi_def_cfa_offset 12
  66              		.cfi_offset 1, -12
  67              		.cfi_offset 2, -8
  68              		.cfi_offset 3, -4
  69 0002 80B5     		push	{r7, lr}
  70              		.cfi_def_cfa_offset 20
  71              		.cfi_offset 7, -20
  72              		.cfi_offset 14, -16
  73 0004 85B0     		sub	sp, sp, #20
  74              		.cfi_def_cfa_offset 40
  75 0006 00AF     		add	r7, sp, #0
  76              		.cfi_def_cfa_register 7
  77 0008 7860     		str	r0, [r7, #4]
  78              		.loc 2 73 0
  79 000a 07F12003 		add	r3, r7, #32
  80 000e BB60     		str	r3, [r7, #8]
  81              		.loc 2 74 0
  82 0010 7868     		ldr	r0, [r7, #4]
  83 0012 F969     		ldr	r1, [r7, #28]
  84 0014 BA68     		ldr	r2, [r7, #8]
  85 0016 FFF7FEFF 		bl	chvprintf
  86 001a F860     		str	r0, [r7, #12]
  87              		.loc 2 77 0
  88 001c FB68     		ldr	r3, [r7, #12]
  89              		.loc 2 78 0
  90 001e 1846     		mov	r0, r3
  91 0020 1437     		adds	r7, r7, #20
  92 0022 BD46     		mov	sp, r7
  93              		@ sp needed
  94 0024 BDE88040 		pop	{r7, lr}
  95 0028 03B0     		add	sp, sp, #12
  96 002a 7047     		bx	lr
  97              		.cfi_endproc
  98              	.LFE260:
  99              		.size	chprintf, .-chprintf
 100 002c AFF30080 		.section	.rodata.http_index_html,"a",%progbits
 101              		.align	2
 102              		.type	http_index_html, %object
 103              		.size	http_index_html, 122
 104              	http_index_html:
 105 0000 3C68746D 		.ascii	"<html><head><title>Demo LWIP</title></head><body><h"
 105      6C3E3C68 
 105      6561643E 
 105      3C746974 
 105      6C653E44 
 106 0033 313E4C77 		.ascii	"1>LwIP HTTP server!</h1><p>Esta es una p\341gina de"
 106      49502048 
 106      54545020 
ARM GAS  C:\Users\Luis\AppData\Local\Temp\ccb1FswK.s 			page 3


 106      73657276 
 106      6572213C 
 107 0063 20707275 		.ascii	" pruebas</body></html>\000"
 107      65626173 
 107      3C2F626F 
 107      64793E3C 
 107      2F68746D 
 108 007a 0000     		.section	.rodata
 109              		.align	2
 110              	.LC0:
 111 0000 47455420 		.ascii	"GET /\000"
 111      2F00
 112              		.section	.text.http_server_serve,"ax",%progbits
 113              		.align	2
 114              		.p2align 4,,15
 115              		.thumb
 116              		.thumb_func
 117              		.type	http_server_serve, %function
 118              	http_server_serve:
 119              	.LFB261:
 120              		.file 3 "web/web.c"
 121              		.loc 3 46 0
 122              		.cfi_startproc
 123              		@ args = 0, pretend = 0, frame = 24
 124              		@ frame_needed = 1, uses_anonymous_args = 0
 125 0000 80B5     		push	{r7, lr}
 126              		.cfi_def_cfa_offset 8
 127              		.cfi_offset 7, -8
 128              		.cfi_offset 14, -4
 129 0002 88B0     		sub	sp, sp, #32
 130              		.cfi_def_cfa_offset 40
 131 0004 02AF     		add	r7, sp, #8
 132              		.cfi_def_cfa 7, 32
 133 0006 7860     		str	r0, [r7, #4]
 134              		.loc 3 54 0
 135 0008 07F11003 		add	r3, r7, #16
 136 000c 7868     		ldr	r0, [r7, #4]
 137 000e 1946     		mov	r1, r3
 138 0010 FFF7FEFF 		bl	netconn_recv
 139 0014 0346     		mov	r3, r0
 140 0016 FB75     		strb	r3, [r7, #23]
 141              		.loc 3 56 0
 142 0018 97F91730 		ldrsb	r3, [r7, #23]
 143 001c 002B     		cmp	r3, #0
 144 001e 1DD1     		bne	.L5
 145              	.LBB2:
 146              		.loc 3 57 0
 147 0020 3969     		ldr	r1, [r7, #16]
 148 0022 07F10C02 		add	r2, r7, #12
 149 0026 07F10A03 		add	r3, r7, #10
 150 002a 0846     		mov	r0, r1
 151 002c 1146     		mov	r1, r2
 152 002e 1A46     		mov	r2, r3
 153 0030 FFF7FEFF 		bl	netbuf_data
 154              		.loc 3 61 0
 155 0034 7B89     		ldrh	r3, [r7, #10]
 156 0036 042B     		cmp	r3, #4
ARM GAS  C:\Users\Luis\AppData\Local\Temp\ccb1FswK.s 			page 4


 157 0038 10D9     		bls	.L5
 158              		.loc 3 61 0 is_stmt 0 discriminator 1
 159 003a FB68     		ldr	r3, [r7, #12]
 160 003c 1846     		mov	r0, r3
 161 003e 0C49     		ldr	r1, .L6
 162 0040 0522     		movs	r2, #5
 163 0042 FFF7FEFF 		bl	strncmp
 164 0046 0346     		mov	r3, r0
 165 0048 002B     		cmp	r3, #0
 166 004a 07D1     		bne	.L5
 167              		.loc 3 64 0 is_stmt 1
 168 004c 0023     		movs	r3, #0
 169 004e 0093     		str	r3, [sp]
 170 0050 7868     		ldr	r0, [r7, #4]
 171 0052 0849     		ldr	r1, .L6+4
 172 0054 7922     		movs	r2, #121
 173 0056 0023     		movs	r3, #0
 174 0058 FFF7FEFF 		bl	netconn_write_partly
 175              	.L5:
 176              	.LBE2:
 177              		.loc 3 68 0
 178 005c 7868     		ldr	r0, [r7, #4]
 179 005e FFF7FEFF 		bl	netconn_close
 180              		.loc 3 72 0
 181 0062 3B69     		ldr	r3, [r7, #16]
 182 0064 1846     		mov	r0, r3
 183 0066 FFF7FEFF 		bl	netbuf_delete
 184              		.loc 3 73 0
 185 006a 1837     		adds	r7, r7, #24
 186 006c BD46     		mov	sp, r7
 187              		@ sp needed
 188 006e 80BD     		pop	{r7, pc}
 189              	.L7:
 190              		.align	2
 191              	.L6:
 192 0070 00000000 		.word	.LC0
 193 0074 00000000 		.word	http_index_html
 194              		.cfi_endproc
 195              	.LFE261:
 196              		.size	http_server_serve, .-http_server_serve
 197              		.global	wa_http_server
 198 0078 AFF30080 		.section	.bss.wa_http_server,"aw",%nobits
 198      AFF30080 
 199              		.align	3
 200              		.type	wa_http_server, %object
 201              		.size	wa_http_server, 1264
 202              	wa_http_server:
 203 0000 00000000 		.space	1264
 203      00000000 
 203      00000000 
 203      00000000 
 203      00000000 
 204              		.section	.rodata
 205 0006 0000     		.align	2
 206              	.LC1:
 207 0008 68747470 		.ascii	"http_server: invalid conn\000"
 207      5F736572 
ARM GAS  C:\Users\Luis\AppData\Local\Temp\ccb1FswK.s 			page 5


 207      7665723A 
 207      20696E76 
 207      616C6964 
 208 0022 0000     		.align	2
 209              	.LC2:
 210 0024 3139322E 		.ascii	"192.168.2.5\000"
 210      3136382E 
 210      322E3500 
 211              		.align	2
 212              	.LC3:
 213 0030 49503A20 		.ascii	"IP: %s\000"
 213      257300
 214 0037 00       		.section	.text.http_server,"ax",%progbits
 215              		.align	2
 216              		.p2align 4,,15
 217              		.global	http_server
 218              		.thumb
 219              		.thumb_func
 220              		.type	http_server, %function
 221              	http_server:
 222              	.LFB262:
 223              		.loc 3 83 0
 224              		.cfi_startproc
 225              		@ args = 0, pretend = 0, frame = 24
 226              		@ frame_needed = 1, uses_anonymous_args = 0
 227 0000 80B5     		push	{r7, lr}
 228              		.cfi_def_cfa_offset 8
 229              		.cfi_offset 7, -8
 230              		.cfi_offset 14, -4
 231 0002 86B0     		sub	sp, sp, #24
 232              		.cfi_def_cfa_offset 32
 233 0004 00AF     		add	r7, sp, #0
 234              		.cfi_def_cfa_register 7
 235 0006 7860     		str	r0, [r7, #4]
 236              		.loc 3 90 0
 237 0008 1020     		movs	r0, #16
 238 000a 0021     		movs	r1, #0
 239 000c 0022     		movs	r2, #0
 240 000e FFF7FEFF 		bl	netconn_new_with_proto_and_callback
 241 0012 7861     		str	r0, [r7, #20]
 242              		.loc 3 91 0
 243 0014 7B69     		ldr	r3, [r7, #20]
 244 0016 002B     		cmp	r3, #0
 245 0018 06D1     		bne	.L9
 246              		.loc 3 91 0 is_stmt 0 discriminator 1
 247 001a 1948     		ldr	r0, .L13
 248 001c FFF7FEFF 		bl	osalSysHalt
 249 0020 6FF00100 		mvn	r0, #1
 250 0024 FFF7FEFF 		bl	chThdExit
 251              	.L9:
 252              		.loc 3 94 0 is_stmt 1
 253 0028 164B     		ldr	r3, .L13+4
 254 002a 3B61     		str	r3, [r7, #16]
 255              		.loc 3 95 0
 256 002c 7869     		ldr	r0, [r7, #20]
 257 002e 0021     		movs	r1, #0
 258 0030 5022     		movs	r2, #80
ARM GAS  C:\Users\Luis\AppData\Local\Temp\ccb1FswK.s 			page 6


 259 0032 FFF7FEFF 		bl	netconn_bind
 260              		.loc 3 98 0
 261 0036 7869     		ldr	r0, [r7, #20]
 262 0038 FF21     		movs	r1, #255
 263 003a FFF7FEFF 		bl	netconn_listen_with_backlog
 264              		.loc 3 101 0
 265 003e 0420     		movs	r0, #4
 266 0040 FFF7FEFF 		bl	chThdSetPriority
 267              		.loc 3 103 0
 268 0044 7B69     		ldr	r3, [r7, #20]
 269 0046 5B68     		ldr	r3, [r3, #4]
 270 0048 0F48     		ldr	r0, .L13+8
 271 004a 1049     		ldr	r1, .L13+12
 272 004c 1A46     		mov	r2, r3
 273 004e FFF7FEFF 		bl	chprintf
 274              	.L12:
 275              		.loc 3 106 0
 276 0052 07F10803 		add	r3, r7, #8
 277 0056 7869     		ldr	r0, [r7, #20]
 278 0058 1946     		mov	r1, r3
 279 005a FFF7FEFF 		bl	netconn_accept
 280 005e 0346     		mov	r3, r0
 281 0060 FB73     		strb	r3, [r7, #15]
 282              		.loc 3 107 0
 283 0062 97F90F30 		ldrsb	r3, [r7, #15]
 284 0066 002B     		cmp	r3, #0
 285 0068 01D0     		beq	.L10
 286              		.loc 3 108 0
 287 006a 00BF     		nop
 288              		.loc 3 111 0
 289 006c F1E7     		b	.L12
 290              	.L10:
 291              		.loc 3 109 0
 292 006e BB68     		ldr	r3, [r7, #8]
 293 0070 1846     		mov	r0, r3
 294 0072 FFF7FEFF 		bl	http_server_serve
 295              		.loc 3 110 0
 296 0076 BB68     		ldr	r3, [r7, #8]
 297 0078 1846     		mov	r0, r3
 298 007a FFF7FEFF 		bl	netconn_delete
 299              		.loc 3 111 0
 300 007e E8E7     		b	.L12
 301              	.L14:
 302              		.align	2
 303              	.L13:
 304 0080 08000000 		.word	.LC1
 305 0084 24000000 		.word	.LC2
 306 0088 00000000 		.word	SD1
 307 008c 30000000 		.word	.LC3
 308              		.cfi_endproc
 309              	.LFE262:
 310              		.size	http_server, .-http_server
 311              		.text
 312              	.Letext0:
 313              		.file 4 "c:\\emtechesdk\\gcc\\lib\\gcc\\arm-none-eabi\\4.8.3\\include\\stddef.h"
 314              		.file 5 "c:\\emtechesdk\\gcc\\arm-none-eabi\\include\\stdint.h"
 315              		.file 6 "../../ChibiOS/os/rt/ports/ARMCMx/compilers/GCC/chtypes.h"
ARM GAS  C:\Users\Luis\AppData\Local\Temp\ccb1FswK.s 			page 7


 316              		.file 7 "../../ChibiOS/os/rt/include/chsystypes.h"
 317              		.file 8 "../../ChibiOS/os/rt/include/chschd.h"
 318              		.file 9 "../../ChibiOS/os/ext/CMSIS/ST/stm32f407xx.h"
 319              		.file 10 "../../ChibiOS/os/rt/ports/ARMCMx/chcore.h"
 320              		.file 11 "../../ChibiOS/os/rt/ports/ARMCMx/chcore_v7m.h"
 321              		.file 12 "../../ChibiOS/os/rt/include/chdebug.h"
 322              		.file 13 "../../ChibiOS/os/rt/include/chtm.h"
 323              		.file 14 "../../ChibiOS/os/rt/include/chstats.h"
 324              		.file 15 "../../ChibiOS/os/rt/include/chsem.h"
 325              		.file 16 "../../ChibiOS/os/rt/include/chmtx.h"
 326              		.file 17 "../../ChibiOS/os/rt/include/chevents.h"
 327              		.file 18 "../../ChibiOS/os/rt/include/chmboxes.h"
 328              		.file 19 "../../ChibiOS/os/rt/include/chqueues.h"
 329              		.file 20 "../../ChibiOS/os/rt/include/chstreams.h"
 330              		.file 21 "../../ChibiOS/os/hal/include/serial.h"
 331              		.file 22 "../../ChibiOS/os/various/lwip_bindings/arch/cc.h"
 332              		.file 23 "../../ChibiOS/ext/lwip/src/include/lwip/err.h"
 333              		.file 24 "../../ChibiOS/ext/lwip/src/include/lwip/pbuf.h"
 334              		.file 25 "../../ChibiOS/ext/lwip/src/include/ipv4/lwip/ip_addr.h"
 335              		.file 26 "../../ChibiOS/ext/lwip/src/include/lwip/netbuf.h"
 336              		.file 27 "../../ChibiOS/os/various/lwip_bindings/arch/sys_arch.h"
 337              		.file 28 "../../ChibiOS/ext/lwip/src/include/lwip/api.h"
 338              		.file 29 "c:\\emtechesdk\\gcc\\lib\\gcc\\arm-none-eabi\\4.8.3\\include\\stdarg.h"
 339              		.file 30 "<built-in>"
 340              		.file 31 "../../ChibiOS/os/hal/ports/STM32/LLD/USARTv1/serial_lld.h"
 341              		.file 32 "../../ChibiOS/os/ext/CMSIS/include/core_cm4.h"